EXPORTS 
	?$TSS0@?1??Instance@MapStringSingleton@@SAAEAV2@XZ@4HA 	 DATA
	?$TSS0@?1??instance@DataDumper@@SAAEAV2@XZ@4HA 	 DATA
	?$TSS0@?1??instance@SoftwarePLL@@SAAEAV2@XZ@4HA 	 DATA
	??_R0?AU?$checked_array_deleter@E@boost@@@8 	 DATA
	??_R0?AV?$Fifo@V?$vector@EV?$allocator@E@std@@@std@@@sick_scansegment_xd@@@8 	 DATA
	??_R0?AV?$Fifo@VScanSegmentParserOutput@sick_scansegment_xd@@@sick_scansegment_xd@@@8 	 DATA
	??_R0?AV?$NumberValue@$08M@msgpack11@@@8 	 DATA
	??_R0?AV?$NumberValue@$0BD@C@msgpack11@@@8 	 DATA
	??_R0?AV?$NumberValue@$0BH@F@msgpack11@@@8 	 DATA
	??_R0?AV?$NumberValue@$0BL@H@msgpack11@@@8 	 DATA
	??_R0?AV?$NumberValue@$0BP@_J@msgpack11@@@8 	 DATA
	??_R0?AV?$NumberValue@$0CD@E@msgpack11@@@8 	 DATA
	??_R0?AV?$NumberValue@$0CH@G@msgpack11@@@8 	 DATA
	??_R0?AV?$NumberValue@$0CL@I@msgpack11@@@8 	 DATA
	??_R0?AV?$NumberValue@$0CP@_K@msgpack11@@@8 	 DATA
	??_R0?AV?$NumberValue@$0N@N@msgpack11@@@8 	 DATA
	??_R0?AV?$ServiceCallbackHelperT@U?$ServiceSpec@U?$ColaMsgSrvRequest_@V?$allocator@X@std@@@sick_scan_xd@@U?$ColaMsgSrvResponse_@V?$allocator@X@std@@@2@@roswrap@@@roswrap@@@8 	 DATA
	??_R0?AV?$ServiceCallbackHelperT@U?$ServiceSpec@U?$ECRChangeArrSrvRequest_@V?$allocator@X@std@@@sick_scan_xd@@U?$ECRChangeArrSrvResponse_@V?$allocator@X@std@@@2@@roswrap@@@roswrap@@@8 	 DATA
	??_R0?AV?$ServiceCallbackHelperT@U?$ServiceSpec@U?$GetContaminationResultSrvRequest_@V?$allocator@X@std@@@sick_scan_xd@@U?$GetContaminationResultSrvResponse_@V?$allocator@X@std@@@2@@roswrap@@@roswrap@@@8 	 DATA
	??_R0?AV?$ServiceCallbackHelperT@U?$ServiceSpec@U?$LIDoutputstateSrvRequest_@V?$allocator@X@std@@@sick_scan_xd@@U?$LIDoutputstateSrvResponse_@V?$allocator@X@std@@@2@@roswrap@@@roswrap@@@8 	 DATA
	??_R0?AV?$ServiceCallbackHelperT@U?$ServiceSpec@U?$SCdevicestateSrvRequest_@V?$allocator@X@std@@@sick_scan_xd@@U?$SCdevicestateSrvResponse_@V?$allocator@X@std@@@2@@roswrap@@@roswrap@@@8 	 DATA
	??_R0?AV?$ServiceCallbackHelperT@U?$ServiceSpec@U?$SCrebootSrvRequest_@V?$allocator@X@std@@@sick_scan_xd@@U?$SCrebootSrvResponse_@V?$allocator@X@std@@@2@@roswrap@@@roswrap@@@8 	 DATA
	??_R0?AV?$ServiceCallbackHelperT@U?$ServiceSpec@U?$SCsoftresetSrvRequest_@V?$allocator@X@std@@@sick_scan_xd@@U?$SCsoftresetSrvResponse_@V?$allocator@X@std@@@2@@roswrap@@@roswrap@@@8 	 DATA
	??_R0?AV?$ServiceCallbackHelperT@U?$ServiceSpec@U?$SickScanExitSrvRequest_@V?$allocator@X@std@@@sick_scan_xd@@U?$SickScanExitSrvResponse_@V?$allocator@X@std@@@2@@roswrap@@@roswrap@@@8 	 DATA
	??_R0?AV?$SickThread@VTcp@@$1?readThreadFunction@1@AEAAXAEA_NAEAG@Z@@@8 	 DATA
	??_R0?AV?$Value@$03UNullStruct@msgpack11@@@msgpack11@@@8 	 DATA
	??_R0?AV?$Value@$08M@msgpack11@@@8 	 DATA
	??_R0?AV?$Value@$0BD@C@msgpack11@@@8 	 DATA
	??_R0?AV?$Value@$0BH@F@msgpack11@@@8 	 DATA
	??_R0?AV?$Value@$0BL@H@msgpack11@@@8 	 DATA
	??_R0?AV?$Value@$0BP@_J@msgpack11@@@8 	 DATA
	??_R0?AV?$Value@$0CD@E@msgpack11@@@8 	 DATA
	??_R0?AV?$Value@$0CH@G@msgpack11@@@8 	 DATA
	??_R0?AV?$Value@$0CL@I@msgpack11@@@8 	 DATA
	??_R0?AV?$Value@$0CP@_K@msgpack11@@@8 	 DATA
	??_R0?AV?$Value@$0DA@_N@msgpack11@@@8 	 DATA
	??_R0?AV?$Value@$0DE@V?$basic_string@DU?$char_traits@D@std@@V?$allocator@D@2@@std@@@msgpack11@@@8 	 DATA
	??_R0?AV?$Value@$0DI@V?$vector@EV?$allocator@E@std@@@std@@@msgpack11@@@8 	 DATA
	??_R0?AV?$Value@$0DM@V?$vector@VMsgPack@msgpack11@@V?$allocator@VMsgPack@msgpack11@@@std@@@std@@@msgpack11@@@8 	 DATA
	??_R0?AV?$Value@$0EA@V?$map@VMsgPack@msgpack11@@V12@U?$less@VMsgPack@msgpack11@@@std@@V?$allocator@U?$pair@$$CBVMsgPack@msgpack11@@V12@@std@@@4@@std@@@msgpack11@@@8 	 DATA
	??_R0?AV?$Value@$0EE@V?$tuple@CV?$vector@EV?$allocator@E@std@@@std@@@std@@@msgpack11@@@8 	 DATA
	??_R0?AV?$Value@$0N@N@msgpack11@@@8 	 DATA
	??_R0?AV?$_Binder@U_Unforced@std@@A6A?AVSerializedMessage@roswrap@@AEBU?$Imu_@V?$allocator@X@std@@@sensor_msgs@@@ZV?$reference_wrapper@$$CBU?$Imu_@V?$allocator@X@std@@@sensor_msgs@@@2@@std@@@8 	 DATA
	??_R0?AV?$_Binder@U_Unforced@std@@A6A?AVSerializedMessage@roswrap@@AEBU?$LFErecMsg_@V?$allocator@X@std@@@sick_scan_xd@@@ZV?$reference_wrapper@$$CBU?$LFErecMsg_@V?$allocator@X@std@@@sick_scan_xd@@@2@@std@@@8 	 DATA
	??_R0?AV?$_Binder@U_Unforced@std@@A6A?AVSerializedMessage@roswrap@@AEBU?$LIDinputstateMsg_@V?$allocator@X@std@@@sick_scan_xd@@@ZV?$reference_wrapper@$$CBU?$LIDinputstateMsg_@V?$allocator@X@std@@@sick_scan_xd@@@2@@std@@@8 	 DATA
	??_R0?AV?$_Binder@U_Unforced@std@@A6A?AVSerializedMessage@roswrap@@AEBU?$LIDoutputstateMsg_@V?$allocator@X@std@@@sick_scan_xd@@@ZV?$reference_wrapper@$$CBU?$LIDoutputstateMsg_@V?$allocator@X@std@@@sick_scan_xd@@@2@@std@@@8 	 DATA
	??_R0?AV?$_Binder@U_Unforced@std@@A6A?AVSerializedMessage@roswrap@@AEBU?$MarkerArray_@V?$allocator@X@std@@@visualization_msgs@@@ZV?$reference_wrapper@$$CBU?$MarkerArray_@V?$allocator@X@std@@@visualization_msgs@@@2@@std@@@8 	 DATA
	??_R0?AV?$_Binder@U_Unforced@std@@A6A?AVSerializedMessage@roswrap@@AEBU?$NAVLandmarkData_@V?$allocator@X@std@@@sick_scan_xd@@@ZV?$reference_wrapper@$$CBU?$NAVLandmarkData_@V?$allocator@X@std@@@sick_scan_xd@@@2@@std@@@8 	 DATA
	??_R0?AV?$_Binder@U_Unforced@std@@A6A?AVSerializedMessage@roswrap@@AEBU?$NAVPoseData_@V?$allocator@X@std@@@sick_scan_xd@@@ZV?$reference_wrapper@$$CBU?$NAVPoseData_@V?$allocator@X@std@@@sick_scan_xd@@@2@@std@@@8 	 DATA
	??_R0?AV?$_Binder@U_Unforced@std@@A6A?AVSerializedMessage@roswrap@@AEBU?$RadarScan_@V?$allocator@X@std@@@sick_scan_xd@@@ZV?$reference_wrapper@$$CBU?$RadarScan_@V?$allocator@X@std@@@sick_scan_xd@@@2@@std@@@8 	 DATA
	??_R0?AV?$_Binder@U_Unforced@std@@A6A?AVSerializedMessage@roswrap@@AEBU?$String_@V?$allocator@X@std@@@std_msgs@@@ZV?$reference_wrapper@$$CBU?$String_@V?$allocator@X@std@@@std_msgs@@@2@@std@@@8 	 DATA
	??_R0?AV?$_Binder@U_Unforced@std@@AEAP8SickScanServices@sick_scan_xd@@EAA_NAEAU?$ColaMsgSrvRequest_@V?$allocator@X@std@@@4@AEAU?$ColaMsgSrvResponse_@V?$allocator@X@std@@@4@@ZAEAPEAV34@AEBU?$_Ph@$00@2@AEBU?$_Ph@$01@2@@std@@@8 	 DATA
	??_R0?AV?$_Binder@U_Unforced@std@@AEAP8SickScanServices@sick_scan_xd@@EAA_NAEAU?$ECRChangeArrSrvRequest_@V?$allocator@X@std@@@4@AEAU?$ECRChangeArrSrvResponse_@V?$allocator@X@std@@@4@@ZAEAPEAV34@AEBU?$_Ph@$00@2@AEBU?$_Ph@$01@2@@std@@@8 	 DATA
	??_R0?AV?$_Binder@U_Unforced@std@@AEAP8SickScanServices@sick_scan_xd@@EAA_NAEAU?$GetContaminationResultSrvRequest_@V?$allocator@X@std@@@4@AEAU?$GetContaminationResultSrvResponse_@V?$allocator@X@std@@@4@@ZAEAPEAV34@AEBU?$_Ph@$00@2@AEBU?$_Ph@$01@2@@std@@@8 	 DATA
	??_R0?AV?$_Binder@U_Unforced@std@@AEAP8SickScanServices@sick_scan_xd@@EAA_NAEAU?$LIDoutputstateSrvRequest_@V?$allocator@X@std@@@4@AEAU?$LIDoutputstateSrvResponse_@V?$allocator@X@std@@@4@@ZAEAPEAV34@AEBU?$_Ph@$00@2@AEBU?$_Ph@$01@2@@std@@@8 	 DATA
	??_R0?AV?$_Binder@U_Unforced@std@@AEAP8SickScanServices@sick_scan_xd@@EAA_NAEAU?$SCdevicestateSrvRequest_@V?$allocator@X@std@@@4@AEAU?$SCdevicestateSrvResponse_@V?$allocator@X@std@@@4@@ZAEAPEAV34@AEBU?$_Ph@$00@2@AEBU?$_Ph@$01@2@@std@@@8 	 DATA
	??_R0?AV?$_Binder@U_Unforced@std@@AEAP8SickScanServices@sick_scan_xd@@EAA_NAEAU?$SCrebootSrvRequest_@V?$allocator@X@std@@@4@AEAU?$SCrebootSrvResponse_@V?$allocator@X@std@@@4@@ZAEAPEAV34@AEBU?$_Ph@$00@2@AEBU?$_Ph@$01@2@@std@@@8 	 DATA
	??_R0?AV?$_Binder@U_Unforced@std@@AEAP8SickScanServices@sick_scan_xd@@EAA_NAEAU?$SCsoftresetSrvRequest_@V?$allocator@X@std@@@4@AEAU?$SCsoftresetSrvResponse_@V?$allocator@X@std@@@4@@ZAEAPEAV34@AEBU?$_Ph@$00@2@AEBU?$_Ph@$01@2@@std@@@8 	 DATA
	??_R0?AV?$_Binder@U_Unforced@std@@AEAP8SickScanServices@sick_scan_xd@@EAA_NAEAU?$SickScanExitSrvRequest_@V?$allocator@X@std@@@4@AEAU?$SickScanExitSrvResponse_@V?$allocator@X@std@@@4@@ZAEAPEAV34@AEBU?$_Ph@$00@2@AEBU?$_Ph@$01@2@@std@@@8 	 DATA
	??_R0?AV?$_Func_base@V?$shared_ptr@U?$ColaMsgSrvRequest_@V?$allocator@X@std@@@sick_scan_xd@@@std@@$$V@std@@@8 	 DATA
	??_R0?AV?$_Func_base@V?$shared_ptr@U?$ColaMsgSrvResponse_@V?$allocator@X@std@@@sick_scan_xd@@@std@@$$V@std@@@8 	 DATA
	??_R0?AV?$_Func_base@V?$shared_ptr@U?$ECRChangeArrSrvRequest_@V?$allocator@X@std@@@sick_scan_xd@@@std@@$$V@std@@@8 	 DATA
	??_R0?AV?$_Func_base@V?$shared_ptr@U?$ECRChangeArrSrvResponse_@V?$allocator@X@std@@@sick_scan_xd@@@std@@$$V@std@@@8 	 DATA
	??_R0?AV?$_Func_base@V?$shared_ptr@U?$GetContaminationResultSrvRequest_@V?$allocator@X@std@@@sick_scan_xd@@@std@@$$V@std@@@8 	 DATA
	??_R0?AV?$_Func_base@V?$shared_ptr@U?$GetContaminationResultSrvResponse_@V?$allocator@X@std@@@sick_scan_xd@@@std@@$$V@std@@@8 	 DATA
	??_R0?AV?$_Func_base@V?$shared_ptr@U?$LIDoutputstateSrvRequest_@V?$allocator@X@std@@@sick_scan_xd@@@std@@$$V@std@@@8 	 DATA
	??_R0?AV?$_Func_base@V?$shared_ptr@U?$LIDoutputstateSrvResponse_@V?$allocator@X@std@@@sick_scan_xd@@@std@@$$V@std@@@8 	 DATA
	??_R0?AV?$_Func_base@V?$shared_ptr@U?$SCdevicestateSrvRequest_@V?$allocator@X@std@@@sick_scan_xd@@@std@@$$V@std@@@8 	 DATA
	??_R0?AV?$_Func_base@V?$shared_ptr@U?$SCdevicestateSrvResponse_@V?$allocator@X@std@@@sick_scan_xd@@@std@@$$V@std@@@8 	 DATA
	??_R0?AV?$_Func_base@V?$shared_ptr@U?$SCrebootSrvRequest_@V?$allocator@X@std@@@sick_scan_xd@@@std@@$$V@std@@@8 	 DATA
	??_R0?AV?$_Func_base@V?$shared_ptr@U?$SCrebootSrvResponse_@V?$allocator@X@std@@@sick_scan_xd@@@std@@$$V@std@@@8 	 DATA
	??_R0?AV?$_Func_base@V?$shared_ptr@U?$SCsoftresetSrvRequest_@V?$allocator@X@std@@@sick_scan_xd@@@std@@$$V@std@@@8 	 DATA
	??_R0?AV?$_Func_base@V?$shared_ptr@U?$SCsoftresetSrvResponse_@V?$allocator@X@std@@@sick_scan_xd@@@std@@$$V@std@@@8 	 DATA
	??_R0?AV?$_Func_base@V?$shared_ptr@U?$SickScanExitSrvRequest_@V?$allocator@X@std@@@sick_scan_xd@@@std@@$$V@std@@@8 	 DATA
	??_R0?AV?$_Func_base@V?$shared_ptr@U?$SickScanExitSrvResponse_@V?$allocator@X@std@@@sick_scan_xd@@@std@@$$V@std@@@8 	 DATA
	??_R0?AV?$_Func_base@VSerializedMessage@roswrap@@$$V@std@@@8 	 DATA
	??_R0?AV?$_Func_base@_NAEAU?$ColaMsgSrvRequest_@V?$allocator@X@std@@@sick_scan_xd@@AEAU?$ColaMsgSrvResponse_@V?$allocator@X@std@@@2@@std@@@8 	 DATA
	??_R0?AV?$_Func_base@_NAEAU?$ECRChangeArrSrvRequest_@V?$allocator@X@std@@@sick_scan_xd@@AEAU?$ECRChangeArrSrvResponse_@V?$allocator@X@std@@@2@@std@@@8 	 DATA
	??_R0?AV?$_Func_base@_NAEAU?$GetContaminationResultSrvRequest_@V?$allocator@X@std@@@sick_scan_xd@@AEAU?$GetContaminationResultSrvResponse_@V?$allocator@X@std@@@2@@std@@@8 	 DATA
	??_R0?AV?$_Func_base@_NAEAU?$LIDoutputstateSrvRequest_@V?$allocator@X@std@@@sick_scan_xd@@AEAU?$LIDoutputstateSrvResponse_@V?$allocator@X@std@@@2@@std@@@8 	 DATA
	??_R0?AV?$_Func_base@_NAEAU?$SCdevicestateSrvRequest_@V?$allocator@X@std@@@sick_scan_xd@@AEAU?$SCdevicestateSrvResponse_@V?$allocator@X@std@@@2@@std@@@8 	 DATA
	??_R0?AV?$_Func_base@_NAEAU?$SCrebootSrvRequest_@V?$allocator@X@std@@@sick_scan_xd@@AEAU?$SCrebootSrvResponse_@V?$allocator@X@std@@@2@@std@@@8 	 DATA
	??_R0?AV?$_Func_base@_NAEAU?$SCsoftresetSrvRequest_@V?$allocator@X@std@@@sick_scan_xd@@AEAU?$SCsoftresetSrvResponse_@V?$allocator@X@std@@@2@@std@@@8 	 DATA
	??_R0?AV?$_Func_base@_NAEAU?$SickScanExitSrvRequest_@V?$allocator@X@std@@@sick_scan_xd@@AEAU?$SickScanExitSrvResponse_@V?$allocator@X@std@@@2@@std@@@8 	 DATA
	??_R0?AV?$_Func_impl_no_alloc@P6A?AV?$shared_ptr@U?$ColaMsgSrvRequest_@V?$allocator@X@std@@@sick_scan_xd@@@std@@XZV12@$$V@std@@@8 	 DATA
	??_R0?AV?$_Func_impl_no_alloc@P6A?AV?$shared_ptr@U?$ColaMsgSrvResponse_@V?$allocator@X@std@@@sick_scan_xd@@@std@@XZV12@$$V@std@@@8 	 DATA
	??_R0?AV?$_Func_impl_no_alloc@P6A?AV?$shared_ptr@U?$ECRChangeArrSrvRequest_@V?$allocator@X@std@@@sick_scan_xd@@@std@@XZV12@$$V@std@@@8 	 DATA
	??_R0?AV?$_Func_impl_no_alloc@P6A?AV?$shared_ptr@U?$ECRChangeArrSrvResponse_@V?$allocator@X@std@@@sick_scan_xd@@@std@@XZV12@$$V@std@@@8 	 DATA
	??_R0?AV?$_Func_impl_no_alloc@P6A?AV?$shared_ptr@U?$GetContaminationResultSrvRequest_@V?$allocator@X@std@@@sick_scan_xd@@@std@@XZV12@$$V@std@@@8 	 DATA
	??_R0?AV?$_Func_impl_no_alloc@P6A?AV?$shared_ptr@U?$GetContaminationResultSrvResponse_@V?$allocator@X@std@@@sick_scan_xd@@@std@@XZV12@$$V@std@@@8 	 DATA
	??_R0?AV?$_Func_impl_no_alloc@P6A?AV?$shared_ptr@U?$LIDoutputstateSrvRequest_@V?$allocator@X@std@@@sick_scan_xd@@@std@@XZV12@$$V@std@@@8 	 DATA
	??_R0?AV?$_Func_impl_no_alloc@P6A?AV?$shared_ptr@U?$LIDoutputstateSrvResponse_@V?$allocator@X@std@@@sick_scan_xd@@@std@@XZV12@$$V@std@@@8 	 DATA
	??_R0?AV?$_Func_impl_no_alloc@P6A?AV?$shared_ptr@U?$SCdevicestateSrvRequest_@V?$allocator@X@std@@@sick_scan_xd@@@std@@XZV12@$$V@std@@@8 	 DATA
	??_R0?AV?$_Func_impl_no_alloc@P6A?AV?$shared_ptr@U?$SCdevicestateSrvResponse_@V?$allocator@X@std@@@sick_scan_xd@@@std@@XZV12@$$V@std@@@8 	 DATA
	??_R0?AV?$_Func_impl_no_alloc@P6A?AV?$shared_ptr@U?$SCrebootSrvRequest_@V?$allocator@X@std@@@sick_scan_xd@@@std@@XZV12@$$V@std@@@8 	 DATA
	??_R0?AV?$_Func_impl_no_alloc@P6A?AV?$shared_ptr@U?$SCrebootSrvResponse_@V?$allocator@X@std@@@sick_scan_xd@@@std@@XZV12@$$V@std@@@8 	 DATA
	??_R0?AV?$_Func_impl_no_alloc@P6A?AV?$shared_ptr@U?$SCsoftresetSrvRequest_@V?$allocator@X@std@@@sick_scan_xd@@@std@@XZV12@$$V@std@@@8 	 DATA
	??_R0?AV?$_Func_impl_no_alloc@P6A?AV?$shared_ptr@U?$SCsoftresetSrvResponse_@V?$allocator@X@std@@@sick_scan_xd@@@std@@XZV12@$$V@std@@@8 	 DATA
	??_R0?AV?$_Func_impl_no_alloc@P6A?AV?$shared_ptr@U?$SickScanExitSrvRequest_@V?$allocator@X@std@@@sick_scan_xd@@@std@@XZV12@$$V@std@@@8 	 DATA
	??_R0?AV?$_Func_impl_no_alloc@P6A?AV?$shared_ptr@U?$SickScanExitSrvResponse_@V?$allocator@X@std@@@sick_scan_xd@@@std@@XZV12@$$V@std@@@8 	 DATA
	??_R0?AV?$_Func_impl_no_alloc@V?$_Binder@U_Unforced@std@@A6A?AVSerializedMessage@roswrap@@AEBU?$Imu_@V?$allocator@X@std@@@sensor_msgs@@@ZV?$reference_wrapper@$$CBU?$Imu_@V?$allocator@X@std@@@sensor_msgs@@@2@@std@@VSerializedMessage@roswrap@@$$V@std@@@8 	 DATA
	??_R0?AV?$_Func_impl_no_alloc@V?$_Binder@U_Unforced@std@@A6A?AVSerializedMessage@roswrap@@AEBU?$LFErecMsg_@V?$allocator@X@std@@@sick_scan_xd@@@ZV?$reference_wrapper@$$CBU?$LFErecMsg_@V?$allocator@X@std@@@sick_scan_xd@@@2@@std@@VSerializedMessage@roswrap@@$$V@std@@@8 	 DATA
	??_R0?AV?$_Func_impl_no_alloc@V?$_Binder@U_Unforced@std@@A6A?AVSerializedMessage@roswrap@@AEBU?$LIDinputstateMsg_@V?$allocator@X@std@@@sick_scan_xd@@@ZV?$reference_wrapper@$$CBU?$LIDinputstateMsg_@V?$allocator@X@std@@@sick_scan_xd@@@2@@std@@VSerializedMessage@roswrap@@$$V@std@@@8 	 DATA
	??_R0?AV?$_Func_impl_no_alloc@V?$_Binder@U_Unforced@std@@A6A?AVSerializedMessage@roswrap@@AEBU?$LIDoutputstateMsg_@V?$allocator@X@std@@@sick_scan_xd@@@ZV?$reference_wrapper@$$CBU?$LIDoutputstateMsg_@V?$allocator@X@std@@@sick_scan_xd@@@2@@std@@VSerializedMessage@roswrap@@$$V@std@@@8 	 DATA
	??_R0?AV?$_Func_impl_no_alloc@V?$_Binder@U_Unforced@std@@A6A?AVSerializedMessage@roswrap@@AEBU?$MarkerArray_@V?$allocator@X@std@@@visualization_msgs@@@ZV?$reference_wrapper@$$CBU?$MarkerArray_@V?$allocator@X@std@@@visualization_msgs@@@2@@std@@VSerializedMessage@roswrap@@$$V@std@@@8 	 DATA
	??_R0?AV?$_Func_impl_no_alloc@V?$_Binder@U_Unforced@std@@A6A?AVSerializedMessage@roswrap@@AEBU?$NAVLandmarkData_@V?$allocator@X@std@@@sick_scan_xd@@@ZV?$reference_wrapper@$$CBU?$NAVLandmarkData_@V?$allocator@X@std@@@sick_scan_xd@@@2@@std@@VSerializedMessage@roswrap@@$$V@std@@@8 	 DATA
	??_R0?AV?$_Func_impl_no_alloc@V?$_Binder@U_Unforced@std@@A6A?AVSerializedMessage@roswrap@@AEBU?$NAVPoseData_@V?$allocator@X@std@@@sick_scan_xd@@@ZV?$reference_wrapper@$$CBU?$NAVPoseData_@V?$allocator@X@std@@@sick_scan_xd@@@2@@std@@VSerializedMessage@roswrap@@$$V@std@@@8 	 DATA
	??_R0?AV?$_Func_impl_no_alloc@V?$_Binder@U_Unforced@std@@A6A?AVSerializedMessage@roswrap@@AEBU?$RadarScan_@V?$allocator@X@std@@@sick_scan_xd@@@ZV?$reference_wrapper@$$CBU?$RadarScan_@V?$allocator@X@std@@@sick_scan_xd@@@2@@std@@VSerializedMessage@roswrap@@$$V@std@@@8 	 DATA
	??_R0?AV?$_Func_impl_no_alloc@V?$_Binder@U_Unforced@std@@A6A?AVSerializedMessage@roswrap@@AEBU?$String_@V?$allocator@X@std@@@std_msgs@@@ZV?$reference_wrapper@$$CBU?$String_@V?$allocator@X@std@@@std_msgs@@@2@@std@@VSerializedMessage@roswrap@@$$V@std@@@8 	 DATA
	??_R0?AV?$_Func_impl_no_alloc@V?$_Binder@U_Unforced@std@@AEAP8SickScanServices@sick_scan_xd@@EAA_NAEAU?$ColaMsgSrvRequest_@V?$allocator@X@std@@@4@AEAU?$ColaMsgSrvResponse_@V?$allocator@X@std@@@4@@ZAEAPEAV34@AEBU?$_Ph@$00@2@AEBU?$_Ph@$01@2@@std@@_NAEAU?$ColaMsgSrvRequest_@V?$allocator@X@std@@@sick_scan_xd@@AEAU?$ColaMsgSrvResponse_@V?$allocator@X@std@@@4@@std@@@8 	 DATA
	??_R0?AV?$_Func_impl_no_alloc@V?$_Binder@U_Unforced@std@@AEAP8SickScanServices@sick_scan_xd@@EAA_NAEAU?$ECRChangeArrSrvRequest_@V?$allocator@X@std@@@4@AEAU?$ECRChangeArrSrvResponse_@V?$allocator@X@std@@@4@@ZAEAPEAV34@AEBU?$_Ph@$00@2@AEBU?$_Ph@$01@2@@std@@_NAEAU?$ECRChangeArrSrvRequest_@V?$allocator@X@std@@@sick_scan_xd@@AEAU?$ECRChangeArrSrvResponse_@V?$allocator@X@std@@@4@@std@@@8 	 DATA
	??_R0?AV?$_Func_impl_no_alloc@V?$_Binder@U_Unforced@std@@AEAP8SickScanServices@sick_scan_xd@@EAA_NAEAU?$GetContaminationResultSrvRequest_@V?$allocator@X@std@@@4@AEAU?$GetContaminationResultSrvResponse_@V?$allocator@X@std@@@4@@ZAEAPEAV34@AEBU?$_Ph@$00@2@AEBU?$_Ph@$01@2@@std@@_NAEAU?$GetContaminationResultSrvRequest_@V?$allocator@X@std@@@sick_scan_xd@@AEAU?$GetContaminationResultSrvResponse_@V?$allocator@X@std@@@4@@std@@@8 	 DATA
	??_R0?AV?$_Func_impl_no_alloc@V?$_Binder@U_Unforced@std@@AEAP8SickScanServices@sick_scan_xd@@EAA_NAEAU?$LIDoutputstateSrvRequest_@V?$allocator@X@std@@@4@AEAU?$LIDoutputstateSrvResponse_@V?$allocator@X@std@@@4@@ZAEAPEAV34@AEBU?$_Ph@$00@2@AEBU?$_Ph@$01@2@@std@@_NAEAU?$LIDoutputstateSrvRequest_@V?$allocator@X@std@@@sick_scan_xd@@AEAU?$LIDoutputstateSrvResponse_@V?$allocator@X@std@@@4@@std@@@8 	 DATA
	??_R0?AV?$_Func_impl_no_alloc@V?$_Binder@U_Unforced@std@@AEAP8SickScanServices@sick_scan_xd@@EAA_NAEAU?$SCdevicestateSrvRequest_@V?$allocator@X@std@@@4@AEAU?$SCdevicestateSrvResponse_@V?$allocator@X@std@@@4@@ZAEAPEAV34@AEBU?$_Ph@$00@2@AEBU?$_Ph@$01@2@@std@@_NAEAU?$SCdevicestateSrvRequest_@V?$allocator@X@std@@@sick_scan_xd@@AEAU?$SCdevicestateSrvResponse_@V?$allocator@X@std@@@4@@std@@@8 	 DATA
	??_R0?AV?$_Func_impl_no_alloc@V?$_Binder@U_Unforced@std@@AEAP8SickScanServices@sick_scan_xd@@EAA_NAEAU?$SCrebootSrvRequest_@V?$allocator@X@std@@@4@AEAU?$SCrebootSrvResponse_@V?$allocator@X@std@@@4@@ZAEAPEAV34@AEBU?$_Ph@$00@2@AEBU?$_Ph@$01@2@@std@@_NAEAU?$SCrebootSrvRequest_@V?$allocator@X@std@@@sick_scan_xd@@AEAU?$SCrebootSrvResponse_@V?$allocator@X@std@@@4@@std@@@8 	 DATA
	??_R0?AV?$_Func_impl_no_alloc@V?$_Binder@U_Unforced@std@@AEAP8SickScanServices@sick_scan_xd@@EAA_NAEAU?$SCsoftresetSrvRequest_@V?$allocator@X@std@@@4@AEAU?$SCsoftresetSrvResponse_@V?$allocator@X@std@@@4@@ZAEAPEAV34@AEBU?$_Ph@$00@2@AEBU?$_Ph@$01@2@@std@@_NAEAU?$SCsoftresetSrvRequest_@V?$allocator@X@std@@@sick_scan_xd@@AEAU?$SCsoftresetSrvResponse_@V?$allocator@X@std@@@4@@std@@@8 	 DATA
	??_R0?AV?$_Func_impl_no_alloc@V?$_Binder@U_Unforced@std@@AEAP8SickScanServices@sick_scan_xd@@EAA_NAEAU?$SickScanExitSrvRequest_@V?$allocator@X@std@@@4@AEAU?$SickScanExitSrvResponse_@V?$allocator@X@std@@@4@@ZAEAPEAV34@AEBU?$_Ph@$00@2@AEBU?$_Ph@$01@2@@std@@_NAEAU?$SickScanExitSrvRequest_@V?$allocator@X@std@@@sick_scan_xd@@AEAU?$SickScanExitSrvResponse_@V?$allocator@X@std@@@4@@std@@@8 	 DATA
	??_R0?AV?$_Iosb@H@std@@@8 	 DATA
	??_R0?AV?$_Ref_count_obj2@U?$ColaMsgSrvRequest_@V?$allocator@X@std@@@sick_scan_xd@@@std@@@8 	 DATA
	??_R0?AV?$_Ref_count_obj2@U?$ColaMsgSrvResponse_@V?$allocator@X@std@@@sick_scan_xd@@@std@@@8 	 DATA
	??_R0?AV?$_Ref_count_obj2@U?$ECRChangeArrSrvRequest_@V?$allocator@X@std@@@sick_scan_xd@@@std@@@8 	 DATA
	??_R0?AV?$_Ref_count_obj2@U?$ECRChangeArrSrvResponse_@V?$allocator@X@std@@@sick_scan_xd@@@std@@@8 	 DATA
	??_R0?AV?$_Ref_count_obj2@U?$GetContaminationResultSrvRequest_@V?$allocator@X@std@@@sick_scan_xd@@@std@@@8 	 DATA
	??_R0?AV?$_Ref_count_obj2@U?$GetContaminationResultSrvResponse_@V?$allocator@X@std@@@sick_scan_xd@@@std@@@8 	 DATA
	??_R0?AV?$_Ref_count_obj2@U?$LIDoutputstateSrvRequest_@V?$allocator@X@std@@@sick_scan_xd@@@std@@@8 	 DATA
	??_R0?AV?$_Ref_count_obj2@U?$LIDoutputstateSrvResponse_@V?$allocator@X@std@@@sick_scan_xd@@@std@@@8 	 DATA
	??_R0?AV?$_Ref_count_obj2@U?$SCdevicestateSrvRequest_@V?$allocator@X@std@@@sick_scan_xd@@@std@@@8 	 DATA
	??_R0?AV?$_Ref_count_obj2@U?$SCdevicestateSrvResponse_@V?$allocator@X@std@@@sick_scan_xd@@@std@@@8 	 DATA
	??_R0?AV?$_Ref_count_obj2@U?$SCrebootSrvRequest_@V?$allocator@X@std@@@sick_scan_xd@@@std@@@8 	 DATA
	??_R0?AV?$_Ref_count_obj2@U?$SCrebootSrvResponse_@V?$allocator@X@std@@@sick_scan_xd@@@std@@@8 	 DATA
	??_R0?AV?$_Ref_count_obj2@U?$SCsoftresetSrvRequest_@V?$allocator@X@std@@@sick_scan_xd@@@std@@@8 	 DATA
	??_R0?AV?$_Ref_count_obj2@U?$SCsoftresetSrvResponse_@V?$allocator@X@std@@@sick_scan_xd@@@std@@@8 	 DATA
	??_R0?AV?$_Ref_count_obj2@U?$SickScanExitSrvRequest_@V?$allocator@X@std@@@sick_scan_xd@@@std@@@8 	 DATA
	??_R0?AV?$_Ref_count_obj2@U?$SickScanExitSrvResponse_@V?$allocator@X@std@@@sick_scan_xd@@@std@@@8 	 DATA
	??_R0?AV?$_Ref_count_obj2@V?$ServiceCallbackHelperT@U?$ServiceSpec@U?$ColaMsgSrvRequest_@V?$allocator@X@std@@@sick_scan_xd@@U?$ColaMsgSrvResponse_@V?$allocator@X@std@@@2@@roswrap@@@roswrap@@@std@@@8 	 DATA
	??_R0?AV?$_Ref_count_obj2@V?$ServiceCallbackHelperT@U?$ServiceSpec@U?$ECRChangeArrSrvRequest_@V?$allocator@X@std@@@sick_scan_xd@@U?$ECRChangeArrSrvResponse_@V?$allocator@X@std@@@2@@roswrap@@@roswrap@@@std@@@8 	 DATA
	??_R0?AV?$_Ref_count_obj2@V?$ServiceCallbackHelperT@U?$ServiceSpec@U?$GetContaminationResultSrvRequest_@V?$allocator@X@std@@@sick_scan_xd@@U?$GetContaminationResultSrvResponse_@V?$allocator@X@std@@@2@@roswrap@@@roswrap@@@std@@@8 	 DATA
	??_R0?AV?$_Ref_count_obj2@V?$ServiceCallbackHelperT@U?$ServiceSpec@U?$LIDoutputstateSrvRequest_@V?$allocator@X@std@@@sick_scan_xd@@U?$LIDoutputstateSrvResponse_@V?$allocator@X@std@@@2@@roswrap@@@roswrap@@@std@@@8 	 DATA
	??_R0?AV?$_Ref_count_obj2@V?$ServiceCallbackHelperT@U?$ServiceSpec@U?$SCdevicestateSrvRequest_@V?$allocator@X@std@@@sick_scan_xd@@U?$SCdevicestateSrvResponse_@V?$allocator@X@std@@@2@@roswrap@@@roswrap@@@std@@@8 	 DATA
	??_R0?AV?$_Ref_count_obj2@V?$ServiceCallbackHelperT@U?$ServiceSpec@U?$SCrebootSrvRequest_@V?$allocator@X@std@@@sick_scan_xd@@U?$SCrebootSrvResponse_@V?$allocator@X@std@@@2@@roswrap@@@roswrap@@@std@@@8 	 DATA
	??_R0?AV?$_Ref_count_obj2@V?$ServiceCallbackHelperT@U?$ServiceSpec@U?$SCsoftresetSrvRequest_@V?$allocator@X@std@@@sick_scan_xd@@U?$SCsoftresetSrvResponse_@V?$allocator@X@std@@@2@@roswrap@@@roswrap@@@std@@@8 	 DATA
	??_R0?AV?$_Ref_count_obj2@V?$ServiceCallbackHelperT@U?$ServiceSpec@U?$SickScanExitSrvRequest_@V?$allocator@X@std@@@sick_scan_xd@@U?$SickScanExitSrvResponse_@V?$allocator@X@std@@@2@@roswrap@@@roswrap@@@std@@@8 	 DATA
	??_R0?AV?$_Ref_count_obj2@VMsgPackArray@msgpack11@@@std@@@8 	 DATA
	??_R0?AV?$_Ref_count_obj2@VMsgPackBinary@msgpack11@@@std@@@8 	 DATA
	??_R0?AV?$_Ref_count_obj2@VMsgPackBoolean@msgpack11@@@std@@@8 	 DATA
	??_R0?AV?$_Ref_count_obj2@VMsgPackDouble@msgpack11@@@std@@@8 	 DATA
	??_R0?AV?$_Ref_count_obj2@VMsgPackExtension@msgpack11@@@std@@@8 	 DATA
	??_R0?AV?$_Ref_count_obj2@VMsgPackFloat@msgpack11@@@std@@@8 	 DATA
	??_R0?AV?$_Ref_count_obj2@VMsgPackInt16@msgpack11@@@std@@@8 	 DATA
	??_R0?AV?$_Ref_count_obj2@VMsgPackInt32@msgpack11@@@std@@@8 	 DATA
	??_R0?AV?$_Ref_count_obj2@VMsgPackInt64@msgpack11@@@std@@@8 	 DATA
	??_R0?AV?$_Ref_count_obj2@VMsgPackInt8@msgpack11@@@std@@@8 	 DATA
	??_R0?AV?$_Ref_count_obj2@VMsgPackNull@msgpack11@@@std@@@8 	 DATA
	??_R0?AV?$_Ref_count_obj2@VMsgPackObject@msgpack11@@@std@@@8 	 DATA
	??_R0?AV?$_Ref_count_obj2@VMsgPackString@msgpack11@@@std@@@8 	 DATA
	??_R0?AV?$_Ref_count_obj2@VMsgPackUint16@msgpack11@@@std@@@8 	 DATA
	??_R0?AV?$_Ref_count_obj2@VMsgPackUint32@msgpack11@@@std@@@8 	 DATA
	??_R0?AV?$_Ref_count_obj2@VMsgPackUint64@msgpack11@@@std@@@8 	 DATA
	??_R0?AV?$_Ref_count_obj2@VMsgPackUint8@msgpack11@@@std@@@8 	 DATA
	??_R0?AV?$_Ref_count_obj2@VRosMsgpackPublisher@sick_scansegment_xd@@@std@@@8 	 DATA
	??_R0?AV?$basic_filebuf@DU?$char_traits@D@std@@@std@@@8 	 DATA
	??_R0?AV?$basic_ifstream@DU?$char_traits@D@std@@@std@@@8 	 DATA
	??_R0?AV?$basic_ios@DU?$char_traits@D@std@@@std@@@8 	 DATA
	??_R0?AV?$basic_iostream@DU?$char_traits@D@std@@@std@@@8 	 DATA
	??_R0?AV?$basic_istream@DU?$char_traits@D@std@@@std@@@8 	 DATA
	??_R0?AV?$basic_istringstream@DU?$char_traits@D@std@@V?$allocator@D@2@@std@@@8 	 DATA
	??_R0?AV?$basic_ofstream@DU?$char_traits@D@std@@@std@@@8 	 DATA
	??_R0?AV?$basic_ostream@DU?$char_traits@D@std@@@std@@@8 	 DATA
	??_R0?AV?$basic_ostringstream@DU?$char_traits@D@std@@V?$allocator@D@2@@std@@@8 	 DATA
	??_R0?AV?$basic_streambuf@DU?$char_traits@D@std@@@std@@@8 	 DATA
	??_R0?AV?$basic_stringbuf@DU?$char_traits@D@std@@V?$allocator@D@2@@std@@@8 	 DATA
	??_R0?AV?$basic_stringstream@DU?$char_traits@D@std@@V?$allocator@D@2@@std@@@8 	 DATA
	??_R0?AV?$sp_counted_impl_pd@PEAEU?$checked_array_deleter@E@boost@@@detail@boost@@@8 	 DATA
	??_R0?AVAbstractParser@sick_scan_xd@@@8 	 DATA
	??_R0?AVDatagramWithTimeStamp@sick_scan_xd@@@8 	 DATA
	??_R0?AVException@roswrap@@@8 	 DATA
	??_R0?AVMsgPackArray@msgpack11@@@8 	 DATA
	??_R0?AVMsgPackBinary@msgpack11@@@8 	 DATA
	??_R0?AVMsgPackBoolean@msgpack11@@@8 	 DATA
	??_R0?AVMsgPackDouble@msgpack11@@@8 	 DATA
	??_R0?AVMsgPackExportListenerIF@sick_scansegment_xd@@@8 	 DATA
	??_R0?AVMsgPackExtension@msgpack11@@@8 	 DATA
	??_R0?AVMsgPackFloat@msgpack11@@@8 	 DATA
	??_R0?AVMsgPackInt16@msgpack11@@@8 	 DATA
	??_R0?AVMsgPackInt32@msgpack11@@@8 	 DATA
	??_R0?AVMsgPackInt64@msgpack11@@@8 	 DATA
	??_R0?AVMsgPackInt8@msgpack11@@@8 	 DATA
	??_R0?AVMsgPackNull@msgpack11@@@8 	 DATA
	??_R0?AVMsgPackObject@msgpack11@@@8 	 DATA
	??_R0?AVMsgPackString@msgpack11@@@8 	 DATA
	??_R0?AVMsgPackUint16@msgpack11@@@8 	 DATA
	??_R0?AVMsgPackUint32@msgpack11@@@8 	 DATA
	??_R0?AVMsgPackUint64@msgpack11@@@8 	 DATA
	??_R0?AVMsgPackUint8@msgpack11@@@8 	 DATA
	??_R0?AVMsgPackValue@msgpack11@@@8 	 DATA
	??_R0?AVNoHighPerformanceTimersException@roswrap@@@8 	 DATA
	??_R0?AVPayloadFifo@sick_scansegment_xd@@@8 	 DATA
	??_R0?AVRosMsgpackPublisher@sick_scansegment_xd@@@8 	 DATA
	??_R0?AVServiceCallbackHelper@roswrap@@@8 	 DATA
	??_R0?AVSickGenericParser@sick_scan_xd@@@8 	 DATA
	??_R0?AVSickScanCommon@sick_scan_xd@@@8 	 DATA
	??_R0?AVSickScanCommonTcp@sick_scan_xd@@@8 	 DATA
	??_R0?AVSickScanMarker@sick_scan_xd@@@8 	 DATA
	??_R0?AVSickScanMessages@sick_scan_xd@@@8 	 DATA
	??_R0?AVSickScanServices@sick_scan_xd@@@8 	 DATA
	??_R0?AVThreadWrapperBase@@@8 	 DATA
	??_R0?AVTiXmlAttribute@@@8 	 DATA
	??_R0?AVTiXmlBase@@@8 	 DATA
	??_R0?AVTiXmlComment@@@8 	 DATA
	??_R0?AVTiXmlDeclaration@@@8 	 DATA
	??_R0?AVTiXmlDocument@@@8 	 DATA
	??_R0?AVTiXmlElement@@@8 	 DATA
	??_R0?AVTiXmlNode@@@8 	 DATA
	??_R0?AVTiXmlText@@@8 	 DATA
	??_R0?AVTiXmlUnknown@@@8 	 DATA
	??_R0?AVTimeNotInitializedException@roswrap@@@8 	 DATA
	??_R0?AV_Ref_count_base@std@@@8 	 DATA
	??_R0?AVbad_alloc@std@@@8 	 DATA
	??_R0?AVbad_array_new_length@std@@@8 	 DATA
	??_R0?AVbad_cast@std@@@8 	 DATA
	??_R0?AVexception@std@@@8 	 DATA
	??_R0?AVios_base@std@@@8 	 DATA
	??_R0?AVlogic_error@std@@@8 	 DATA
	??_R0?AVout_of_range@std@@@8 	 DATA
	??_R0?AVruntime_error@std@@@8 	 DATA
	??_R0?AVsp_counted_base@detail@boost@@@8 	 DATA
	??_R0P6A?AV?$shared_ptr@U?$ColaMsgSrvRequest_@V?$allocator@X@std@@@sick_scan_xd@@@std@@XZ@8 	 DATA
	??_R0P6A?AV?$shared_ptr@U?$ColaMsgSrvResponse_@V?$allocator@X@std@@@sick_scan_xd@@@std@@XZ@8 	 DATA
	??_R0P6A?AV?$shared_ptr@U?$ECRChangeArrSrvRequest_@V?$allocator@X@std@@@sick_scan_xd@@@std@@XZ@8 	 DATA
	??_R0P6A?AV?$shared_ptr@U?$ECRChangeArrSrvResponse_@V?$allocator@X@std@@@sick_scan_xd@@@std@@XZ@8 	 DATA
	??_R0P6A?AV?$shared_ptr@U?$GetContaminationResultSrvRequest_@V?$allocator@X@std@@@sick_scan_xd@@@std@@XZ@8 	 DATA
	??_R0P6A?AV?$shared_ptr@U?$GetContaminationResultSrvResponse_@V?$allocator@X@std@@@sick_scan_xd@@@std@@XZ@8 	 DATA
	??_R0P6A?AV?$shared_ptr@U?$LIDoutputstateSrvRequest_@V?$allocator@X@std@@@sick_scan_xd@@@std@@XZ@8 	 DATA
	??_R0P6A?AV?$shared_ptr@U?$LIDoutputstateSrvResponse_@V?$allocator@X@std@@@sick_scan_xd@@@std@@XZ@8 	 DATA
	??_R0P6A?AV?$shared_ptr@U?$SCdevicestateSrvRequest_@V?$allocator@X@std@@@sick_scan_xd@@@std@@XZ@8 	 DATA
	??_R0P6A?AV?$shared_ptr@U?$SCdevicestateSrvResponse_@V?$allocator@X@std@@@sick_scan_xd@@@std@@XZ@8 	 DATA
	??_R0P6A?AV?$shared_ptr@U?$SCrebootSrvRequest_@V?$allocator@X@std@@@sick_scan_xd@@@std@@XZ@8 	 DATA
	??_R0P6A?AV?$shared_ptr@U?$SCrebootSrvResponse_@V?$allocator@X@std@@@sick_scan_xd@@@std@@XZ@8 	 DATA
	??_R0P6A?AV?$shared_ptr@U?$SCsoftresetSrvRequest_@V?$allocator@X@std@@@sick_scan_xd@@@std@@XZ@8 	 DATA
	??_R0P6A?AV?$shared_ptr@U?$SCsoftresetSrvResponse_@V?$allocator@X@std@@@sick_scan_xd@@@std@@XZ@8 	 DATA
	??_R0P6A?AV?$shared_ptr@U?$SickScanExitSrvRequest_@V?$allocator@X@std@@@sick_scan_xd@@@std@@XZ@8 	 DATA
	??_R0P6A?AV?$shared_ptr@U?$SickScanExitSrvResponse_@V?$allocator@X@std@@@sick_scan_xd@@@std@@XZ@8 	 DATA
	??_R0PEAV?$basic_string@DU?$char_traits@D@std@@V?$allocator@D@2@@std@@@8 	 DATA
	??_R0PEAX@8 	 DATA
	?DURATION_MAX@roswrap@@3VDuration@1@B 	 DATA
	?DURATION_MIN@roswrap@@3VDuration@1@B 	 DATA
	?TIME_MAX@roswrap@@3VTime@1@B 	 DATA
	?TIME_MIN@roswrap@@3VTime@1@B 	 DATA
	?_OptionsStorage@?1??__local_stdio_printf_options@@9@4_KA 	 DATA
	?_OptionsStorage@?1??__local_stdio_scanf_options@@9@4_KA 	 DATA
	?_Psave@?$_Facetptr@V?$codecvt@DDU_Mbstatet@@@std@@@std@@2PEBVfacet@locale@2@EB 	 DATA
	?_Psave@?$_Facetptr@V?$time_put@DV?$ostreambuf_iterator@DU?$char_traits@D@std@@@std@@@std@@@std@@2PEBVfacet@locale@2@EB 	 DATA
	?_Stinit@?1??_Init@?$basic_filebuf@DU?$char_traits@D@std@@@std@@IEAAXPEAU_iobuf@@W4_Initfl@23@@Z@4U_Mbstatet@@A 	 DATA
	?__rosconsole_define_location__loc@?6???$init@U?$ColaMsgSrvRequest_@V?$allocator@X@std@@@sick_scan_xd@@U?$ColaMsgSrvResponse_@V?$allocator@X@std@@@2@@AdvertiseServiceOptions@roswrap@@QEAAXAEBV?$basic_string@DU?$char_traits@D@std@@V?$allocator@D@2@@std@@AEBV?$function@$$A6A_NAEAU?$ColaMsgSrvRequest_@V?$allocator@X@std@@@sick_scan_xd@@AEAU?$ColaMsgSrvResponse_@V?$allocator@X@std@@@2@@Z@4@@Z@4ULogLocation@console@2@A 	 DATA
	?__rosconsole_define_location__loc@?6???$init@U?$ECRChangeArrSrvRequest_@V?$allocator@X@std@@@sick_scan_xd@@U?$ECRChangeArrSrvResponse_@V?$allocator@X@std@@@2@@AdvertiseServiceOptions@roswrap@@QEAAXAEBV?$basic_string@DU?$char_traits@D@std@@V?$allocator@D@2@@std@@AEBV?$function@$$A6A_NAEAU?$ECRChangeArrSrvRequest_@V?$allocator@X@std@@@sick_scan_xd@@AEAU?$ECRChangeArrSrvResponse_@V?$allocator@X@std@@@2@@Z@4@@Z@4ULogLocation@console@2@A 	 DATA
	?__rosconsole_define_location__loc@?6???$init@U?$GetContaminationResultSrvRequest_@V?$allocator@X@std@@@sick_scan_xd@@U?$GetContaminationResultSrvResponse_@V?$allocator@X@std@@@2@@AdvertiseServiceOptions@roswrap@@QEAAXAEBV?$basic_string@DU?$char_traits@D@std@@V?$allocator@D@2@@std@@AEBV?$function@$$A6A_NAEAU?$GetContaminationResultSrvRequest_@V?$allocator@X@std@@@sick_scan_xd@@AEAU?$GetContaminationResultSrvResponse_@V?$allocator@X@std@@@2@@Z@4@@Z@4ULogLocation@console@2@A 	 DATA
	?__rosconsole_define_location__loc@?6???$init@U?$LIDoutputstateSrvRequest_@V?$allocator@X@std@@@sick_scan_xd@@U?$LIDoutputstateSrvResponse_@V?$allocator@X@std@@@2@@AdvertiseServiceOptions@roswrap@@QEAAXAEBV?$basic_string@DU?$char_traits@D@std@@V?$allocator@D@2@@std@@AEBV?$function@$$A6A_NAEAU?$LIDoutputstateSrvRequest_@V?$allocator@X@std@@@sick_scan_xd@@AEAU?$LIDoutputstateSrvResponse_@V?$allocator@X@std@@@2@@Z@4@@Z@4ULogLocation@console@2@A 	 DATA
	?__rosconsole_define_location__loc@?6???$init@U?$SCdevicestateSrvRequest_@V?$allocator@X@std@@@sick_scan_xd@@U?$SCdevicestateSrvResponse_@V?$allocator@X@std@@@2@@AdvertiseServiceOptions@roswrap@@QEAAXAEBV?$basic_string@DU?$char_traits@D@std@@V?$allocator@D@2@@std@@AEBV?$function@$$A6A_NAEAU?$SCdevicestateSrvRequest_@V?$allocator@X@std@@@sick_scan_xd@@AEAU?$SCdevicestateSrvResponse_@V?$allocator@X@std@@@2@@Z@4@@Z@4ULogLocation@console@2@A 	 DATA
	?__rosconsole_define_location__loc@?6???$init@U?$SCrebootSrvRequest_@V?$allocator@X@std@@@sick_scan_xd@@U?$SCrebootSrvResponse_@V?$allocator@X@std@@@2@@AdvertiseServiceOptions@roswrap@@QEAAXAEBV?$basic_string@DU?$char_traits@D@std@@V?$allocator@D@2@@std@@AEBV?$function@$$A6A_NAEAU?$SCrebootSrvRequest_@V?$allocator@X@std@@@sick_scan_xd@@AEAU?$SCrebootSrvResponse_@V?$allocator@X@std@@@2@@Z@4@@Z@4ULogLocation@console@2@A 	 DATA
	?__rosconsole_define_location__loc@?6???$init@U?$SCsoftresetSrvRequest_@V?$allocator@X@std@@@sick_scan_xd@@U?$SCsoftresetSrvResponse_@V?$allocator@X@std@@@2@@AdvertiseServiceOptions@roswrap@@QEAAXAEBV?$basic_string@DU?$char_traits@D@std@@V?$allocator@D@2@@std@@AEBV?$function@$$A6A_NAEAU?$SCsoftresetSrvRequest_@V?$allocator@X@std@@@sick_scan_xd@@AEAU?$SCsoftresetSrvResponse_@V?$allocator@X@std@@@2@@Z@4@@Z@4ULogLocation@console@2@A 	 DATA
	?__rosconsole_define_location__loc@?6???$init@U?$SickScanExitSrvRequest_@V?$allocator@X@std@@@sick_scan_xd@@U?$SickScanExitSrvResponse_@V?$allocator@X@std@@@2@@AdvertiseServiceOptions@roswrap@@QEAAXAEBV?$basic_string@DU?$char_traits@D@std@@V?$allocator@D@2@@std@@AEBV?$function@$$A6A_NAEAU?$SickScanExitSrvRequest_@V?$allocator@X@std@@@sick_scan_xd@@AEAU?$SickScanExitSrvResponse_@V?$allocator@X@std@@@2@@Z@4@@Z@4ULogLocation@console@2@A 	 DATA
	?__rosconsole_define_location__loc@?8??print@NAV350LandmarkDataDoMappingResponse@sick_scan_xd@@QEAAXXZ@4ULogLocation@console@roswrap@@A 	 DATA
	?__rosconsole_define_location__loc@?8??thread_entry@?$SickThread@VTcp@@$1?readThreadFunction@1@AEAAXAEA_NAEAG@Z@@EEAAXXZ@4ULogLocation@console@roswrap@@A 	 DATA
	?__rosconsole_define_location__loc@?BC@???$applyTransform@M@SickCloudTransform@sick_scan_xd@@QEAAXAEAM00@Z@4ULogLocation@console@roswrap@@A 	 DATA
	?__rosconsole_define_location__loc@?BC@???$applyTransform@N@SickCloudTransform@sick_scan_xd@@QEAAXAEAN00@Z@4ULogLocation@console@roswrap@@A 	 DATA
	?__rosconsole_define_location__loc@?BE@???$init@U?$ColaMsgSrvRequest_@V?$allocator@X@std@@@sick_scan_xd@@U?$ColaMsgSrvResponse_@V?$allocator@X@std@@@2@@AdvertiseServiceOptions@roswrap@@QEAAXAEBV?$basic_string@DU?$char_traits@D@std@@V?$allocator@D@2@@std@@AEBV?$function@$$A6A_NAEAU?$ColaMsgSrvRequest_@V?$allocator@X@std@@@sick_scan_xd@@AEAU?$ColaMsgSrvResponse_@V?$allocator@X@std@@@2@@Z@4@@Z@4ULogLocation@console@2@A 	 DATA
	?__rosconsole_define_location__loc@?BE@???$init@U?$ECRChangeArrSrvRequest_@V?$allocator@X@std@@@sick_scan_xd@@U?$ECRChangeArrSrvResponse_@V?$allocator@X@std@@@2@@AdvertiseServiceOptions@roswrap@@QEAAXAEBV?$basic_string@DU?$char_traits@D@std@@V?$allocator@D@2@@std@@AEBV?$function@$$A6A_NAEAU?$ECRChangeArrSrvRequest_@V?$allocator@X@std@@@sick_scan_xd@@AEAU?$ECRChangeArrSrvResponse_@V?$allocator@X@std@@@2@@Z@4@@Z@4ULogLocation@console@2@A 	 DATA
	?__rosconsole_define_location__loc@?BE@???$init@U?$GetContaminationResultSrvRequest_@V?$allocator@X@std@@@sick_scan_xd@@U?$GetContaminationResultSrvResponse_@V?$allocator@X@std@@@2@@AdvertiseServiceOptions@roswrap@@QEAAXAEBV?$basic_string@DU?$char_traits@D@std@@V?$allocator@D@2@@std@@AEBV?$function@$$A6A_NAEAU?$GetContaminationResultSrvRequest_@V?$allocator@X@std@@@sick_scan_xd@@AEAU?$GetContaminationResultSrvResponse_@V?$allocator@X@std@@@2@@Z@4@@Z@4ULogLocation@console@2@A 	 DATA
	?__rosconsole_define_location__loc@?BE@???$init@U?$LIDoutputstateSrvRequest_@V?$allocator@X@std@@@sick_scan_xd@@U?$LIDoutputstateSrvResponse_@V?$allocator@X@std@@@2@@AdvertiseServiceOptions@roswrap@@QEAAXAEBV?$basic_string@DU?$char_traits@D@std@@V?$allocator@D@2@@std@@AEBV?$function@$$A6A_NAEAU?$LIDoutputstateSrvRequest_@V?$allocator@X@std@@@sick_scan_xd@@AEAU?$LIDoutputstateSrvResponse_@V?$allocator@X@std@@@2@@Z@4@@Z@4ULogLocation@console@2@A 	 DATA
	?__rosconsole_define_location__loc@?BE@???$init@U?$SCdevicestateSrvRequest_@V?$allocator@X@std@@@sick_scan_xd@@U?$SCdevicestateSrvResponse_@V?$allocator@X@std@@@2@@AdvertiseServiceOptions@roswrap@@QEAAXAEBV?$basic_string@DU?$char_traits@D@std@@V?$allocator@D@2@@std@@AEBV?$function@$$A6A_NAEAU?$SCdevicestateSrvRequest_@V?$allocator@X@std@@@sick_scan_xd@@AEAU?$SCdevicestateSrvResponse_@V?$allocator@X@std@@@2@@Z@4@@Z@4ULogLocation@console@2@A 	 DATA
	?__rosconsole_define_location__loc@?BE@???$init@U?$SCrebootSrvRequest_@V?$allocator@X@std@@@sick_scan_xd@@U?$SCrebootSrvResponse_@V?$allocator@X@std@@@2@@AdvertiseServiceOptions@roswrap@@QEAAXAEBV?$basic_string@DU?$char_traits@D@std@@V?$allocator@D@2@@std@@AEBV?$function@$$A6A_NAEAU?$SCrebootSrvRequest_@V?$allocator@X@std@@@sick_scan_xd@@AEAU?$SCrebootSrvResponse_@V?$allocator@X@std@@@2@@Z@4@@Z@4ULogLocation@console@2@A 	 DATA
	?__rosconsole_define_location__loc@?BE@???$init@U?$SCsoftresetSrvRequest_@V?$allocator@X@std@@@sick_scan_xd@@U?$SCsoftresetSrvResponse_@V?$allocator@X@std@@@2@@AdvertiseServiceOptions@roswrap@@QEAAXAEBV?$basic_string@DU?$char_traits@D@std@@V?$allocator@D@2@@std@@AEBV?$function@$$A6A_NAEAU?$SCsoftresetSrvRequest_@V?$allocator@X@std@@@sick_scan_xd@@AEAU?$SCsoftresetSrvResponse_@V?$allocator@X@std@@@2@@Z@4@@Z@4ULogLocation@console@2@A 	 DATA
	?__rosconsole_define_location__loc@?BE@???$init@U?$SickScanExitSrvRequest_@V?$allocator@X@std@@@sick_scan_xd@@U?$SickScanExitSrvResponse_@V?$allocator@X@std@@@2@@AdvertiseServiceOptions@roswrap@@QEAAXAEBV?$basic_string@DU?$char_traits@D@std@@V?$allocator@D@2@@std@@AEBV?$function@$$A6A_NAEAU?$SickScanExitSrvRequest_@V?$allocator@X@std@@@sick_scan_xd@@AEAU?$SickScanExitSrvResponse_@V?$allocator@X@std@@@2@@Z@4@@Z@4ULogLocation@console@2@A 	 DATA
	?__rosconsole_define_location__loc@?BE@??Receive@UdpReceiverSocketImpl@sick_scansegment_xd@@QEAA_KAEAV?$vector@EV?$allocator@E@std@@@std@@NAEBV45@@Z@4ULogLocation@console@roswrap@@A 	 DATA
	?__rosconsole_define_location__loc@?BF@??Send@UdpSenderSocketImpl@sick_scansegment_xd@@QEAA_NAEAV?$vector@EV?$allocator@E@std@@@std@@@Z@4ULogLocation@console@roswrap@@A 	 DATA
	?__rosconsole_define_location__loc@?BH@???$publish@U?$Imu_@V?$allocator@X@std@@@sensor_msgs@@@Publisher@roswrap@@QEBAXAEBU?$Imu_@V?$allocator@X@std@@@sensor_msgs@@@Z@4ULogLocation@console@2@A 	 DATA
	?__rosconsole_define_location__loc@?BH@???$publish@U?$LFErecMsg_@V?$allocator@X@std@@@sick_scan_xd@@@Publisher@roswrap@@QEBAXAEBU?$LFErecMsg_@V?$allocator@X@std@@@sick_scan_xd@@@Z@4ULogLocation@console@2@A 	 DATA
	?__rosconsole_define_location__loc@?BH@???$publish@U?$LIDinputstateMsg_@V?$allocator@X@std@@@sick_scan_xd@@@Publisher@roswrap@@QEBAXAEBU?$LIDinputstateMsg_@V?$allocator@X@std@@@sick_scan_xd@@@Z@4ULogLocation@console@2@A 	 DATA
	?__rosconsole_define_location__loc@?BH@???$publish@U?$LIDoutputstateMsg_@V?$allocator@X@std@@@sick_scan_xd@@@Publisher@roswrap@@QEBAXAEBU?$LIDoutputstateMsg_@V?$allocator@X@std@@@sick_scan_xd@@@Z@4ULogLocation@console@2@A 	 DATA
	?__rosconsole_define_location__loc@?BH@???$publish@U?$MarkerArray_@V?$allocator@X@std@@@visualization_msgs@@@Publisher@roswrap@@QEBAXAEBU?$MarkerArray_@V?$allocator@X@std@@@visualization_msgs@@@Z@4ULogLocation@console@2@A 	 DATA
	?__rosconsole_define_location__loc@?BH@???$publish@U?$NAVLandmarkData_@V?$allocator@X@std@@@sick_scan_xd@@@Publisher@roswrap@@QEBAXAEBU?$NAVLandmarkData_@V?$allocator@X@std@@@sick_scan_xd@@@Z@4ULogLocation@console@2@A 	 DATA
	?__rosconsole_define_location__loc@?BH@???$publish@U?$NAVPoseData_@V?$allocator@X@std@@@sick_scan_xd@@@Publisher@roswrap@@QEBAXAEBU?$NAVPoseData_@V?$allocator@X@std@@@sick_scan_xd@@@Z@4ULogLocation@console@2@A 	 DATA
	?__rosconsole_define_location__loc@?BH@???$publish@U?$RadarScan_@V?$allocator@X@std@@@sick_scan_xd@@@Publisher@roswrap@@QEBAXAEBU?$RadarScan_@V?$allocator@X@std@@@sick_scan_xd@@@Z@4ULogLocation@console@2@A 	 DATA
	?__rosconsole_define_location__loc@?BH@???$publish@U?$String_@V?$allocator@X@std@@@std_msgs@@@Publisher@roswrap@@QEBAXAEBU?$String_@V?$allocator@X@std@@@std_msgs@@@Z@4ULogLocation@console@2@A 	 DATA
	?__rosconsole_define_location__loc@?BM@??print@NAV350LandmarkDataDoMappingResponse@sick_scan_xd@@QEAAXXZ@4ULogLocation@console@roswrap@@A 	 DATA
	?__rosconsole_define_location__loc@?BN@??thread_entry@?$SickThread@VTcp@@$1?readThreadFunction@1@AEAAXAEA_NAEAG@Z@@EEAAXXZ@4ULogLocation@console@roswrap@@A 	 DATA
	?__rosconsole_define_location__loc@?CB@??findFirstByKeyword@?$Queue@VDatagramWithTimeStamp@sick_scan_xd@@@@IEAA_NAEBV?$vector@V?$basic_string@DU?$char_traits@D@std@@V?$allocator@D@2@@std@@V?$allocator@V?$basic_string@DU?$char_traits@D@std@@V?$allocator@D@2@@std@@@2@@std@@AEAV?$_List_iterator@V?$_List_val@U?$_List_simple_types@VDatagramWithTimeStamp@sick_scan_xd@@@std@@@std@@@4@@Z@4ULogLocation@console@roswrap@@A 	 DATA
	?__rosconsole_define_location__loc@?CC@???$publish@U?$Imu_@V?$allocator@X@std@@@sensor_msgs@@@Publisher@roswrap@@QEBAXAEBU?$Imu_@V?$allocator@X@std@@@sensor_msgs@@@Z@4ULogLocation@console@2@A 	 DATA
	?__rosconsole_define_location__loc@?CC@???$publish@U?$LFErecMsg_@V?$allocator@X@std@@@sick_scan_xd@@@Publisher@roswrap@@QEBAXAEBU?$LFErecMsg_@V?$allocator@X@std@@@sick_scan_xd@@@Z@4ULogLocation@console@2@A 	 DATA
	?__rosconsole_define_location__loc@?CC@???$publish@U?$LIDinputstateMsg_@V?$allocator@X@std@@@sick_scan_xd@@@Publisher@roswrap@@QEBAXAEBU?$LIDinputstateMsg_@V?$allocator@X@std@@@sick_scan_xd@@@Z@4ULogLocation@console@2@A 	 DATA
	?__rosconsole_define_location__loc@?CC@???$publish@U?$LIDoutputstateMsg_@V?$allocator@X@std@@@sick_scan_xd@@@Publisher@roswrap@@QEBAXAEBU?$LIDoutputstateMsg_@V?$allocator@X@std@@@sick_scan_xd@@@Z@4ULogLocation@console@2@A 	 DATA
	?__rosconsole_define_location__loc@?CC@???$publish@U?$MarkerArray_@V?$allocator@X@std@@@visualization_msgs@@@Publisher@roswrap@@QEBAXAEBU?$MarkerArray_@V?$allocator@X@std@@@visualization_msgs@@@Z@4ULogLocation@console@2@A 	 DATA
	?__rosconsole_define_location__loc@?CC@???$publish@U?$NAVLandmarkData_@V?$allocator@X@std@@@sick_scan_xd@@@Publisher@roswrap@@QEBAXAEBU?$NAVLandmarkData_@V?$allocator@X@std@@@sick_scan_xd@@@Z@4ULogLocation@console@2@A 	 DATA
	?__rosconsole_define_location__loc@?CC@???$publish@U?$NAVPoseData_@V?$allocator@X@std@@@sick_scan_xd@@@Publisher@roswrap@@QEBAXAEBU?$NAVPoseData_@V?$allocator@X@std@@@sick_scan_xd@@@Z@4ULogLocation@console@2@A 	 DATA
	?__rosconsole_define_location__loc@?CC@???$publish@U?$RadarScan_@V?$allocator@X@std@@@sick_scan_xd@@@Publisher@roswrap@@QEBAXAEBU?$RadarScan_@V?$allocator@X@std@@@sick_scan_xd@@@Z@4ULogLocation@console@2@A 	 DATA
	?__rosconsole_define_location__loc@?CC@???$publish@U?$String_@V?$allocator@X@std@@@std_msgs@@@Publisher@roswrap@@QEBAXAEBU?$String_@V?$allocator@X@std@@@std_msgs@@@Z@4ULogLocation@console@2@A 	 DATA
	?__rosconsole_define_location__loc@?CC@??Init@UdpReceiverSocketImpl@sick_scansegment_xd@@QEAA_NAEBV?$basic_string@DU?$char_traits@D@std@@V?$allocator@D@2@@std@@H_N@Z@4ULogLocation@console@roswrap@@A 	 DATA
	?__rosconsole_define_location__loc@?CE@???0UdpSenderSocketImpl@sick_scansegment_xd@@QEAA@AEBV?$basic_string@DU?$char_traits@D@std@@V?$allocator@D@2@@std@@H@Z@4ULogLocation@console@roswrap@@A 	 DATA
	?__rosconsole_define_location__loc@?CI@??Send@UdpSenderSocketImpl@sick_scansegment_xd@@QEAA_NAEAV?$vector@EV?$allocator@E@std@@@std@@@Z@4ULogLocation@console@roswrap@@A 	 DATA
	?__rosconsole_define_location__loc@?DF@???$publish@U?$Imu_@V?$allocator@X@std@@@sensor_msgs@@@Publisher@roswrap@@QEBAXAEBU?$Imu_@V?$allocator@X@std@@@sensor_msgs@@@Z@4ULogLocation@console@2@A 	 DATA
	?__rosconsole_define_location__loc@?DF@???$publish@U?$LFErecMsg_@V?$allocator@X@std@@@sick_scan_xd@@@Publisher@roswrap@@QEBAXAEBU?$LFErecMsg_@V?$allocator@X@std@@@sick_scan_xd@@@Z@4ULogLocation@console@2@A 	 DATA
	?__rosconsole_define_location__loc@?DF@???$publish@U?$LIDinputstateMsg_@V?$allocator@X@std@@@sick_scan_xd@@@Publisher@roswrap@@QEBAXAEBU?$LIDinputstateMsg_@V?$allocator@X@std@@@sick_scan_xd@@@Z@4ULogLocation@console@2@A 	 DATA
	?__rosconsole_define_location__loc@?DF@???$publish@U?$LIDoutputstateMsg_@V?$allocator@X@std@@@sick_scan_xd@@@Publisher@roswrap@@QEBAXAEBU?$LIDoutputstateMsg_@V?$allocator@X@std@@@sick_scan_xd@@@Z@4ULogLocation@console@2@A 	 DATA
	?__rosconsole_define_location__loc@?DF@???$publish@U?$MarkerArray_@V?$allocator@X@std@@@visualization_msgs@@@Publisher@roswrap@@QEBAXAEBU?$MarkerArray_@V?$allocator@X@std@@@visualization_msgs@@@Z@4ULogLocation@console@2@A 	 DATA
	?__rosconsole_define_location__loc@?DF@???$publish@U?$NAVLandmarkData_@V?$allocator@X@std@@@sick_scan_xd@@@Publisher@roswrap@@QEBAXAEBU?$NAVLandmarkData_@V?$allocator@X@std@@@sick_scan_xd@@@Z@4ULogLocation@console@2@A 	 DATA
	?__rosconsole_define_location__loc@?DF@???$publish@U?$NAVPoseData_@V?$allocator@X@std@@@sick_scan_xd@@@Publisher@roswrap@@QEBAXAEBU?$NAVPoseData_@V?$allocator@X@std@@@sick_scan_xd@@@Z@4ULogLocation@console@2@A 	 DATA
	?__rosconsole_define_location__loc@?DF@???$publish@U?$RadarScan_@V?$allocator@X@std@@@sick_scan_xd@@@Publisher@roswrap@@QEBAXAEBU?$RadarScan_@V?$allocator@X@std@@@sick_scan_xd@@@Z@4ULogLocation@console@2@A 	 DATA
	?__rosconsole_define_location__loc@?DF@???$publish@U?$String_@V?$allocator@X@std@@@std_msgs@@@Publisher@roswrap@@QEBAXAEBU?$String_@V?$allocator@X@std@@@std_msgs@@@Z@4ULogLocation@console@2@A 	 DATA
	?__rosconsole_define_location__loc@?DH@???0UdpSenderSocketImpl@sick_scansegment_xd@@QEAA@AEBV?$basic_string@DU?$char_traits@D@std@@V?$allocator@D@2@@std@@H@Z@4ULogLocation@console@roswrap@@A 	 DATA
	?__rosconsole_define_location__loc@?DH@??Init@UdpReceiverSocketImpl@sick_scansegment_xd@@QEAA_NAEBV?$basic_string@DU?$char_traits@D@std@@V?$allocator@D@2@@std@@H_N@Z@4ULogLocation@console@roswrap@@A 	 DATA
	?__rosconsole_define_location__loc@?DM@??Send@UdpSenderSocketImpl@sick_scansegment_xd@@QEAA_NAEAV?$vector@EV?$allocator@E@std@@@std@@@Z@4ULogLocation@console@roswrap@@A 	 DATA
	?__rosconsole_define_location__loc@?EA@???$publish@U?$Imu_@V?$allocator@X@std@@@sensor_msgs@@@Publisher@roswrap@@QEBAXAEBU?$Imu_@V?$allocator@X@std@@@sensor_msgs@@@Z@4ULogLocation@console@2@A 	 DATA
	?__rosconsole_define_location__loc@?EA@???$publish@U?$LFErecMsg_@V?$allocator@X@std@@@sick_scan_xd@@@Publisher@roswrap@@QEBAXAEBU?$LFErecMsg_@V?$allocator@X@std@@@sick_scan_xd@@@Z@4ULogLocation@console@2@A 	 DATA
	?__rosconsole_define_location__loc@?EA@???$publish@U?$LIDinputstateMsg_@V?$allocator@X@std@@@sick_scan_xd@@@Publisher@roswrap@@QEBAXAEBU?$LIDinputstateMsg_@V?$allocator@X@std@@@sick_scan_xd@@@Z@4ULogLocation@console@2@A 	 DATA
	?__rosconsole_define_location__loc@?EA@???$publish@U?$LIDoutputstateMsg_@V?$allocator@X@std@@@sick_scan_xd@@@Publisher@roswrap@@QEBAXAEBU?$LIDoutputstateMsg_@V?$allocator@X@std@@@sick_scan_xd@@@Z@4ULogLocation@console@2@A 	 DATA
	?__rosconsole_define_location__loc@?EA@???$publish@U?$MarkerArray_@V?$allocator@X@std@@@visualization_msgs@@@Publisher@roswrap@@QEBAXAEBU?$MarkerArray_@V?$allocator@X@std@@@visualization_msgs@@@Z@4ULogLocation@console@2@A 	 DATA
	?__rosconsole_define_location__loc@?EA@???$publish@U?$NAVLandmarkData_@V?$allocator@X@std@@@sick_scan_xd@@@Publisher@roswrap@@QEBAXAEBU?$NAVLandmarkData_@V?$allocator@X@std@@@sick_scan_xd@@@Z@4ULogLocation@console@2@A 	 DATA
	?__rosconsole_define_location__loc@?EA@???$publish@U?$NAVPoseData_@V?$allocator@X@std@@@sick_scan_xd@@@Publisher@roswrap@@QEBAXAEBU?$NAVPoseData_@V?$allocator@X@std@@@sick_scan_xd@@@Z@4ULogLocation@console@2@A 	 DATA
	?__rosconsole_define_location__loc@?EA@???$publish@U?$RadarScan_@V?$allocator@X@std@@@sick_scan_xd@@@Publisher@roswrap@@QEBAXAEBU?$RadarScan_@V?$allocator@X@std@@@sick_scan_xd@@@Z@4ULogLocation@console@2@A 	 DATA
	?__rosconsole_define_location__loc@?EA@???$publish@U?$String_@V?$allocator@X@std@@@std_msgs@@@Publisher@roswrap@@QEBAXAEBU?$String_@V?$allocator@X@std@@@std_msgs@@@Z@4ULogLocation@console@2@A 	 DATA
	?__rosconsole_define_location__loc@?EK@??Init@UdpReceiverSocketImpl@sick_scansegment_xd@@QEAA_NAEBV?$basic_string@DU?$char_traits@D@std@@V?$allocator@D@2@@std@@H_N@Z@4ULogLocation@console@roswrap@@A 	 DATA
	?__rosconsole_define_location__loc@?EL@???$publish@U?$Imu_@V?$allocator@X@std@@@sensor_msgs@@@Publisher@roswrap@@QEBAXAEBU?$Imu_@V?$allocator@X@std@@@sensor_msgs@@@Z@4ULogLocation@console@2@A 	 DATA
	?__rosconsole_define_location__loc@?EL@???$publish@U?$LFErecMsg_@V?$allocator@X@std@@@sick_scan_xd@@@Publisher@roswrap@@QEBAXAEBU?$LFErecMsg_@V?$allocator@X@std@@@sick_scan_xd@@@Z@4ULogLocation@console@2@A 	 DATA
	?__rosconsole_define_location__loc@?EL@???$publish@U?$LIDinputstateMsg_@V?$allocator@X@std@@@sick_scan_xd@@@Publisher@roswrap@@QEBAXAEBU?$LIDinputstateMsg_@V?$allocator@X@std@@@sick_scan_xd@@@Z@4ULogLocation@console@2@A 	 DATA
	?__rosconsole_define_location__loc@?EL@???$publish@U?$LIDoutputstateMsg_@V?$allocator@X@std@@@sick_scan_xd@@@Publisher@roswrap@@QEBAXAEBU?$LIDoutputstateMsg_@V?$allocator@X@std@@@sick_scan_xd@@@Z@4ULogLocation@console@2@A 	 DATA
	?__rosconsole_define_location__loc@?EL@???$publish@U?$MarkerArray_@V?$allocator@X@std@@@visualization_msgs@@@Publisher@roswrap@@QEBAXAEBU?$MarkerArray_@V?$allocator@X@std@@@visualization_msgs@@@Z@4ULogLocation@console@2@A 	 DATA
	?__rosconsole_define_location__loc@?EL@???$publish@U?$NAVLandmarkData_@V?$allocator@X@std@@@sick_scan_xd@@@Publisher@roswrap@@QEBAXAEBU?$NAVLandmarkData_@V?$allocator@X@std@@@sick_scan_xd@@@Z@4ULogLocation@console@2@A 	 DATA
	?__rosconsole_define_location__loc@?EL@???$publish@U?$NAVPoseData_@V?$allocator@X@std@@@sick_scan_xd@@@Publisher@roswrap@@QEBAXAEBU?$NAVPoseData_@V?$allocator@X@std@@@sick_scan_xd@@@Z@4ULogLocation@console@2@A 	 DATA
	?__rosconsole_define_location__loc@?EL@???$publish@U?$RadarScan_@V?$allocator@X@std@@@sick_scan_xd@@@Publisher@roswrap@@QEBAXAEBU?$RadarScan_@V?$allocator@X@std@@@sick_scan_xd@@@Z@4ULogLocation@console@2@A 	 DATA
	?__rosconsole_define_location__loc@?EL@???$publish@U?$String_@V?$allocator@X@std@@@std_msgs@@@Publisher@roswrap@@QEBAXAEBU?$String_@V?$allocator@X@std@@@std_msgs@@@Z@4ULogLocation@console@2@A 	 DATA
	?__rosconsole_define_location__loc@?FL@???$publish@U?$Imu_@V?$allocator@X@std@@@sensor_msgs@@@Publisher@roswrap@@QEBAXAEBU?$Imu_@V?$allocator@X@std@@@sensor_msgs@@@Z@4ULogLocation@console@2@A 	 DATA
	?__rosconsole_define_location__loc@?FL@???$publish@U?$LFErecMsg_@V?$allocator@X@std@@@sick_scan_xd@@@Publisher@roswrap@@QEBAXAEBU?$LFErecMsg_@V?$allocator@X@std@@@sick_scan_xd@@@Z@4ULogLocation@console@2@A 	 DATA
	?__rosconsole_define_location__loc@?FL@???$publish@U?$LIDinputstateMsg_@V?$allocator@X@std@@@sick_scan_xd@@@Publisher@roswrap@@QEBAXAEBU?$LIDinputstateMsg_@V?$allocator@X@std@@@sick_scan_xd@@@Z@4ULogLocation@console@2@A 	 DATA
	?__rosconsole_define_location__loc@?FL@???$publish@U?$LIDoutputstateMsg_@V?$allocator@X@std@@@sick_scan_xd@@@Publisher@roswrap@@QEBAXAEBU?$LIDoutputstateMsg_@V?$allocator@X@std@@@sick_scan_xd@@@Z@4ULogLocation@console@2@A 	 DATA
	?__rosconsole_define_location__loc@?FL@???$publish@U?$MarkerArray_@V?$allocator@X@std@@@visualization_msgs@@@Publisher@roswrap@@QEBAXAEBU?$MarkerArray_@V?$allocator@X@std@@@visualization_msgs@@@Z@4ULogLocation@console@2@A 	 DATA
	?__rosconsole_define_location__loc@?FL@???$publish@U?$NAVLandmarkData_@V?$allocator@X@std@@@sick_scan_xd@@@Publisher@roswrap@@QEBAXAEBU?$NAVLandmarkData_@V?$allocator@X@std@@@sick_scan_xd@@@Z@4ULogLocation@console@2@A 	 DATA
	?__rosconsole_define_location__loc@?FL@???$publish@U?$NAVPoseData_@V?$allocator@X@std@@@sick_scan_xd@@@Publisher@roswrap@@QEBAXAEBU?$NAVPoseData_@V?$allocator@X@std@@@sick_scan_xd@@@Z@4ULogLocation@console@2@A 	 DATA
	?__rosconsole_define_location__loc@?FL@???$publish@U?$RadarScan_@V?$allocator@X@std@@@sick_scan_xd@@@Publisher@roswrap@@QEBAXAEBU?$RadarScan_@V?$allocator@X@std@@@sick_scan_xd@@@Z@4ULogLocation@console@2@A 	 DATA
	?__rosconsole_define_location__loc@?FL@???$publish@U?$String_@V?$allocator@X@std@@@std_msgs@@@Publisher@roswrap@@QEBAXAEBU?$String_@V?$allocator@X@std@@@std_msgs@@@Z@4ULogLocation@console@2@A 	 DATA
	?__rosconsole_define_location__loc@?GG@???$publish@U?$Imu_@V?$allocator@X@std@@@sensor_msgs@@@Publisher@roswrap@@QEBAXAEBU?$Imu_@V?$allocator@X@std@@@sensor_msgs@@@Z@4ULogLocation@console@2@A 	 DATA
	?__rosconsole_define_location__loc@?GG@???$publish@U?$LFErecMsg_@V?$allocator@X@std@@@sick_scan_xd@@@Publisher@roswrap@@QEBAXAEBU?$LFErecMsg_@V?$allocator@X@std@@@sick_scan_xd@@@Z@4ULogLocation@console@2@A 	 DATA
	?__rosconsole_define_location__loc@?GG@???$publish@U?$LIDinputstateMsg_@V?$allocator@X@std@@@sick_scan_xd@@@Publisher@roswrap@@QEBAXAEBU?$LIDinputstateMsg_@V?$allocator@X@std@@@sick_scan_xd@@@Z@4ULogLocation@console@2@A 	 DATA
	?__rosconsole_define_location__loc@?GG@???$publish@U?$LIDoutputstateMsg_@V?$allocator@X@std@@@sick_scan_xd@@@Publisher@roswrap@@QEBAXAEBU?$LIDoutputstateMsg_@V?$allocator@X@std@@@sick_scan_xd@@@Z@4ULogLocation@console@2@A 	 DATA
	?__rosconsole_define_location__loc@?GG@???$publish@U?$MarkerArray_@V?$allocator@X@std@@@visualization_msgs@@@Publisher@roswrap@@QEBAXAEBU?$MarkerArray_@V?$allocator@X@std@@@visualization_msgs@@@Z@4ULogLocation@console@2@A 	 DATA
	?__rosconsole_define_location__loc@?GG@???$publish@U?$NAVLandmarkData_@V?$allocator@X@std@@@sick_scan_xd@@@Publisher@roswrap@@QEBAXAEBU?$NAVLandmarkData_@V?$allocator@X@std@@@sick_scan_xd@@@Z@4ULogLocation@console@2@A 	 DATA
	?__rosconsole_define_location__loc@?GG@???$publish@U?$NAVPoseData_@V?$allocator@X@std@@@sick_scan_xd@@@Publisher@roswrap@@QEBAXAEBU?$NAVPoseData_@V?$allocator@X@std@@@sick_scan_xd@@@Z@4ULogLocation@console@2@A 	 DATA
	?__rosconsole_define_location__loc@?GG@???$publish@U?$RadarScan_@V?$allocator@X@std@@@sick_scan_xd@@@Publisher@roswrap@@QEBAXAEBU?$RadarScan_@V?$allocator@X@std@@@sick_scan_xd@@@Z@4ULogLocation@console@2@A 	 DATA
	?__rosconsole_define_location__loc@?GG@???$publish@U?$String_@V?$allocator@X@std@@@std_msgs@@@Publisher@roswrap@@QEBAXAEBU?$String_@V?$allocator@X@std@@@std_msgs@@@Z@4ULogLocation@console@2@A 	 DATA
	?__rosconsole_define_location__loc@?HB@???$publish@U?$Imu_@V?$allocator@X@std@@@sensor_msgs@@@Publisher@roswrap@@QEBAXAEBU?$Imu_@V?$allocator@X@std@@@sensor_msgs@@@Z@4ULogLocation@console@2@A 	 DATA
	?__rosconsole_define_location__loc@?HB@???$publish@U?$LFErecMsg_@V?$allocator@X@std@@@sick_scan_xd@@@Publisher@roswrap@@QEBAXAEBU?$LFErecMsg_@V?$allocator@X@std@@@sick_scan_xd@@@Z@4ULogLocation@console@2@A 	 DATA
	?__rosconsole_define_location__loc@?HB@???$publish@U?$LIDinputstateMsg_@V?$allocator@X@std@@@sick_scan_xd@@@Publisher@roswrap@@QEBAXAEBU?$LIDinputstateMsg_@V?$allocator@X@std@@@sick_scan_xd@@@Z@4ULogLocation@console@2@A 	 DATA
	?__rosconsole_define_location__loc@?HB@???$publish@U?$LIDoutputstateMsg_@V?$allocator@X@std@@@sick_scan_xd@@@Publisher@roswrap@@QEBAXAEBU?$LIDoutputstateMsg_@V?$allocator@X@std@@@sick_scan_xd@@@Z@4ULogLocation@console@2@A 	 DATA
	?__rosconsole_define_location__loc@?HB@???$publish@U?$MarkerArray_@V?$allocator@X@std@@@visualization_msgs@@@Publisher@roswrap@@QEBAXAEBU?$MarkerArray_@V?$allocator@X@std@@@visualization_msgs@@@Z@4ULogLocation@console@2@A 	 DATA
	?__rosconsole_define_location__loc@?HB@???$publish@U?$NAVLandmarkData_@V?$allocator@X@std@@@sick_scan_xd@@@Publisher@roswrap@@QEBAXAEBU?$NAVLandmarkData_@V?$allocator@X@std@@@sick_scan_xd@@@Z@4ULogLocation@console@2@A 	 DATA
	?__rosconsole_define_location__loc@?HB@???$publish@U?$NAVPoseData_@V?$allocator@X@std@@@sick_scan_xd@@@Publisher@roswrap@@QEBAXAEBU?$NAVPoseData_@V?$allocator@X@std@@@sick_scan_xd@@@Z@4ULogLocation@console@2@A 	 DATA
	?__rosconsole_define_location__loc@?HB@???$publish@U?$RadarScan_@V?$allocator@X@std@@@sick_scan_xd@@@Publisher@roswrap@@QEBAXAEBU?$RadarScan_@V?$allocator@X@std@@@sick_scan_xd@@@Z@4ULogLocation@console@2@A 	 DATA
	?__rosconsole_define_location__loc@?HB@???$publish@U?$String_@V?$allocator@X@std@@@std_msgs@@@Publisher@roswrap@@QEBAXAEBU?$String_@V?$allocator@X@std@@@std_msgs@@@Z@4ULogLocation@console@2@A 	 DATA
	?__rosconsole_define_location__loc@?M@???$publish@U?$Imu_@V?$allocator@X@std@@@sensor_msgs@@@Publisher@roswrap@@QEBAXAEBU?$Imu_@V?$allocator@X@std@@@sensor_msgs@@@Z@4ULogLocation@console@2@A 	 DATA
	?__rosconsole_define_location__loc@?M@???$publish@U?$LFErecMsg_@V?$allocator@X@std@@@sick_scan_xd@@@Publisher@roswrap@@QEBAXAEBU?$LFErecMsg_@V?$allocator@X@std@@@sick_scan_xd@@@Z@4ULogLocation@console@2@A 	 DATA
	?__rosconsole_define_location__loc@?M@???$publish@U?$LIDinputstateMsg_@V?$allocator@X@std@@@sick_scan_xd@@@Publisher@roswrap@@QEBAXAEBU?$LIDinputstateMsg_@V?$allocator@X@std@@@sick_scan_xd@@@Z@4ULogLocation@console@2@A 	 DATA
	?__rosconsole_define_location__loc@?M@???$publish@U?$LIDoutputstateMsg_@V?$allocator@X@std@@@sick_scan_xd@@@Publisher@roswrap@@QEBAXAEBU?$LIDoutputstateMsg_@V?$allocator@X@std@@@sick_scan_xd@@@Z@4ULogLocation@console@2@A 	 DATA
	?__rosconsole_define_location__loc@?M@???$publish@U?$MarkerArray_@V?$allocator@X@std@@@visualization_msgs@@@Publisher@roswrap@@QEBAXAEBU?$MarkerArray_@V?$allocator@X@std@@@visualization_msgs@@@Z@4ULogLocation@console@2@A 	 DATA
	?__rosconsole_define_location__loc@?M@???$publish@U?$NAVLandmarkData_@V?$allocator@X@std@@@sick_scan_xd@@@Publisher@roswrap@@QEBAXAEBU?$NAVLandmarkData_@V?$allocator@X@std@@@sick_scan_xd@@@Z@4ULogLocation@console@2@A 	 DATA
	?__rosconsole_define_location__loc@?M@???$publish@U?$NAVPoseData_@V?$allocator@X@std@@@sick_scan_xd@@@Publisher@roswrap@@QEBAXAEBU?$NAVPoseData_@V?$allocator@X@std@@@sick_scan_xd@@@Z@4ULogLocation@console@2@A 	 DATA
	?__rosconsole_define_location__loc@?M@???$publish@U?$RadarScan_@V?$allocator@X@std@@@sick_scan_xd@@@Publisher@roswrap@@QEBAXAEBU?$RadarScan_@V?$allocator@X@std@@@sick_scan_xd@@@Z@4ULogLocation@console@2@A 	 DATA
	?__rosconsole_define_location__loc@?M@???$publish@U?$String_@V?$allocator@X@std@@@std_msgs@@@Publisher@roswrap@@QEBAXAEBU?$String_@V?$allocator@X@std@@@std_msgs@@@Z@4ULogLocation@console@2@A 	 DATA
	?__rosconsole_define_location__loc@?M@???$readBinaryBuffer@E@sick_scan_xd@@YA_NAEAPEAEAEAHAEAE@Z@4ULogLocation@console@roswrap@@A 	 DATA
	?__rosconsole_define_location__loc@?M@???$readBinaryBuffer@G@sick_scan_xd@@YA_NAEAPEAEAEAHAEAG@Z@4ULogLocation@console@roswrap@@A 	 DATA
	?__rosconsole_define_location__loc@?M@???$readBinaryBuffer@H@sick_scan_xd@@YA_NAEAPEAEAEAH1@Z@4ULogLocation@console@roswrap@@A 	 DATA
	?__rosconsole_define_location__loc@?M@???$readBinaryBuffer@I@sick_scan_xd@@YA_NAEAPEAEAEAHAEAI@Z@4ULogLocation@console@roswrap@@A 	 DATA
	?__rosconsole_define_location__loc@?M@???$readBinaryBuffer@M@sick_scan_xd@@YA_NAEAPEAEAEAHAEAM@Z@4ULogLocation@console@roswrap@@A 	 DATA
	?__rosconsole_define_location__loc@?M@??message_callback@?$SickWaitForMessageHandler@PEAVNodeHandle@roswrap@@U?$Imu_@V?$allocator@X@std@@@sensor_msgs@@@sick_scan_xd@@IEAAXPEAVNodeHandle@roswrap@@PEBU?$Imu_@V?$allocator@X@std@@@sensor_msgs@@@Z@4ULogLocation@console@5@A 	 DATA
	?__rosconsole_define_location__loc@?M@??message_callback@?$SickWaitForMessageHandler@PEAVNodeHandle@roswrap@@U?$LFErecMsg_@V?$allocator@X@std@@@sick_scan_xd@@@sick_scan_xd@@IEAAXPEAVNodeHandle@roswrap@@PEBU?$LFErecMsg_@V?$allocator@X@std@@@3@@Z@4ULogLocation@console@5@A 	 DATA
	?__rosconsole_define_location__loc@?M@??message_callback@?$SickWaitForMessageHandler@PEAVNodeHandle@roswrap@@U?$LIDoutputstateMsg_@V?$allocator@X@std@@@sick_scan_xd@@@sick_scan_xd@@IEAAXPEAVNodeHandle@roswrap@@PEBU?$LIDoutputstateMsg_@V?$allocator@X@std@@@3@@Z@4ULogLocation@console@5@A 	 DATA
	?__rosconsole_define_location__loc@?M@??message_callback@?$SickWaitForMessageHandler@PEAVNodeHandle@roswrap@@U?$MarkerArray_@V?$allocator@X@std@@@visualization_msgs@@@sick_scan_xd@@IEAAXPEAVNodeHandle@roswrap@@PEBU?$MarkerArray_@V?$allocator@X@std@@@visualization_msgs@@@Z@4ULogLocation@console@5@A 	 DATA
	?__rosconsole_define_location__loc@?M@??message_callback@?$SickWaitForMessageHandler@PEAVNodeHandle@roswrap@@U?$RadarScan_@V?$allocator@X@std@@@sick_scan_xd@@@sick_scan_xd@@IEAAXPEAVNodeHandle@roswrap@@PEBU?$RadarScan_@V?$allocator@X@std@@@3@@Z@4ULogLocation@console@5@A 	 DATA
	?__rosconsole_define_location__loc@?M@??message_callback@?$SickWaitForMessageHandler@PEAVNodeHandle@roswrap@@U?$SickLdmrsObjectArray_@V?$allocator@X@std@@@sick_scan_xd@@@sick_scan_xd@@IEAAXPEAVNodeHandle@roswrap@@PEBU?$SickLdmrsObjectArray_@V?$allocator@X@std@@@3@@Z@4ULogLocation@console@5@A 	 DATA
	?__rosconsole_define_location__loc@?M@??message_callback@?$SickWaitForMessageHandler@PEAVNodeHandle@roswrap@@UPointCloud2withEcho@sick_scan_xd@@@sick_scan_xd@@IEAAXPEAVNodeHandle@roswrap@@PEBUPointCloud2withEcho@3@@Z@4ULogLocation@console@5@A 	 DATA
	?__rosconsole_define_location__loc@?M@??message_callback@?$SickWaitForMessageHandler@PEAVNodeHandle@roswrap@@VNAV350mNPOSData@sick_scan_xd@@@sick_scan_xd@@IEAAXPEAVNodeHandle@roswrap@@PEBVNAV350mNPOSData@3@@Z@4ULogLocation@console@5@A 	 DATA
	?__rosconsole_define_location__loc@?N@???0UdpSenderSocketImpl@sick_scansegment_xd@@QEAA@AEBV?$basic_string@DU?$char_traits@D@std@@V?$allocator@D@2@@std@@H@Z@4ULogLocation@console@roswrap@@A 	 DATA
	?__rosconsole_define_location__loc@?N@??Init@UdpReceiverSocketImpl@sick_scansegment_xd@@QEAA_NAEBV?$basic_string@DU?$char_traits@D@std@@V?$allocator@D@2@@std@@H_N@Z@4ULogLocation@console@roswrap@@A 	 DATA
	?__rosconsole_define_location__loc@?O@???$rosAdvertise@U?$Encoder_@V?$allocator@X@std@@@sick_scan_xd@@@@YA?AV?$rosPublisher@U?$Encoder_@V?$allocator@X@std@@@sick_scan_xd@@@@PEAVNodeHandle@roswrap@@AEBV?$basic_string@DU?$char_traits@D@std@@V?$allocator@D@2@@std@@IH@Z@4ULogLocation@console@3@A 	 DATA
	?__rosconsole_define_location__loc@?O@???$rosAdvertise@U?$Imu_@V?$allocator@X@std@@@sensor_msgs@@@@YA?AV?$rosPublisher@U?$Imu_@V?$allocator@X@std@@@sensor_msgs@@@@PEAVNodeHandle@roswrap@@AEBV?$basic_string@DU?$char_traits@D@std@@V?$allocator@D@2@@std@@IH@Z@4ULogLocation@console@3@A 	 DATA
	?__rosconsole_define_location__loc@?O@???$rosAdvertise@U?$LFErecMsg_@V?$allocator@X@std@@@sick_scan_xd@@@@YA?AV?$rosPublisher@U?$LFErecMsg_@V?$allocator@X@std@@@sick_scan_xd@@@@PEAVNodeHandle@roswrap@@AEBV?$basic_string@DU?$char_traits@D@std@@V?$allocator@D@2@@std@@IH@Z@4ULogLocation@console@3@A 	 DATA
	?__rosconsole_define_location__loc@?O@???$rosAdvertise@U?$LIDinputstateMsg_@V?$allocator@X@std@@@sick_scan_xd@@@@YA?AV?$rosPublisher@U?$LIDinputstateMsg_@V?$allocator@X@std@@@sick_scan_xd@@@@PEAVNodeHandle@roswrap@@AEBV?$basic_string@DU?$char_traits@D@std@@V?$allocator@D@2@@std@@IH@Z@4ULogLocation@console@3@A 	 DATA
	?__rosconsole_define_location__loc@?O@???$rosAdvertise@U?$LIDoutputstateMsg_@V?$allocator@X@std@@@sick_scan_xd@@@@YA?AV?$rosPublisher@U?$LIDoutputstateMsg_@V?$allocator@X@std@@@sick_scan_xd@@@@PEAVNodeHandle@roswrap@@AEBV?$basic_string@DU?$char_traits@D@std@@V?$allocator@D@2@@std@@IH@Z@4ULogLocation@console@3@A 	 DATA
	?__rosconsole_define_location__loc@?O@???$rosAdvertise@U?$LaserScan_@V?$allocator@X@std@@@sensor_msgs@@@@YA?AV?$rosPublisher@U?$LaserScan_@V?$allocator@X@std@@@sensor_msgs@@@@PEAVNodeHandle@roswrap@@AEBV?$basic_string@DU?$char_traits@D@std@@V?$allocator@D@2@@std@@IH@Z@4ULogLocation@console@3@A 	 DATA
	?__rosconsole_define_location__loc@?O@???$rosAdvertise@U?$MarkerArray_@V?$allocator@X@std@@@visualization_msgs@@@@YA?AV?$rosPublisher@U?$MarkerArray_@V?$allocator@X@std@@@visualization_msgs@@@@PEAVNodeHandle@roswrap@@AEBV?$basic_string@DU?$char_traits@D@std@@V?$allocator@D@2@@std@@IH@Z@4ULogLocation@console@3@A 	 DATA
	?__rosconsole_define_location__loc@?O@???$rosAdvertise@U?$NAVLandmarkData_@V?$allocator@X@std@@@sick_scan_xd@@@@YA?AV?$rosPublisher@U?$NAVLandmarkData_@V?$allocator@X@std@@@sick_scan_xd@@@@PEAVNodeHandle@roswrap@@AEBV?$basic_string@DU?$char_traits@D@std@@V?$allocator@D@2@@std@@IH@Z@4ULogLocation@console@3@A 	 DATA
	?__rosconsole_define_location__loc@?O@???$rosAdvertise@U?$NAVPoseData_@V?$allocator@X@std@@@sick_scan_xd@@@@YA?AV?$rosPublisher@U?$NAVPoseData_@V?$allocator@X@std@@@sick_scan_xd@@@@PEAVNodeHandle@roswrap@@AEBV?$basic_string@DU?$char_traits@D@std@@V?$allocator@D@2@@std@@IH@Z@4ULogLocation@console@3@A 	 DATA
	?__rosconsole_define_location__loc@?O@???$rosAdvertise@U?$PointCloud2_@V?$allocator@X@std@@@sensor_msgs@@@@YA?AV?$rosPublisher@U?$PointCloud2_@V?$allocator@X@std@@@sensor_msgs@@@@PEAVNodeHandle@roswrap@@AEBV?$basic_string@DU?$char_traits@D@std@@V?$allocator@D@2@@std@@IH@Z@4ULogLocation@console@3@A 	 DATA
	?__rosconsole_define_location__loc@?O@???$rosAdvertise@U?$RadarScan_@V?$allocator@X@std@@@sick_scan_xd@@@@YA?AV?$rosPublisher@U?$RadarScan_@V?$allocator@X@std@@@sick_scan_xd@@@@PEAVNodeHandle@roswrap@@AEBV?$basic_string@DU?$char_traits@D@std@@V?$allocator@D@2@@std@@IH@Z@4ULogLocation@console@3@A 	 DATA
	?__rosconsole_define_location__loc@?O@???$rosAdvertise@U?$String_@V?$allocator@X@std@@@std_msgs@@@@YA?AV?$rosPublisher@U?$String_@V?$allocator@X@std@@@std_msgs@@@@PEAVNodeHandle@roswrap@@AEBV?$basic_string@DU?$char_traits@D@std@@V?$allocator@D@2@@std@@IH@Z@4ULogLocation@console@3@A 	 DATA
	?__rosconsole_define_location__loc@?O@???1UdpReceiverSocketImpl@sick_scansegment_xd@@QEAA@XZ@4ULogLocation@console@roswrap@@A 	 DATA
	?__rosconsole_define_location__loc@?O@???1UdpSenderSocketImpl@sick_scansegment_xd@@QEAA@XZ@4ULogLocation@console@roswrap@@A 	 DATA
	?__rosconsole_define_location__loc@?O@??apply@SickRangeFilter@sick_scan_xd@@QEBA_NAEAMAEA_N@Z@4ULogLocation@console@roswrap@@A 	 DATA
	?_instance@?1??instance@DataDumper@@SAAEAV2@XZ@4V2@A 	 DATA
	?_instance@?1??instance@SoftwarePLL@@SAAEAV2@XZ@4V2@A 	 DATA
	?condenseWhiteSpace@TiXmlBase@@0_NA 	 DATA
	?entity@TiXmlBase@@0PAUEntity@1@A 	 DATA
	?errorString@TiXmlBase@@1PAPEBDA 	 DATA
	?exampleData@@3V?$vector@EV?$allocator@E@std@@@std@@A 	 DATA
	?instance@?1??Instance@MapStringSingleton@@SAAEAV2@XZ@4PEAV2@EA 	 DATA
	?instance@SickScanFieldMonSingleton@sick_scan_xd@@0PEAV12@EA 	 DATA
	?instance@SickScanRadarSingleton@sick_scan_xd@@0PEAV12@EA 	 DATA
	?m_printMutex@@3Vmutex@std@@A 	 DATA
	?messageCount@MsgPackParser@sick_scansegment_xd@@1HA 	 DATA
	?nullrep_@TiXmlString@@0URep@1@A 	 DATA
	?receivedData@@3V?$vector@EV?$allocator@E@std@@@std@@A 	 DATA
	?s_sopas_service@@3PEAVSickScanServices@sick_scan_xd@@EA 	 DATA
	?s_status_code@@3W4SICK_DIAGNOSTIC_STATUS@@A 	 DATA
	?s_status_message@@3V?$basic_string@DU?$char_traits@D@std@@V?$allocator@D@2@@std@@A 	 DATA
	?s_verbose_level@@3HA 	 DATA
	?s_wait_for_message_handler_list@?$SickWaitForMessageHandler@PEAVNodeHandle@roswrap@@U?$Imu_@V?$allocator@X@std@@@sensor_msgs@@@sick_scan_xd@@1V?$list@PEAV?$SickWaitForMessageHandler@PEAVNodeHandle@roswrap@@U?$Imu_@V?$allocator@X@std@@@sensor_msgs@@@sick_scan_xd@@V?$allocator@PEAV?$SickWaitForMessageHandler@PEAVNodeHandle@roswrap@@U?$Imu_@V?$allocator@X@std@@@sensor_msgs@@@sick_scan_xd@@@std@@@std@@A 	 DATA
	?s_wait_for_message_handler_list@?$SickWaitForMessageHandler@PEAVNodeHandle@roswrap@@U?$LFErecMsg_@V?$allocator@X@std@@@sick_scan_xd@@@sick_scan_xd@@1V?$list@PEAV?$SickWaitForMessageHandler@PEAVNodeHandle@roswrap@@U?$LFErecMsg_@V?$allocator@X@std@@@sick_scan_xd@@@sick_scan_xd@@V?$allocator@PEAV?$SickWaitForMessageHandler@PEAVNodeHandle@roswrap@@U?$LFErecMsg_@V?$allocator@X@std@@@sick_scan_xd@@@sick_scan_xd@@@std@@@std@@A 	 DATA
	?s_wait_for_message_handler_list@?$SickWaitForMessageHandler@PEAVNodeHandle@roswrap@@U?$LIDoutputstateMsg_@V?$allocator@X@std@@@sick_scan_xd@@@sick_scan_xd@@1V?$list@PEAV?$SickWaitForMessageHandler@PEAVNodeHandle@roswrap@@U?$LIDoutputstateMsg_@V?$allocator@X@std@@@sick_scan_xd@@@sick_scan_xd@@V?$allocator@PEAV?$SickWaitForMessageHandler@PEAVNodeHandle@roswrap@@U?$LIDoutputstateMsg_@V?$allocator@X@std@@@sick_scan_xd@@@sick_scan_xd@@@std@@@std@@A 	 DATA
	?s_wait_for_message_handler_list@?$SickWaitForMessageHandler@PEAVNodeHandle@roswrap@@U?$MarkerArray_@V?$allocator@X@std@@@visualization_msgs@@@sick_scan_xd@@1V?$list@PEAV?$SickWaitForMessageHandler@PEAVNodeHandle@roswrap@@U?$MarkerArray_@V?$allocator@X@std@@@visualization_msgs@@@sick_scan_xd@@V?$allocator@PEAV?$SickWaitForMessageHandler@PEAVNodeHandle@roswrap@@U?$MarkerArray_@V?$allocator@X@std@@@visualization_msgs@@@sick_scan_xd@@@std@@@std@@A 	 DATA
	?s_wait_for_message_handler_list@?$SickWaitForMessageHandler@PEAVNodeHandle@roswrap@@U?$RadarScan_@V?$allocator@X@std@@@sick_scan_xd@@@sick_scan_xd@@1V?$list@PEAV?$SickWaitForMessageHandler@PEAVNodeHandle@roswrap@@U?$RadarScan_@V?$allocator@X@std@@@sick_scan_xd@@@sick_scan_xd@@V?$allocator@PEAV?$SickWaitForMessageHandler@PEAVNodeHandle@roswrap@@U?$RadarScan_@V?$allocator@X@std@@@sick_scan_xd@@@sick_scan_xd@@@std@@@std@@A 	 DATA
	?s_wait_for_message_handler_list@?$SickWaitForMessageHandler@PEAVNodeHandle@roswrap@@U?$SickLdmrsObjectArray_@V?$allocator@X@std@@@sick_scan_xd@@@sick_scan_xd@@1V?$list@PEAV?$SickWaitForMessageHandler@PEAVNodeHandle@roswrap@@U?$SickLdmrsObjectArray_@V?$allocator@X@std@@@sick_scan_xd@@@sick_scan_xd@@V?$allocator@PEAV?$SickWaitForMessageHandler@PEAVNodeHandle@roswrap@@U?$SickLdmrsObjectArray_@V?$allocator@X@std@@@sick_scan_xd@@@sick_scan_xd@@@std@@@std@@A 	 DATA
	?s_wait_for_message_handler_list@?$SickWaitForMessageHandler@PEAVNodeHandle@roswrap@@UPointCloud2withEcho@sick_scan_xd@@@sick_scan_xd@@1V?$list@PEAV?$SickWaitForMessageHandler@PEAVNodeHandle@roswrap@@UPointCloud2withEcho@sick_scan_xd@@@sick_scan_xd@@V?$allocator@PEAV?$SickWaitForMessageHandler@PEAVNodeHandle@roswrap@@UPointCloud2withEcho@sick_scan_xd@@@sick_scan_xd@@@std@@@std@@A 	 DATA
	?s_wait_for_message_handler_list@?$SickWaitForMessageHandler@PEAVNodeHandle@roswrap@@VNAV350mNPOSData@sick_scan_xd@@@sick_scan_xd@@1V?$list@PEAV?$SickWaitForMessageHandler@PEAVNodeHandle@roswrap@@VNAV350mNPOSData@sick_scan_xd@@@sick_scan_xd@@V?$allocator@PEAV?$SickWaitForMessageHandler@PEAVNodeHandle@roswrap@@VNAV350mNPOSData@sick_scan_xd@@@sick_scan_xd@@@std@@@std@@A 	 DATA
	?s_wait_for_message_handler_mutex@?$SickWaitForMessageHandler@PEAVNodeHandle@roswrap@@U?$Imu_@V?$allocator@X@std@@@sensor_msgs@@@sick_scan_xd@@1Vmutex@std@@A 	 DATA
	?s_wait_for_message_handler_mutex@?$SickWaitForMessageHandler@PEAVNodeHandle@roswrap@@U?$LFErecMsg_@V?$allocator@X@std@@@sick_scan_xd@@@sick_scan_xd@@1Vmutex@std@@A 	 DATA
	?s_wait_for_message_handler_mutex@?$SickWaitForMessageHandler@PEAVNodeHandle@roswrap@@U?$LIDoutputstateMsg_@V?$allocator@X@std@@@sick_scan_xd@@@sick_scan_xd@@1Vmutex@std@@A 	 DATA
	?s_wait_for_message_handler_mutex@?$SickWaitForMessageHandler@PEAVNodeHandle@roswrap@@U?$MarkerArray_@V?$allocator@X@std@@@visualization_msgs@@@sick_scan_xd@@1Vmutex@std@@A 	 DATA
	?s_wait_for_message_handler_mutex@?$SickWaitForMessageHandler@PEAVNodeHandle@roswrap@@U?$RadarScan_@V?$allocator@X@std@@@sick_scan_xd@@@sick_scan_xd@@1Vmutex@std@@A 	 DATA
	?s_wait_for_message_handler_mutex@?$SickWaitForMessageHandler@PEAVNodeHandle@roswrap@@U?$SickLdmrsObjectArray_@V?$allocator@X@std@@@sick_scan_xd@@@sick_scan_xd@@1Vmutex@std@@A 	 DATA
	?s_wait_for_message_handler_mutex@?$SickWaitForMessageHandler@PEAVNodeHandle@roswrap@@UPointCloud2withEcho@sick_scan_xd@@@sick_scan_xd@@1Vmutex@std@@A 	 DATA
	?s_wait_for_message_handler_mutex@?$SickWaitForMessageHandler@PEAVNodeHandle@roswrap@@VNAV350mNPOSData@sick_scan_xd@@@sick_scan_xd@@1Vmutex@std@@A 	 DATA
	?telegramCount@MsgPackParser@sick_scansegment_xd@@1HA 	 DATA
	?unknownNode@@3V?$basic_string@DU?$char_traits@D@std@@V?$allocator@D@2@@std@@A 	 DATA
	opterr 	 DATA
	optind 	 DATA
	optopt 	 DATA
	??$?0$$CBV?$vector@EV?$allocator@E@std@@@std@@@?$_Tuple_val@V?$vector@EV?$allocator@E@std@@@std@@@std@@QEAA@$$QEBV?$vector@EV?$allocator@E@std@@@1@@Z
	??$?0$$QEAC$$Z$$V@?$pair@$$CBC_N@std@@QEAA@Upiecewise_construct_t@1@V?$tuple@$$QEAC@1@V?$tuple@$$V@1@@Z
	??$?0$$QEAH$$Z$$V@?$pair@$$CBHH@std@@QEAA@Upiecewise_construct_t@1@V?$tuple@$$QEAH@1@V?$tuple@$$V@1@@Z
	??$?0$$QEAH$$Z$$V@?$pair@$$CBHV?$map@HHU?$less@H@std@@V?$allocator@U?$pair@$$CBHH@std@@@2@@std@@@std@@QEAA@Upiecewise_construct_t@1@V?$tuple@$$QEAH@1@V?$tuple@$$V@1@@Z
	??$?0$$QEAV?$basic_string@DU?$char_traits@D@std@@V?$allocator@D@2@@std@@$$Z$$V@?$pair@$$CBV?$basic_string@DU?$char_traits@D@std@@V?$allocator@D@2@@std@@H@std@@QEAA@Upiecewise_construct_t@1@V?$tuple@$$QEAV?$basic_string@DU?$char_traits@D@std@@V?$allocator@D@2@@std@@@1@V?$tuple@$$V@1@@Z
	??$?0$$QEAV?$basic_string@DU?$char_traits@D@std@@V?$allocator@D@2@@std@@$$Z$$V@?$pair@$$CBV?$basic_string@DU?$char_traits@D@std@@V?$allocator@D@2@@std@@V12@@std@@QEAA@Upiecewise_construct_t@1@V?$tuple@$$QEAV?$basic_string@DU?$char_traits@D@std@@V?$allocator@D@2@@std@@@1@V?$tuple@$$V@1@@Z
	??$?0$$QEAV?$basic_string@DU?$char_traits@D@std@@V?$allocator@D@2@@std@@$$Z$$V@?$pair@$$CBV?$basic_string@DU?$char_traits@D@std@@V?$allocator@D@2@@std@@V?$vector@V?$basic_string@DU?$char_traits@D@std@@V?$allocator@D@2@@std@@V?$allocator@V?$basic_string@DU?$char_traits@D@std@@V?$allocator@D@2@@std@@@2@@2@@std@@QEAA@Upiecewise_construct_t@1@V?$tuple@$$QEAV?$basic_string@DU?$char_traits@D@std@@V?$allocator@D@2@@std@@@1@V?$tuple@$$V@1@@Z
	??$?0$$V@?$_Compressed_pair@V?$allocator@D@std@@V?$_String_val@U?$_Simple_types@D@std@@@2@$00@std@@QEAA@U_Zero_then_variadic_args_t@1@@Z
	??$?0$$V@?$_Compressed_pair@V?$allocator@D@std@@V?$_Vector_val@U?$_Simple_types@D@std@@@2@$00@std@@QEAA@U_Zero_then_variadic_args_t@1@@Z
	??$?0$$V@?$_Compressed_pair@V?$allocator@E@std@@V?$_Vector_val@U?$_Simple_types@E@std@@@2@$00@std@@QEAA@U_Zero_then_variadic_args_t@1@@Z
	??$?0$$V@?$_Compressed_pair@V?$allocator@G@std@@V?$_Vector_val@U?$_Simple_types@G@std@@@2@$00@std@@QEAA@U_Zero_then_variadic_args_t@1@@Z
	??$?0$$V@?$_Compressed_pair@V?$allocator@H@std@@V?$_Vector_val@U?$_Simple_types@H@std@@@2@$00@std@@QEAA@U_Zero_then_variadic_args_t@1@@Z
	??$?0$$V@?$_Compressed_pair@V?$allocator@I@std@@V?$_Vector_val@U?$_Simple_types@I@std@@@2@$00@std@@QEAA@U_Zero_then_variadic_args_t@1@@Z
	??$?0$$V@?$_Compressed_pair@V?$allocator@M@std@@V?$_Vector_val@U?$_Simple_types@M@std@@@2@$00@std@@QEAA@U_Zero_then_variadic_args_t@1@@Z
	??$?0$$V@?$_Compressed_pair@V?$allocator@N@std@@V?$_Vector_val@U?$_Simple_types@N@std@@@2@$00@std@@QEAA@U_Zero_then_variadic_args_t@1@@Z
	??$?0$$V@?$_Compressed_pair@V?$allocator@PEAD@std@@V?$_Vector_val@U?$_Simple_types@PEAD@std@@@2@$00@std@@QEAA@U_Zero_then_variadic_args_t@1@@Z
	??$?0$$V@?$_Compressed_pair@V?$allocator@PEAX@std@@V?$_Vector_val@U?$_Simple_types@PEAX@std@@@2@$00@std@@QEAA@U_Zero_then_variadic_args_t@1@@Z
	??$?0$$V@?$_Compressed_pair@V?$allocator@U?$ColorRGBA_@V?$allocator@X@std@@@std_msgs@@@std@@V?$_Vector_val@U?$_Simple_types@U?$ColorRGBA_@V?$allocator@X@std@@@std_msgs@@@std@@@2@$00@std@@QEAA@U_Zero_then_variadic_args_t@1@@Z
	??$?0$$V@?$_Compressed_pair@V?$allocator@U?$LFErecFieldMsg_@V?$allocator@X@std@@@sick_scan_xd@@@std@@V?$_Vector_val@U?$_Simple_types@U?$LFErecFieldMsg_@V?$allocator@X@std@@@sick_scan_xd@@@std@@@2@$00@std@@QEAA@U_Zero_then_variadic_args_t@1@@Z
	??$?0$$V@?$_Compressed_pair@V?$allocator@U?$Marker_@V?$allocator@X@std@@@visualization_msgs@@@std@@V?$_Vector_val@U?$_Simple_types@U?$Marker_@V?$allocator@X@std@@@visualization_msgs@@@std@@@2@$00@std@@QEAA@U_Zero_then_variadic_args_t@1@@Z
	??$?0$$V@?$_Compressed_pair@V?$allocator@U?$NAVReflectorData_@V?$allocator@X@std@@@sick_scan_xd@@@std@@V?$_Vector_val@U?$_Simple_types@U?$NAVReflectorData_@V?$allocator@X@std@@@sick_scan_xd@@@std@@@2@$00@std@@QEAA@U_Zero_then_variadic_args_t@1@@Z
	??$?0$$V@?$_Compressed_pair@V?$allocator@U?$PointField_@V?$allocator@X@std@@@sensor_msgs@@@std@@V?$_Vector_val@U?$_Simple_types@U?$PointField_@V?$allocator@X@std@@@sensor_msgs@@@std@@@2@$00@std@@QEAA@U_Zero_then_variadic_args_t@1@@Z
	??$?0$$V@?$_Compressed_pair@V?$allocator@U?$Point_@V?$allocator@X@std@@@geometry_msgs@@@std@@V?$_Vector_val@U?$_Simple_types@U?$Point_@V?$allocator@X@std@@@geometry_msgs@@@std@@@2@$00@std@@QEAA@U_Zero_then_variadic_args_t@1@@Z
	??$?0$$V@?$_Compressed_pair@V?$allocator@U?$RadarObject_@V?$allocator@X@std@@@sick_scan_xd@@@std@@V?$_Vector_val@U?$_Simple_types@U?$RadarObject_@V?$allocator@X@std@@@sick_scan_xd@@@std@@@2@$00@std@@QEAA@U_Zero_then_variadic_args_t@1@@Z
	??$?0$$V@?$_Compressed_pair@V?$allocator@U?$RadarPreHeaderEncoderBlock_@V?$allocator@X@std@@@sick_scan_xd@@@std@@V?$_Vector_val@U?$_Simple_types@U?$RadarPreHeaderEncoderBlock_@V?$allocator@X@std@@@sick_scan_xd@@@std@@@2@$00@std@@QEAA@U_Zero_then_variadic_args_t@1@@Z
	??$?0$$V@?$_Compressed_pair@V?$allocator@U?$SickLdmrsObject_@V?$allocator@X@std@@@sick_scan_xd@@@std@@V?$_Vector_val@U?$_Simple_types@U?$SickLdmrsObject_@V?$allocator@X@std@@@sick_scan_xd@@@std@@@2@$00@std@@QEAA@U_Zero_then_variadic_args_t@1@@Z
	??$?0$$V@?$_Compressed_pair@V?$allocator@U?$_List_node@EPEAX@std@@@std@@V?$_List_val@U?$_List_simple_types@E@std@@@2@$00@std@@QEAA@U_Zero_then_variadic_args_t@1@@Z
	??$?0$$V@?$_Compressed_pair@V?$allocator@U?$_List_node@P6AXPEAVNodeHandle@roswrap@@PEBU?$Imu_@V?$allocator@X@std@@@sensor_msgs@@@ZPEAX@std@@@std@@V?$_List_val@U?$_List_simple_types@P6AXPEAVNodeHandle@roswrap@@PEBU?$Imu_@V?$allocator@X@std@@@sensor_msgs@@@Z@std@@@2@$00@std@@QEAA@U_Zero_then_variadic_args_t@1@@Z
	??$?0$$V@?$_Compressed_pair@V?$allocator@U?$_List_node@P6AXPEAVNodeHandle@roswrap@@PEBU?$LFErecMsg_@V?$allocator@X@std@@@sick_scan_xd@@@ZPEAX@std@@@std@@V?$_List_val@U?$_List_simple_types@P6AXPEAVNodeHandle@roswrap@@PEBU?$LFErecMsg_@V?$allocator@X@std@@@sick_scan_xd@@@Z@std@@@2@$00@std@@QEAA@U_Zero_then_variadic_args_t@1@@Z
	??$?0$$V@?$_Compressed_pair@V?$allocator@U?$_List_node@P6AXPEAVNodeHandle@roswrap@@PEBU?$LIDoutputstateMsg_@V?$allocator@X@std@@@sick_scan_xd@@@ZPEAX@std@@@std@@V?$_List_val@U?$_List_simple_types@P6AXPEAVNodeHandle@roswrap@@PEBU?$LIDoutputstateMsg_@V?$allocator@X@std@@@sick_scan_xd@@@Z@std@@@2@$00@std@@QEAA@U_Zero_then_variadic_args_t@1@@Z
	??$?0$$V@?$_Compressed_pair@V?$allocator@U?$_List_node@P6AXPEAVNodeHandle@roswrap@@PEBU?$MarkerArray_@V?$allocator@X@std@@@visualization_msgs@@@ZPEAX@std@@@std@@V?$_List_val@U?$_List_simple_types@P6AXPEAVNodeHandle@roswrap@@PEBU?$MarkerArray_@V?$allocator@X@std@@@visualization_msgs@@@Z@std@@@2@$00@std@@QEAA@U_Zero_then_variadic_args_t@1@@Z
	??$?0$$V@?$_Compressed_pair@V?$allocator@U?$_List_node@P6AXPEAVNodeHandle@roswrap@@PEBU?$RadarScan_@V?$allocator@X@std@@@sick_scan_xd@@@ZPEAX@std@@@std@@V?$_List_val@U?$_List_simple_types@P6AXPEAVNodeHandle@roswrap@@PEBU?$RadarScan_@V?$allocator@X@std@@@sick_scan_xd@@@Z@std@@@2@$00@std@@QEAA@U_Zero_then_variadic_args_t@1@@Z
	??$?0$$V@?$_Compressed_pair@V?$allocator@U?$_List_node@P6AXPEAVNodeHandle@roswrap@@PEBU?$SickLdmrsObjectArray_@V?$allocator@X@std@@@sick_scan_xd@@@ZPEAX@std@@@std@@V?$_List_val@U?$_List_simple_types@P6AXPEAVNodeHandle@roswrap@@PEBU?$SickLdmrsObjectArray_@V?$allocator@X@std@@@sick_scan_xd@@@Z@std@@@2@$00@std@@QEAA@U_Zero_then_variadic_args_t@1@@Z
	??$?0$$V@?$_Compressed_pair@V?$allocator@U?$_List_node@P6AXPEAVNodeHandle@roswrap@@PEBUPointCloud2withEcho@sick_scan_xd@@@ZPEAX@std@@@std@@V?$_List_val@U?$_List_simple_types@P6AXPEAVNodeHandle@roswrap@@PEBUPointCloud2withEcho@sick_scan_xd@@@Z@std@@@2@$00@std@@QEAA@U_Zero_then_variadic_args_t@1@@Z
	??$?0$$V@?$_Compressed_pair@V?$allocator@U?$_List_node@P6AXPEAVNodeHandle@roswrap@@PEBVNAV350mNPOSData@sick_scan_xd@@@ZPEAX@std@@@std@@V?$_List_val@U?$_List_simple_types@P6AXPEAVNodeHandle@roswrap@@PEBVNAV350mNPOSData@sick_scan_xd@@@Z@std@@@2@$00@std@@QEAA@U_Zero_then_variadic_args_t@1@@Z
	??$?0$$V@?$_Compressed_pair@V?$allocator@U?$_List_node@P6AXPEAXPEBUSickScanDiagnosticMsgType@@@ZPEAX@std@@@std@@V?$_List_val@U?$_List_simple_types@P6AXPEAXPEBUSickScanDiagnosticMsgType@@@Z@std@@@2@$00@std@@QEAA@U_Zero_then_variadic_args_t@1@@Z
	??$?0$$V@?$_Compressed_pair@V?$allocator@U?$_List_node@P6AXPEAXPEBUSickScanImuMsgType@@@ZPEAX@std@@@std@@V?$_List_val@U?$_List_simple_types@P6AXPEAXPEBUSickScanImuMsgType@@@Z@std@@@2@$00@std@@QEAA@U_Zero_then_variadic_args_t@1@@Z
	??$?0$$V@?$_Compressed_pair@V?$allocator@U?$_List_node@P6AXPEAXPEBUSickScanLFErecMsgType@@@ZPEAX@std@@@std@@V?$_List_val@U?$_List_simple_types@P6AXPEAXPEBUSickScanLFErecMsgType@@@Z@std@@@2@$00@std@@QEAA@U_Zero_then_variadic_args_t@1@@Z
	??$?0$$V@?$_Compressed_pair@V?$allocator@U?$_List_node@P6AXPEAXPEBUSickScanLIDoutputstateMsgType@@@ZPEAX@std@@@std@@V?$_List_val@U?$_List_simple_types@P6AXPEAXPEBUSickScanLIDoutputstateMsgType@@@Z@std@@@2@$00@std@@QEAA@U_Zero_then_variadic_args_t@1@@Z
	??$?0$$V@?$_Compressed_pair@V?$allocator@U?$_List_node@P6AXPEAXPEBUSickScanLdmrsObjectArrayType@@@ZPEAX@std@@@std@@V?$_List_val@U?$_List_simple_types@P6AXPEAXPEBUSickScanLdmrsObjectArrayType@@@Z@std@@@2@$00@std@@QEAA@U_Zero_then_variadic_args_t@1@@Z
	??$?0$$V@?$_Compressed_pair@V?$allocator@U?$_List_node@P6AXPEAXPEBUSickScanLogMsgType@@@ZPEAX@std@@@std@@V?$_List_val@U?$_List_simple_types@P6AXPEAXPEBUSickScanLogMsgType@@@Z@std@@@2@$00@std@@QEAA@U_Zero_then_variadic_args_t@1@@Z
	??$?0$$V@?$_Compressed_pair@V?$allocator@U?$_List_node@P6AXPEAXPEBUSickScanNavPoseLandmarkMsgType@@@ZPEAX@std@@@std@@V?$_List_val@U?$_List_simple_types@P6AXPEAXPEBUSickScanNavPoseLandmarkMsgType@@@Z@std@@@2@$00@std@@QEAA@U_Zero_then_variadic_args_t@1@@Z
	??$?0$$V@?$_Compressed_pair@V?$allocator@U?$_List_node@P6AXPEAXPEBUSickScanPointCloudMsgType@@@ZPEAX@std@@@std@@V?$_List_val@U?$_List_simple_types@P6AXPEAXPEBUSickScanPointCloudMsgType@@@Z@std@@@2@$00@std@@QEAA@U_Zero_then_variadic_args_t@1@@Z
	??$?0$$V@?$_Compressed_pair@V?$allocator@U?$_List_node@P6AXPEAXPEBUSickScanRadarScanType@@@ZPEAX@std@@@std@@V?$_List_val@U?$_List_simple_types@P6AXPEAXPEBUSickScanRadarScanType@@@Z@std@@@2@$00@std@@QEAA@U_Zero_then_variadic_args_t@1@@Z
	??$?0$$V@?$_Compressed_pair@V?$allocator@U?$_List_node@P6AXPEAXPEBUSickScanVisualizationMarkerMsgType@@@ZPEAX@std@@@std@@V?$_List_val@U?$_List_simple_types@P6AXPEAXPEBUSickScanVisualizationMarkerMsgType@@@Z@std@@@2@$00@std@@QEAA@U_Zero_then_variadic_args_t@1@@Z
	??$?0$$V@?$_Compressed_pair@V?$allocator@U?$_List_node@PEAV?$SickWaitForMessageHandler@PEAVNodeHandle@roswrap@@U?$Imu_@V?$allocator@X@std@@@sensor_msgs@@@sick_scan_xd@@PEAX@std@@@std@@V?$_List_val@U?$_List_simple_types@PEAV?$SickWaitForMessageHandler@PEAVNodeHandle@roswrap@@U?$Imu_@V?$allocator@X@std@@@sensor_msgs@@@sick_scan_xd@@@std@@@2@$00@std@@QEAA@U_Zero_then_variadic_args_t@1@@Z
	??$?0$$V@?$_Compressed_pair@V?$allocator@U?$_List_node@PEAV?$SickWaitForMessageHandler@PEAVNodeHandle@roswrap@@U?$LFErecMsg_@V?$allocator@X@std@@@sick_scan_xd@@@sick_scan_xd@@PEAX@std@@@std@@V?$_List_val@U?$_List_simple_types@PEAV?$SickWaitForMessageHandler@PEAVNodeHandle@roswrap@@U?$LFErecMsg_@V?$allocator@X@std@@@sick_scan_xd@@@sick_scan_xd@@@std@@@2@$00@std@@QEAA@U_Zero_then_variadic_args_t@1@@Z
	??$?0$$V@?$_Compressed_pair@V?$allocator@U?$_List_node@PEAV?$SickWaitForMessageHandler@PEAVNodeHandle@roswrap@@U?$LIDoutputstateMsg_@V?$allocator@X@std@@@sick_scan_xd@@@sick_scan_xd@@PEAX@std@@@std@@V?$_List_val@U?$_List_simple_types@PEAV?$SickWaitForMessageHandler@PEAVNodeHandle@roswrap@@U?$LIDoutputstateMsg_@V?$allocator@X@std@@@sick_scan_xd@@@sick_scan_xd@@@std@@@2@$00@std@@QEAA@U_Zero_then_variadic_args_t@1@@Z
	??$?0$$V@?$_Compressed_pair@V?$allocator@U?$_List_node@PEAV?$SickWaitForMessageHandler@PEAVNodeHandle@roswrap@@U?$MarkerArray_@V?$allocator@X@std@@@visualization_msgs@@@sick_scan_xd@@PEAX@std@@@std@@V?$_List_val@U?$_List_simple_types@PEAV?$SickWaitForMessageHandler@PEAVNodeHandle@roswrap@@U?$MarkerArray_@V?$allocator@X@std@@@visualization_msgs@@@sick_scan_xd@@@std@@@2@$00@std@@QEAA@U_Zero_then_variadic_args_t@1@@Z
	??$?0$$V@?$_Compressed_pair@V?$allocator@U?$_List_node@PEAV?$SickWaitForMessageHandler@PEAVNodeHandle@roswrap@@U?$RadarScan_@V?$allocator@X@std@@@sick_scan_xd@@@sick_scan_xd@@PEAX@std@@@std@@V?$_List_val@U?$_List_simple_types@PEAV?$SickWaitForMessageHandler@PEAVNodeHandle@roswrap@@U?$RadarScan_@V?$allocator@X@std@@@sick_scan_xd@@@sick_scan_xd@@@std@@@2@$00@std@@QEAA@U_Zero_then_variadic_args_t@1@@Z
	??$?0$$V@?$_Compressed_pair@V?$allocator@U?$_List_node@PEAV?$SickWaitForMessageHandler@PEAVNodeHandle@roswrap@@U?$SickLdmrsObjectArray_@V?$allocator@X@std@@@sick_scan_xd@@@sick_scan_xd@@PEAX@std@@@std@@V?$_List_val@U?$_List_simple_types@PEAV?$SickWaitForMessageHandler@PEAVNodeHandle@roswrap@@U?$SickLdmrsObjectArray_@V?$allocator@X@std@@@sick_scan_xd@@@sick_scan_xd@@@std@@@2@$00@std@@QEAA@U_Zero_then_variadic_args_t@1@@Z
	??$?0$$V@?$_Compressed_pair@V?$allocator@U?$_List_node@PEAV?$SickWaitForMessageHandler@PEAVNodeHandle@roswrap@@UPointCloud2withEcho@sick_scan_xd@@@sick_scan_xd@@PEAX@std@@@std@@V?$_List_val@U?$_List_simple_types@PEAV?$SickWaitForMessageHandler@PEAVNodeHandle@roswrap@@UPointCloud2withEcho@sick_scan_xd@@@sick_scan_xd@@@std@@@2@$00@std@@QEAA@U_Zero_then_variadic_args_t@1@@Z
	??$?0$$V@?$_Compressed_pair@V?$allocator@U?$_List_node@PEAV?$SickWaitForMessageHandler@PEAVNodeHandle@roswrap@@VNAV350mNPOSData@sick_scan_xd@@@sick_scan_xd@@PEAX@std@@@std@@V?$_List_val@U?$_List_simple_types@PEAV?$SickWaitForMessageHandler@PEAVNodeHandle@roswrap@@VNAV350mNPOSData@sick_scan_xd@@@sick_scan_xd@@@std@@@2@$00@std@@QEAA@U_Zero_then_variadic_args_t@1@@Z
	??$?0$$V@?$_Compressed_pair@V?$allocator@U?$_List_node@PEAVMsgPackExportListenerIF@sick_scansegment_xd@@PEAX@std@@@std@@V?$_List_val@U?$_List_simple_types@PEAVMsgPackExportListenerIF@sick_scansegment_xd@@@std@@@2@$00@std@@QEAA@U_Zero_then_variadic_args_t@1@@Z
	??$?0$$V@?$_Compressed_pair@V?$allocator@U?$_List_node@VDatagramWithTimeStamp@sick_scan_xd@@PEAX@std@@@std@@V?$_List_val@U?$_List_simple_types@VDatagramWithTimeStamp@sick_scan_xd@@@std@@@2@$00@std@@QEAA@U_Zero_then_variadic_args_t@1@@Z
	??$?0$$V@?$_Compressed_pair@V?$allocator@U?$_Tree_node@U?$pair@$$CBC_N@std@@PEAX@std@@@std@@V?$_Tree_val@U?$_Tree_simple_types@U?$pair@$$CBC_N@std@@@std@@@2@$00@std@@QEAA@U_Zero_then_variadic_args_t@1@@Z
	??$?0$$V@?$_Compressed_pair@V?$allocator@U?$_Tree_node@U?$pair@$$CBEV?$basic_string@DU?$char_traits@D@std@@V?$allocator@D@2@@std@@@std@@PEAX@std@@@std@@V?$_Tree_val@U?$_Tree_simple_types@U?$pair@$$CBEV?$basic_string@DU?$char_traits@D@std@@V?$allocator@D@2@@std@@@std@@@std@@@2@$00@std@@QEAA@U_Zero_then_variadic_args_t@1@@Z
	??$?0$$V@?$_Compressed_pair@V?$allocator@U?$_Tree_node@U?$pair@$$CBHH@std@@PEAX@std@@@std@@V?$_Tree_val@U?$_Tree_simple_types@U?$pair@$$CBHH@std@@@std@@@2@$00@std@@QEAA@U_Zero_then_variadic_args_t@1@@Z
	??$?0$$V@?$_Compressed_pair@V?$allocator@U?$_Tree_node@U?$pair@$$CBHU?$LaserScan_@V?$allocator@X@std@@@sensor_msgs@@@std@@PEAX@std@@@std@@V?$_Tree_val@U?$_Tree_simple_types@U?$pair@$$CBHU?$LaserScan_@V?$allocator@X@std@@@sensor_msgs@@@std@@@std@@@2@$00@std@@QEAA@U_Zero_then_variadic_args_t@1@@Z
	??$?0$$V@?$_Compressed_pair@V?$allocator@U?$_Tree_node@U?$pair@$$CBHV?$map@HHU?$less@H@std@@V?$allocator@U?$pair@$$CBHH@std@@@2@@std@@@std@@PEAX@std@@@std@@V?$_Tree_val@U?$_Tree_simple_types@U?$pair@$$CBHV?$map@HHU?$less@H@std@@V?$allocator@U?$pair@$$CBHH@std@@@2@@std@@@std@@@std@@@2@$00@std@@QEAA@U_Zero_then_variadic_args_t@1@@Z
	??$?0$$V@?$_Compressed_pair@V?$allocator@U?$_Tree_node@U?$pair@$$CBHV?$map@HU?$LaserScan_@V?$allocator@X@std@@@sensor_msgs@@U?$less@H@std@@V?$allocator@U?$pair@$$CBHU?$LaserScan_@V?$allocator@X@std@@@sensor_msgs@@@std@@@4@@std@@@std@@PEAX@std@@@std@@V?$_Tree_val@U?$_Tree_simple_types@U?$pair@$$CBHV?$map@HU?$LaserScan_@V?$allocator@X@std@@@sensor_msgs@@U?$less@H@std@@V?$allocator@U?$pair@$$CBHU?$LaserScan_@V?$allocator@X@std@@@sensor_msgs@@@std@@@4@@std@@@std@@@std@@@2@$00@std@@QEAA@U_Zero_then_variadic_args_t@1@@Z
	??$?0$$V@?$_Compressed_pair@V?$allocator@U?$_Tree_node@U?$pair@$$CBHV?$map@HV?$map@HHU?$less@H@std@@V?$allocator@U?$pair@$$CBHH@std@@@2@@std@@U?$less@H@2@V?$allocator@U?$pair@$$CBHV?$map@HHU?$less@H@std@@V?$allocator@U?$pair@$$CBHH@std@@@2@@std@@@std@@@2@@std@@@std@@PEAX@std@@@std@@V?$_Tree_val@U?$_Tree_simple_types@U?$pair@$$CBHV?$map@HV?$map@HHU?$less@H@std@@V?$allocator@U?$pair@$$CBHH@std@@@2@@std@@U?$less@H@2@V?$allocator@U?$pair@$$CBHV?$map@HHU?$less@H@std@@V?$allocator@U?$pair@$$CBHH@std@@@2@@std@@@std@@@2@@std@@@std@@@std@@@2@$00@std@@QEAA@U_Zero_then_variadic_args_t@1@@Z
	??$?0$$V@?$_Compressed_pair@V?$allocator@U?$_Tree_node@U?$pair@$$CBHV?$map@HV?$map@HV?$map@HHU?$less@H@std@@V?$allocator@U?$pair@$$CBHH@std@@@2@@std@@U?$less@H@2@V?$allocator@U?$pair@$$CBHV?$map@HHU?$less@H@std@@V?$allocator@U?$pair@$$CBHH@std@@@2@@std@@@std@@@2@@std@@U?$less@H@2@V?$allocator@U?$pair@$$CBHV?$map@HV?$map@HHU?$less@H@std@@V?$allocator@U?$pair@$$CBHH@std@@@2@@std@@U?$less@H@2@V?$allocator@U?$pair@$$CBHV?$map@HHU?$less@H@std@@V?$allocator@U?$pair@$$CBHH@std@@@2@@std@@@std@@@2@@std@@@std@@@2@@std@@@std@@PEAX@std@@@std@@V?$_Tree_val@U?$_Tree_simple_types@U?$pair@$$CBHV?$map@HV?$map@HV?$map@HHU?$less@H@std@@V?$allocator@U?$pair@$$CBHH@std@@@2@@std@@U?$less@H@2@V?$allocator@U?$pair@$$CBHV?$map@HHU?$less@H@std@@V?$allocator@U?$pair@$$CBHH@std@@@2@@std@@@std@@@2@@std@@U?$less@H@2@V?$allocator@U?$pair@$$CBHV?$map@HV?$map@HHU?$less@H@std@@V?$allocator@U?$pair@$$CBHH@std@@@2@@std@@U?$less@H@2@V?$allocator@U?$pair@$$CBHV?$map@HHU?$less@H@std@@V?$allocator@U?$pair@$$CBHH@std@@@2@@std@@@std@@@2@@std@@@std@@@2@@std@@@std@@@std@@@2@$00@std@@QEAA@U_Zero_then_variadic_args_t@1@@Z
	??$?0$$V@?$_Compressed_pair@V?$allocator@U?$_Tree_node@U?$pair@$$CBHV?$time_point@Usystem_clock@chrono@std@@V?$duration@_JU?$ratio@$00$0JIJGIA@@std@@@23@@chrono@std@@@std@@PEAX@std@@@std@@V?$_Tree_val@U?$_Tree_simple_types@U?$pair@$$CBHV?$time_point@Usystem_clock@chrono@std@@V?$duration@_JU?$ratio@$00$0JIJGIA@@std@@@23@@chrono@std@@@std@@@std@@@2@$00@std@@QEAA@U_Zero_then_variadic_args_t@1@@Z
	??$?0$$V@?$_Compressed_pair@V?$allocator@U?$_Tree_node@U?$pair@$$CBH_K@std@@PEAX@std@@@std@@V?$_Tree_val@U?$_Tree_simple_types@U?$pair@$$CBH_K@std@@@std@@@2@$00@std@@QEAA@U_Zero_then_variadic_args_t@1@@Z
	??$?0$$V@?$_Compressed_pair@V?$allocator@U?$_Tree_node@U?$pair@$$CBV?$basic_string@DU?$char_traits@D@std@@V?$allocator@D@2@@std@@H@std@@PEAX@std@@@std@@V?$_Tree_val@U?$_Tree_simple_types@U?$pair@$$CBV?$basic_string@DU?$char_traits@D@std@@V?$allocator@D@2@@std@@H@std@@@std@@@2@$00@std@@QEAA@U_Zero_then_variadic_args_t@1@@Z
	??$?0$$V@?$_Compressed_pair@V?$allocator@U?$_Tree_node@U?$pair@$$CBV?$basic_string@DU?$char_traits@D@std@@V?$allocator@D@2@@std@@V12@@std@@PEAX@std@@@std@@V?$_Tree_val@U?$_Tree_simple_types@U?$pair@$$CBV?$basic_string@DU?$char_traits@D@std@@V?$allocator@D@2@@std@@V12@@std@@@std@@@2@$00@std@@QEAA@U_Zero_then_variadic_args_t@1@@Z
	??$?0$$V@?$_Compressed_pair@V?$allocator@U?$_Tree_node@U?$pair@$$CBV?$basic_string@DU?$char_traits@D@std@@V?$allocator@D@2@@std@@V?$vector@V?$basic_string@DU?$char_traits@D@std@@V?$allocator@D@2@@std@@V?$allocator@V?$basic_string@DU?$char_traits@D@std@@V?$allocator@D@2@@std@@@2@@2@@std@@PEAX@std@@@std@@V?$_Tree_val@U?$_Tree_simple_types@U?$pair@$$CBV?$basic_string@DU?$char_traits@D@std@@V?$allocator@D@2@@std@@V?$vector@V?$basic_string@DU?$char_traits@D@std@@V?$allocator@D@2@@std@@V?$allocator@V?$basic_string@DU?$char_traits@D@std@@V?$allocator@D@2@@std@@@2@@2@@std@@@std@@@2@$00@std@@QEAA@U_Zero_then_variadic_args_t@1@@Z
	??$?0$$V@?$_Compressed_pair@V?$allocator@U?$_Tree_node@U?$pair@$$CBV?$basic_string@DU?$char_traits@D@std@@V?$allocator@D@2@@std@@_N@std@@PEAX@std@@@std@@V?$_Tree_val@U?$_Tree_simple_types@U?$pair@$$CBV?$basic_string@DU?$char_traits@D@std@@V?$allocator@D@2@@std@@_N@std@@@std@@@2@$00@std@@QEAA@U_Zero_then_variadic_args_t@1@@Z
	??$?0$$V@?$_Compressed_pair@V?$allocator@U?$_Tree_node@U?$pair@$$CBVMsgPack@msgpack11@@V12@@std@@PEAX@std@@@std@@V?$_Tree_val@U?$_Tree_simple_types@U?$pair@$$CBVMsgPack@msgpack11@@V12@@std@@@std@@@2@$00@std@@QEAA@U_Zero_then_variadic_args_t@1@@Z
	??$?0$$V@?$_Compressed_pair@V?$allocator@U?$_Tree_node@U?$pair@QEAVNodeHandle@roswrap@@V?$list@P6AXPEAVNodeHandle@roswrap@@PEBU?$Imu_@V?$allocator@X@std@@@sensor_msgs@@@ZV?$allocator@P6AXPEAVNodeHandle@roswrap@@PEBU?$Imu_@V?$allocator@X@std@@@sensor_msgs@@@Z@std@@@std@@@std@@PEAX@std@@@std@@V?$_Tree_val@U?$_Tree_simple_types@U?$pair@QEAVNodeHandle@roswrap@@V?$list@P6AXPEAVNodeHandle@roswrap@@PEBU?$Imu_@V?$allocator@X@std@@@sensor_msgs@@@ZV?$allocator@P6AXPEAVNodeHandle@roswrap@@PEBU?$Imu_@V?$allocator@X@std@@@sensor_msgs@@@Z@std@@@std@@@std@@@std@@@2@$00@std@@QEAA@U_Zero_then_variadic_args_t@1@@Z
	??$?0$$V@?$_Compressed_pair@V?$allocator@U?$_Tree_node@U?$pair@QEAVNodeHandle@roswrap@@V?$list@P6AXPEAVNodeHandle@roswrap@@PEBU?$LFErecMsg_@V?$allocator@X@std@@@sick_scan_xd@@@ZV?$allocator@P6AXPEAVNodeHandle@roswrap@@PEBU?$LFErecMsg_@V?$allocator@X@std@@@sick_scan_xd@@@Z@std@@@std@@@std@@PEAX@std@@@std@@V?$_Tree_val@U?$_Tree_simple_types@U?$pair@QEAVNodeHandle@roswrap@@V?$list@P6AXPEAVNodeHandle@roswrap@@PEBU?$LFErecMsg_@V?$allocator@X@std@@@sick_scan_xd@@@ZV?$allocator@P6AXPEAVNodeHandle@roswrap@@PEBU?$LFErecMsg_@V?$allocator@X@std@@@sick_scan_xd@@@Z@std@@@std@@@std@@@std@@@2@$00@std@@QEAA@U_Zero_then_variadic_args_t@1@@Z
	??$?0$$V@?$_Compressed_pair@V?$allocator@U?$_Tree_node@U?$pair@QEAVNodeHandle@roswrap@@V?$list@P6AXPEAVNodeHandle@roswrap@@PEBU?$LIDoutputstateMsg_@V?$allocator@X@std@@@sick_scan_xd@@@ZV?$allocator@P6AXPEAVNodeHandle@roswrap@@PEBU?$LIDoutputstateMsg_@V?$allocator@X@std@@@sick_scan_xd@@@Z@std@@@std@@@std@@PEAX@std@@@std@@V?$_Tree_val@U?$_Tree_simple_types@U?$pair@QEAVNodeHandle@roswrap@@V?$list@P6AXPEAVNodeHandle@roswrap@@PEBU?$LIDoutputstateMsg_@V?$allocator@X@std@@@sick_scan_xd@@@ZV?$allocator@P6AXPEAVNodeHandle@roswrap@@PEBU?$LIDoutputstateMsg_@V?$allocator@X@std@@@sick_scan_xd@@@Z@std@@@std@@@std@@@std@@@2@$00@std@@QEAA@U_Zero_then_variadic_args_t@1@@Z
	??$?0$$V@?$_Compressed_pair@V?$allocator@U?$_Tree_node@U?$pair@QEAVNodeHandle@roswrap@@V?$list@P6AXPEAVNodeHandle@roswrap@@PEBU?$MarkerArray_@V?$allocator@X@std@@@visualization_msgs@@@ZV?$allocator@P6AXPEAVNodeHandle@roswrap@@PEBU?$MarkerArray_@V?$allocator@X@std@@@visualization_msgs@@@Z@std@@@std@@@std@@PEAX@std@@@std@@V?$_Tree_val@U?$_Tree_simple_types@U?$pair@QEAVNodeHandle@roswrap@@V?$list@P6AXPEAVNodeHandle@roswrap@@PEBU?$MarkerArray_@V?$allocator@X@std@@@visualization_msgs@@@ZV?$allocator@P6AXPEAVNodeHandle@roswrap@@PEBU?$MarkerArray_@V?$allocator@X@std@@@visualization_msgs@@@Z@std@@@std@@@std@@@std@@@2@$00@std@@QEAA@U_Zero_then_variadic_args_t@1@@Z
	??$?0$$V@?$_Compressed_pair@V?$allocator@U?$_Tree_node@U?$pair@QEAVNodeHandle@roswrap@@V?$list@P6AXPEAVNodeHandle@roswrap@@PEBU?$RadarScan_@V?$allocator@X@std@@@sick_scan_xd@@@ZV?$allocator@P6AXPEAVNodeHandle@roswrap@@PEBU?$RadarScan_@V?$allocator@X@std@@@sick_scan_xd@@@Z@std@@@std@@@std@@PEAX@std@@@std@@V?$_Tree_val@U?$_Tree_simple_types@U?$pair@QEAVNodeHandle@roswrap@@V?$list@P6AXPEAVNodeHandle@roswrap@@PEBU?$RadarScan_@V?$allocator@X@std@@@sick_scan_xd@@@ZV?$allocator@P6AXPEAVNodeHandle@roswrap@@PEBU?$RadarScan_@V?$allocator@X@std@@@sick_scan_xd@@@Z@std@@@std@@@std@@@std@@@2@$00@std@@QEAA@U_Zero_then_variadic_args_t@1@@Z
	??$?0$$V@?$_Compressed_pair@V?$allocator@U?$_Tree_node@U?$pair@QEAVNodeHandle@roswrap@@V?$list@P6AXPEAVNodeHandle@roswrap@@PEBU?$SickLdmrsObjectArray_@V?$allocator@X@std@@@sick_scan_xd@@@ZV?$allocator@P6AXPEAVNodeHandle@roswrap@@PEBU?$SickLdmrsObjectArray_@V?$allocator@X@std@@@sick_scan_xd@@@Z@std@@@std@@@std@@PEAX@std@@@std@@V?$_Tree_val@U?$_Tree_simple_types@U?$pair@QEAVNodeHandle@roswrap@@V?$list@P6AXPEAVNodeHandle@roswrap@@PEBU?$SickLdmrsObjectArray_@V?$allocator@X@std@@@sick_scan_xd@@@ZV?$allocator@P6AXPEAVNodeHandle@roswrap@@PEBU?$SickLdmrsObjectArray_@V?$allocator@X@std@@@sick_scan_xd@@@Z@std@@@std@@@std@@@std@@@2@$00@std@@QEAA@U_Zero_then_variadic_args_t@1@@Z
	??$?0$$V@?$_Compressed_pair@V?$allocator@U?$_Tree_node@U?$pair@QEAVNodeHandle@roswrap@@V?$list@P6AXPEAVNodeHandle@roswrap@@PEBUPointCloud2withEcho@sick_scan_xd@@@ZV?$allocator@P6AXPEAVNodeHandle@roswrap@@PEBUPointCloud2withEcho@sick_scan_xd@@@Z@std@@@std@@@std@@PEAX@std@@@std@@V?$_Tree_val@U?$_Tree_simple_types@U?$pair@QEAVNodeHandle@roswrap@@V?$list@P6AXPEAVNodeHandle@roswrap@@PEBUPointCloud2withEcho@sick_scan_xd@@@ZV?$allocator@P6AXPEAVNodeHandle@roswrap@@PEBUPointCloud2withEcho@sick_scan_xd@@@Z@std@@@std@@@std@@@std@@@2@$00@std@@QEAA@U_Zero_then_variadic_args_t@1@@Z
	??$?0$$V@?$_Compressed_pair@V?$allocator@U?$_Tree_node@U?$pair@QEAVNodeHandle@roswrap@@V?$list@P6AXPEAVNodeHandle@roswrap@@PEBVNAV350mNPOSData@sick_scan_xd@@@ZV?$allocator@P6AXPEAVNodeHandle@roswrap@@PEBVNAV350mNPOSData@sick_scan_xd@@@Z@std@@@std@@@std@@PEAX@std@@@std@@V?$_Tree_val@U?$_Tree_simple_types@U?$pair@QEAVNodeHandle@roswrap@@V?$list@P6AXPEAVNodeHandle@roswrap@@PEBVNAV350mNPOSData@sick_scan_xd@@@ZV?$allocator@P6AXPEAVNodeHandle@roswrap@@PEBVNAV350mNPOSData@sick_scan_xd@@@Z@std@@@std@@@std@@@std@@@2@$00@std@@QEAA@U_Zero_then_variadic_args_t@1@@Z
	??$?0$$V@?$_Compressed_pair@V?$allocator@U?$_Tree_node@U?$pair@QEAXV?$basic_string@DU?$char_traits@D@std@@V?$allocator@D@2@@std@@@std@@PEAX@std@@@std@@V?$_Tree_val@U?$_Tree_simple_types@U?$pair@QEAXV?$basic_string@DU?$char_traits@D@std@@V?$allocator@D@2@@std@@@std@@@std@@@2@$00@std@@QEAA@U_Zero_then_variadic_args_t@1@@Z
	??$?0$$V@?$_Compressed_pair@V?$allocator@U?$_Tree_node@U?$pair@QEAXV?$list@P6AXPEAXPEBUSickScanDiagnosticMsgType@@@ZV?$allocator@P6AXPEAXPEBUSickScanDiagnosticMsgType@@@Z@std@@@std@@@std@@PEAX@std@@@std@@V?$_Tree_val@U?$_Tree_simple_types@U?$pair@QEAXV?$list@P6AXPEAXPEBUSickScanDiagnosticMsgType@@@ZV?$allocator@P6AXPEAXPEBUSickScanDiagnosticMsgType@@@Z@std@@@std@@@std@@@std@@@2@$00@std@@QEAA@U_Zero_then_variadic_args_t@1@@Z
	??$?0$$V@?$_Compressed_pair@V?$allocator@U?$_Tree_node@U?$pair@QEAXV?$list@P6AXPEAXPEBUSickScanImuMsgType@@@ZV?$allocator@P6AXPEAXPEBUSickScanImuMsgType@@@Z@std@@@std@@@std@@PEAX@std@@@std@@V?$_Tree_val@U?$_Tree_simple_types@U?$pair@QEAXV?$list@P6AXPEAXPEBUSickScanImuMsgType@@@ZV?$allocator@P6AXPEAXPEBUSickScanImuMsgType@@@Z@std@@@std@@@std@@@std@@@2@$00@std@@QEAA@U_Zero_then_variadic_args_t@1@@Z
	??$?0$$V@?$_Compressed_pair@V?$allocator@U?$_Tree_node@U?$pair@QEAXV?$list@P6AXPEAXPEBUSickScanLFErecMsgType@@@ZV?$allocator@P6AXPEAXPEBUSickScanLFErecMsgType@@@Z@std@@@std@@@std@@PEAX@std@@@std@@V?$_Tree_val@U?$_Tree_simple_types@U?$pair@QEAXV?$list@P6AXPEAXPEBUSickScanLFErecMsgType@@@ZV?$allocator@P6AXPEAXPEBUSickScanLFErecMsgType@@@Z@std@@@std@@@std@@@std@@@2@$00@std@@QEAA@U_Zero_then_variadic_args_t@1@@Z
	??$?0$$V@?$_Compressed_pair@V?$allocator@U?$_Tree_node@U?$pair@QEAXV?$list@P6AXPEAXPEBUSickScanLIDoutputstateMsgType@@@ZV?$allocator@P6AXPEAXPEBUSickScanLIDoutputstateMsgType@@@Z@std@@@std@@@std@@PEAX@std@@@std@@V?$_Tree_val@U?$_Tree_simple_types@U?$pair@QEAXV?$list@P6AXPEAXPEBUSickScanLIDoutputstateMsgType@@@ZV?$allocator@P6AXPEAXPEBUSickScanLIDoutputstateMsgType@@@Z@std@@@std@@@std@@@std@@@2@$00@std@@QEAA@U_Zero_then_variadic_args_t@1@@Z
	??$?0$$V@?$_Compressed_pair@V?$allocator@U?$_Tree_node@U?$pair@QEAXV?$list@P6AXPEAXPEBUSickScanLdmrsObjectArrayType@@@ZV?$allocator@P6AXPEAXPEBUSickScanLdmrsObjectArrayType@@@Z@std@@@std@@@std@@PEAX@std@@@std@@V?$_Tree_val@U?$_Tree_simple_types@U?$pair@QEAXV?$list@P6AXPEAXPEBUSickScanLdmrsObjectArrayType@@@ZV?$allocator@P6AXPEAXPEBUSickScanLdmrsObjectArrayType@@@Z@std@@@std@@@std@@@std@@@2@$00@std@@QEAA@U_Zero_then_variadic_args_t@1@@Z
	??$?0$$V@?$_Compressed_pair@V?$allocator@U?$_Tree_node@U?$pair@QEAXV?$list@P6AXPEAXPEBUSickScanLogMsgType@@@ZV?$allocator@P6AXPEAXPEBUSickScanLogMsgType@@@Z@std@@@std@@@std@@PEAX@std@@@std@@V?$_Tree_val@U?$_Tree_simple_types@U?$pair@QEAXV?$list@P6AXPEAXPEBUSickScanLogMsgType@@@ZV?$allocator@P6AXPEAXPEBUSickScanLogMsgType@@@Z@std@@@std@@@std@@@std@@@2@$00@std@@QEAA@U_Zero_then_variadic_args_t@1@@Z
	??$?0$$V@?$_Compressed_pair@V?$allocator@U?$_Tree_node@U?$pair@QEAXV?$list@P6AXPEAXPEBUSickScanNavPoseLandmarkMsgType@@@ZV?$allocator@P6AXPEAXPEBUSickScanNavPoseLandmarkMsgType@@@Z@std@@@std@@@std@@PEAX@std@@@std@@V?$_Tree_val@U?$_Tree_simple_types@U?$pair@QEAXV?$list@P6AXPEAXPEBUSickScanNavPoseLandmarkMsgType@@@ZV?$allocator@P6AXPEAXPEBUSickScanNavPoseLandmarkMsgType@@@Z@std@@@std@@@std@@@std@@@2@$00@std@@QEAA@U_Zero_then_variadic_args_t@1@@Z
	??$?0$$V@?$_Compressed_pair@V?$allocator@U?$_Tree_node@U?$pair@QEAXV?$list@P6AXPEAXPEBUSickScanPointCloudMsgType@@@ZV?$allocator@P6AXPEAXPEBUSickScanPointCloudMsgType@@@Z@std@@@std@@@std@@PEAX@std@@@std@@V?$_Tree_val@U?$_Tree_simple_types@U?$pair@QEAXV?$list@P6AXPEAXPEBUSickScanPointCloudMsgType@@@ZV?$allocator@P6AXPEAXPEBUSickScanPointCloudMsgType@@@Z@std@@@std@@@std@@@std@@@2@$00@std@@QEAA@U_Zero_then_variadic_args_t@1@@Z
	??$?0$$V@?$_Compressed_pair@V?$allocator@U?$_Tree_node@U?$pair@QEAXV?$list@P6AXPEAXPEBUSickScanRadarScanType@@@ZV?$allocator@P6AXPEAXPEBUSickScanRadarScanType@@@Z@std@@@std@@@std@@PEAX@std@@@std@@V?$_Tree_val@U?$_Tree_simple_types@U?$pair@QEAXV?$list@P6AXPEAXPEBUSickScanRadarScanType@@@ZV?$allocator@P6AXPEAXPEBUSickScanRadarScanType@@@Z@std@@@std@@@std@@@std@@@2@$00@std@@QEAA@U_Zero_then_variadic_args_t@1@@Z
	??$?0$$V@?$_Compressed_pair@V?$allocator@U?$_Tree_node@U?$pair@QEAXV?$list@P6AXPEAXPEBUSickScanVisualizationMarkerMsgType@@@ZV?$allocator@P6AXPEAXPEBUSickScanVisualizationMarkerMsgType@@@Z@std@@@std@@@std@@PEAX@std@@@std@@V?$_Tree_val@U?$_Tree_simple_types@U?$pair@QEAXV?$list@P6AXPEAXPEBUSickScanVisualizationMarkerMsgType@@@ZV?$allocator@P6AXPEAXPEBUSickScanVisualizationMarkerMsgType@@@Z@std@@@std@@@std@@@std@@@2@$00@std@@QEAA@U_Zero_then_variadic_args_t@1@@Z
	??$?0$$V@?$_Compressed_pair@V?$allocator@V?$basic_string@DU?$char_traits@D@std@@V?$allocator@D@2@@std@@@std@@V?$_Vector_val@U?$_Simple_types@V?$basic_string@DU?$char_traits@D@std@@V?$allocator@D@2@@std@@@std@@@2@$00@std@@QEAA@U_Zero_then_variadic_args_t@1@@Z
	??$?0$$V@?$_Compressed_pair@V?$allocator@V?$tuple@V?$vector@EV?$allocator@E@std@@@std@@V?$time_point@Usystem_clock@chrono@std@@V?$duration@_JU?$ratio@$00$0JIJGIA@@std@@@23@@chrono@2@_K@std@@@std@@V?$_Deque_val@U?$_Deque_simple_types@V?$tuple@V?$vector@EV?$allocator@E@std@@@std@@V?$time_point@Usystem_clock@chrono@std@@V?$duration@_JU?$ratio@$00$0JIJGIA@@std@@@23@@chrono@2@_K@std@@@std@@@2@$00@std@@QEAA@U_Zero_then_variadic_args_t@1@@Z
	??$?0$$V@?$_Compressed_pair@V?$allocator@V?$tuple@VScanSegmentParserOutput@sick_scansegment_xd@@V?$time_point@Usystem_clock@chrono@std@@V?$duration@_JU?$ratio@$00$0JIJGIA@@std@@@23@@chrono@std@@_K@std@@@std@@V?$_Deque_val@U?$_Deque_simple_types@V?$tuple@VScanSegmentParserOutput@sick_scansegment_xd@@V?$time_point@Usystem_clock@chrono@std@@V?$duration@_JU?$ratio@$00$0JIJGIA@@std@@@23@@chrono@std@@_K@std@@@std@@@2@$00@std@@QEAA@U_Zero_then_variadic_args_t@1@@Z
	??$?0$$V@?$_Compressed_pair@V?$allocator@V?$vector@EV?$allocator@E@std@@@std@@@std@@V?$_Vector_val@U?$_Simple_types@V?$vector@EV?$allocator@E@std@@@std@@@std@@@2@$00@std@@QEAA@U_Zero_then_variadic_args_t@1@@Z
	??$?0$$V@?$_Compressed_pair@V?$allocator@V?$vector@V?$basic_string@DU?$char_traits@D@std@@V?$allocator@D@2@@std@@V?$allocator@V?$basic_string@DU?$char_traits@D@std@@V?$allocator@D@2@@std@@@2@@std@@@std@@V?$_Vector_val@U?$_Simple_types@V?$vector@V?$basic_string@DU?$char_traits@D@std@@V?$allocator@D@2@@std@@V?$allocator@V?$basic_string@DU?$char_traits@D@std@@V?$allocator@D@2@@std@@@2@@std@@@std@@@2@$00@std@@QEAA@U_Zero_then_variadic_args_t@1@@Z
	??$?0$$V@?$_Compressed_pair@V?$allocator@V?$vector@VPointXYZRAEI32f@sick_scansegment_xd@@V?$allocator@VPointXYZRAEI32f@sick_scansegment_xd@@@std@@@std@@@std@@V?$_Vector_val@U?$_Simple_types@V?$vector@VPointXYZRAEI32f@sick_scansegment_xd@@V?$allocator@VPointXYZRAEI32f@sick_scansegment_xd@@@std@@@std@@@std@@@2@$00@std@@QEAA@U_Zero_then_variadic_args_t@1@@Z
	??$?0$$V@?$_Compressed_pair@V?$allocator@VCompactModuleData@sick_scansegment_xd@@@std@@V?$_Vector_val@U?$_Simple_types@VCompactModuleData@sick_scansegment_xd@@@std@@@2@$00@std@@QEAA@U_Zero_then_variadic_args_t@1@@Z
	??$?0$$V@?$_Compressed_pair@V?$allocator@VCustomPointCloudConfiguration@sick_scansegment_xd@@@std@@V?$_Vector_val@U?$_Simple_types@VCustomPointCloudConfiguration@sick_scansegment_xd@@@std@@@2@$00@std@@QEAA@U_Zero_then_variadic_args_t@1@@Z
	??$?0$$V@?$_Compressed_pair@V?$allocator@VLMPscancfgSector@SickScanParseUtil@sick_scan_xd@@@std@@V?$_Vector_val@U?$_Simple_types@VLMPscancfgSector@SickScanParseUtil@sick_scan_xd@@@std@@@2@$00@std@@QEAA@U_Zero_then_variadic_args_t@1@@Z
	??$?0$$V@?$_Compressed_pair@V?$allocator@VLidarPoint@ScanSegmentParserOutput@sick_scansegment_xd@@@std@@V?$_Vector_val@U?$_Simple_types@VLidarPoint@ScanSegmentParserOutput@sick_scansegment_xd@@@std@@@2@$00@std@@QEAA@U_Zero_then_variadic_args_t@1@@Z
	??$?0$$V@?$_Compressed_pair@V?$allocator@VMsgPack@msgpack11@@@std@@V?$_Vector_val@U?$_Simple_types@VMsgPack@msgpack11@@@std@@@2@$00@std@@QEAA@U_Zero_then_variadic_args_t@1@@Z
	??$?0$$V@?$_Compressed_pair@V?$allocator@VNAV350ImkLandmark@sick_scan_xd@@@std@@V?$_Vector_val@U?$_Simple_types@VNAV350ImkLandmark@sick_scan_xd@@@std@@@2@$00@std@@QEAA@U_Zero_then_variadic_args_t@1@@Z
	??$?0$$V@?$_Compressed_pair@V?$allocator@VNAV350ReflectorData@sick_scan_xd@@@std@@V?$_Vector_val@U?$_Simple_types@VNAV350ReflectorData@sick_scan_xd@@@std@@@2@$00@std@@QEAA@U_Zero_then_variadic_args_t@1@@Z
	??$?0$$V@?$_Compressed_pair@V?$allocator@VNAV350ScanData@sick_scan_xd@@@std@@V?$_Vector_val@U?$_Simple_types@VNAV350ScanData@sick_scan_xd@@@std@@@2@$00@std@@QEAA@U_Zero_then_variadic_args_t@1@@Z
	??$?0$$V@?$_Compressed_pair@V?$allocator@VPointCloudFieldProperty@sick_scansegment_xd@@@std@@V?$_Vector_val@U?$_Simple_types@VPointCloudFieldProperty@sick_scansegment_xd@@@std@@@2@$00@std@@QEAA@U_Zero_then_variadic_args_t@1@@Z
	??$?0$$V@?$_Compressed_pair@V?$allocator@VPointXYZRAEI32f@sick_scansegment_xd@@@std@@V?$_Vector_val@U?$_Simple_types@VPointXYZRAEI32f@sick_scansegment_xd@@@std@@@2@$00@std@@QEAA@U_Zero_then_variadic_args_t@1@@Z
	??$?0$$V@?$_Compressed_pair@V?$allocator@VRadarDatagramField@sick_scan_xd@@@std@@V?$_Vector_val@U?$_Simple_types@VRadarDatagramField@sick_scan_xd@@@std@@@2@$00@std@@QEAA@U_Zero_then_variadic_args_t@1@@Z
	??$?0$$V@?$_Compressed_pair@V?$allocator@VScangroup@ScanSegmentParserOutput@sick_scansegment_xd@@@std@@V?$_Vector_val@U?$_Simple_types@VScangroup@ScanSegmentParserOutput@sick_scansegment_xd@@@std@@@2@$00@std@@QEAA@U_Zero_then_variadic_args_t@1@@Z
	??$?0$$V@?$_Compressed_pair@V?$allocator@VScanline@ScanSegmentParserOutput@sick_scansegment_xd@@@std@@V?$_Vector_val@U?$_Simple_types@VScanline@ScanSegmentParserOutput@sick_scansegment_xd@@@std@@@2@$00@std@@QEAA@U_Zero_then_variadic_args_t@1@@Z
	??$?0$$V@?$_Compressed_pair@V?$allocator@VScannerBasicParam@sick_scan_xd@@@std@@V?$_Vector_val@U?$_Simple_types@VScannerBasicParam@sick_scan_xd@@@std@@@2@$00@std@@QEAA@U_Zero_then_variadic_args_t@1@@Z
	??$?0$$V@?$_Compressed_pair@V?$allocator@VSickScanMonField@sick_scan_xd@@@std@@V?$_Vector_val@U?$_Simple_types@VSickScanMonField@sick_scan_xd@@@std@@@2@$00@std@@QEAA@U_Zero_then_variadic_args_t@1@@Z
	??$?0$$V@?$_Compressed_pair@V?$allocator@VSickScanRadarObject@sick_scan_xd@@@std@@V?$_Vector_val@U?$_Simple_types@VSickScanRadarObject@sick_scan_xd@@@std@@@2@$00@std@@QEAA@U_Zero_then_variadic_args_t@1@@Z
	??$?0$$V@?$_Compressed_pair@V?$allocator@VSickScanRadarRawTarget@sick_scan_xd@@@std@@V?$_Vector_val@U?$_Simple_types@VSickScanRadarRawTarget@sick_scan_xd@@@std@@@2@$00@std@@QEAA@U_Zero_then_variadic_args_t@1@@Z
	??$?0$$V@?$_Compressed_pair@V?$allocator@VparamEntryAscii@@@std@@V?$_Vector_val@U?$_Simple_types@VparamEntryAscii@@@std@@@2@$00@std@@QEAA@U_Zero_then_variadic_args_t@1@@Z
	??$?0$$V@?$_Compressed_pair@V?$allocator@W4ReadBeamAzimOrderEnum@@@std@@V?$_Vector_val@U?$_Simple_types@W4ReadBeamAzimOrderEnum@@@std@@@2@$00@std@@QEAA@U_Zero_then_variadic_args_t@1@@Z
	??$?0$$V@?$_Compressed_pair@V?$allocator@_K@std@@V?$_Vector_val@U?$_Simple_types@_K@std@@@2@$00@std@@QEAA@U_Zero_then_variadic_args_t@1@@Z
	??$?0$$V@?$_Ref_count_obj2@U?$ColaMsgSrvRequest_@V?$allocator@X@std@@@sick_scan_xd@@@std@@QEAA@XZ
	??$?0$$V@?$_Ref_count_obj2@U?$ColaMsgSrvResponse_@V?$allocator@X@std@@@sick_scan_xd@@@std@@QEAA@XZ
	??$?0$$V@?$_Ref_count_obj2@U?$ECRChangeArrSrvRequest_@V?$allocator@X@std@@@sick_scan_xd@@@std@@QEAA@XZ
	??$?0$$V@?$_Ref_count_obj2@U?$ECRChangeArrSrvResponse_@V?$allocator@X@std@@@sick_scan_xd@@@std@@QEAA@XZ
	??$?0$$V@?$_Ref_count_obj2@U?$GetContaminationResultSrvRequest_@V?$allocator@X@std@@@sick_scan_xd@@@std@@QEAA@XZ
	??$?0$$V@?$_Ref_count_obj2@U?$GetContaminationResultSrvResponse_@V?$allocator@X@std@@@sick_scan_xd@@@std@@QEAA@XZ
	??$?0$$V@?$_Ref_count_obj2@U?$LIDoutputstateSrvRequest_@V?$allocator@X@std@@@sick_scan_xd@@@std@@QEAA@XZ
	??$?0$$V@?$_Ref_count_obj2@U?$LIDoutputstateSrvResponse_@V?$allocator@X@std@@@sick_scan_xd@@@std@@QEAA@XZ
	??$?0$$V@?$_Ref_count_obj2@U?$SCdevicestateSrvRequest_@V?$allocator@X@std@@@sick_scan_xd@@@std@@QEAA@XZ
	??$?0$$V@?$_Ref_count_obj2@U?$SCdevicestateSrvResponse_@V?$allocator@X@std@@@sick_scan_xd@@@std@@QEAA@XZ
	??$?0$$V@?$_Ref_count_obj2@U?$SCrebootSrvRequest_@V?$allocator@X@std@@@sick_scan_xd@@@std@@QEAA@XZ
	??$?0$$V@?$_Ref_count_obj2@U?$SCrebootSrvResponse_@V?$allocator@X@std@@@sick_scan_xd@@@std@@QEAA@XZ
	??$?0$$V@?$_Ref_count_obj2@U?$SCsoftresetSrvRequest_@V?$allocator@X@std@@@sick_scan_xd@@@std@@QEAA@XZ
	??$?0$$V@?$_Ref_count_obj2@U?$SCsoftresetSrvResponse_@V?$allocator@X@std@@@sick_scan_xd@@@std@@QEAA@XZ
	??$?0$$V@?$_Ref_count_obj2@U?$SickScanExitSrvRequest_@V?$allocator@X@std@@@sick_scan_xd@@@std@@QEAA@XZ
	??$?0$$V@?$_Ref_count_obj2@U?$SickScanExitSrvResponse_@V?$allocator@X@std@@@sick_scan_xd@@@std@@QEAA@XZ
	??$?0$$V@?$_Ref_count_obj2@VMsgPackNull@msgpack11@@@std@@QEAA@XZ
	??$?0A6A?AVSerializedMessage@roswrap@@AEBU?$Imu_@V?$allocator@X@std@@@sensor_msgs@@@ZV?$reference_wrapper@$$CBU?$Imu_@V?$allocator@X@std@@@sensor_msgs@@@std@@@?$_Compressed_pair@P6A?AVSerializedMessage@roswrap@@AEBU?$Imu_@V?$allocator@X@std@@@sensor_msgs@@@ZV?$tuple@V?$reference_wrapper@$$CBU?$Imu_@V?$allocator@X@std@@@sensor_msgs@@@std@@@std@@$0A@@std@@QEAA@U_One_then_variadic_args_t@1@A6A?AVSerializedMessage@roswrap@@AEBU?$Imu_@V?$allocator@X@std@@@sensor_msgs@@@Z$$QEAV?$reference_wrapper@$$CBU?$Imu_@V?$allocator@X@std@@@sensor_msgs@@@1@@Z
	??$?0A6A?AVSerializedMessage@roswrap@@AEBU?$LFErecMsg_@V?$allocator@X@std@@@sick_scan_xd@@@ZV?$reference_wrapper@$$CBU?$LFErecMsg_@V?$allocator@X@std@@@sick_scan_xd@@@std@@@?$_Compressed_pair@P6A?AVSerializedMessage@roswrap@@AEBU?$LFErecMsg_@V?$allocator@X@std@@@sick_scan_xd@@@ZV?$tuple@V?$reference_wrapper@$$CBU?$LFErecMsg_@V?$allocator@X@std@@@sick_scan_xd@@@std@@@std@@$0A@@std@@QEAA@U_One_then_variadic_args_t@1@A6A?AVSerializedMessage@roswrap@@AEBU?$LFErecMsg_@V?$allocator@X@std@@@sick_scan_xd@@@Z$$QEAV?$reference_wrapper@$$CBU?$LFErecMsg_@V?$allocator@X@std@@@sick_scan_xd@@@1@@Z
	??$?0A6A?AVSerializedMessage@roswrap@@AEBU?$LIDinputstateMsg_@V?$allocator@X@std@@@sick_scan_xd@@@ZV?$reference_wrapper@$$CBU?$LIDinputstateMsg_@V?$allocator@X@std@@@sick_scan_xd@@@std@@@?$_Compressed_pair@P6A?AVSerializedMessage@roswrap@@AEBU?$LIDinputstateMsg_@V?$allocator@X@std@@@sick_scan_xd@@@ZV?$tuple@V?$reference_wrapper@$$CBU?$LIDinputstateMsg_@V?$allocator@X@std@@@sick_scan_xd@@@std@@@std@@$0A@@std@@QEAA@U_One_then_variadic_args_t@1@A6A?AVSerializedMessage@roswrap@@AEBU?$LIDinputstateMsg_@V?$allocator@X@std@@@sick_scan_xd@@@Z$$QEAV?$reference_wrapper@$$CBU?$LIDinputstateMsg_@V?$allocator@X@std@@@sick_scan_xd@@@1@@Z
	??$?0A6A?AVSerializedMessage@roswrap@@AEBU?$LIDoutputstateMsg_@V?$allocator@X@std@@@sick_scan_xd@@@ZV?$reference_wrapper@$$CBU?$LIDoutputstateMsg_@V?$allocator@X@std@@@sick_scan_xd@@@std@@@?$_Compressed_pair@P6A?AVSerializedMessage@roswrap@@AEBU?$LIDoutputstateMsg_@V?$allocator@X@std@@@sick_scan_xd@@@ZV?$tuple@V?$reference_wrapper@$$CBU?$LIDoutputstateMsg_@V?$allocator@X@std@@@sick_scan_xd@@@std@@@std@@$0A@@std@@QEAA@U_One_then_variadic_args_t@1@A6A?AVSerializedMessage@roswrap@@AEBU?$LIDoutputstateMsg_@V?$allocator@X@std@@@sick_scan_xd@@@Z$$QEAV?$reference_wrapper@$$CBU?$LIDoutputstateMsg_@V?$allocator@X@std@@@sick_scan_xd@@@1@@Z
	??$?0A6A?AVSerializedMessage@roswrap@@AEBU?$MarkerArray_@V?$allocator@X@std@@@visualization_msgs@@@ZV?$reference_wrapper@$$CBU?$MarkerArray_@V?$allocator@X@std@@@visualization_msgs@@@std@@@?$_Compressed_pair@P6A?AVSerializedMessage@roswrap@@AEBU?$MarkerArray_@V?$allocator@X@std@@@visualization_msgs@@@ZV?$tuple@V?$reference_wrapper@$$CBU?$MarkerArray_@V?$allocator@X@std@@@visualization_msgs@@@std@@@std@@$0A@@std@@QEAA@U_One_then_variadic_args_t@1@A6A?AVSerializedMessage@roswrap@@AEBU?$MarkerArray_@V?$allocator@X@std@@@visualization_msgs@@@Z$$QEAV?$reference_wrapper@$$CBU?$MarkerArray_@V?$allocator@X@std@@@visualization_msgs@@@1@@Z
	??$?0A6A?AVSerializedMessage@roswrap@@AEBU?$NAVLandmarkData_@V?$allocator@X@std@@@sick_scan_xd@@@ZV?$reference_wrapper@$$CBU?$NAVLandmarkData_@V?$allocator@X@std@@@sick_scan_xd@@@std@@@?$_Compressed_pair@P6A?AVSerializedMessage@roswrap@@AEBU?$NAVLandmarkData_@V?$allocator@X@std@@@sick_scan_xd@@@ZV?$tuple@V?$reference_wrapper@$$CBU?$NAVLandmarkData_@V?$allocator@X@std@@@sick_scan_xd@@@std@@@std@@$0A@@std@@QEAA@U_One_then_variadic_args_t@1@A6A?AVSerializedMessage@roswrap@@AEBU?$NAVLandmarkData_@V?$allocator@X@std@@@sick_scan_xd@@@Z$$QEAV?$reference_wrapper@$$CBU?$NAVLandmarkData_@V?$allocator@X@std@@@sick_scan_xd@@@1@@Z
	??$?0A6A?AVSerializedMessage@roswrap@@AEBU?$NAVPoseData_@V?$allocator@X@std@@@sick_scan_xd@@@ZV?$reference_wrapper@$$CBU?$NAVPoseData_@V?$allocator@X@std@@@sick_scan_xd@@@std@@@?$_Compressed_pair@P6A?AVSerializedMessage@roswrap@@AEBU?$NAVPoseData_@V?$allocator@X@std@@@sick_scan_xd@@@ZV?$tuple@V?$reference_wrapper@$$CBU?$NAVPoseData_@V?$allocator@X@std@@@sick_scan_xd@@@std@@@std@@$0A@@std@@QEAA@U_One_then_variadic_args_t@1@A6A?AVSerializedMessage@roswrap@@AEBU?$NAVPoseData_@V?$allocator@X@std@@@sick_scan_xd@@@Z$$QEAV?$reference_wrapper@$$CBU?$NAVPoseData_@V?$allocator@X@std@@@sick_scan_xd@@@1@@Z
	??$?0A6A?AVSerializedMessage@roswrap@@AEBU?$RadarScan_@V?$allocator@X@std@@@sick_scan_xd@@@ZV?$reference_wrapper@$$CBU?$RadarScan_@V?$allocator@X@std@@@sick_scan_xd@@@std@@@?$_Compressed_pair@P6A?AVSerializedMessage@roswrap@@AEBU?$RadarScan_@V?$allocator@X@std@@@sick_scan_xd@@@ZV?$tuple@V?$reference_wrapper@$$CBU?$RadarScan_@V?$allocator@X@std@@@sick_scan_xd@@@std@@@std@@$0A@@std@@QEAA@U_One_then_variadic_args_t@1@A6A?AVSerializedMessage@roswrap@@AEBU?$RadarScan_@V?$allocator@X@std@@@sick_scan_xd@@@Z$$QEAV?$reference_wrapper@$$CBU?$RadarScan_@V?$allocator@X@std@@@sick_scan_xd@@@1@@Z
	??$?0A6A?AVSerializedMessage@roswrap@@AEBU?$String_@V?$allocator@X@std@@@std_msgs@@@ZV?$reference_wrapper@$$CBU?$String_@V?$allocator@X@std@@@std_msgs@@@std@@@?$_Compressed_pair@P6A?AVSerializedMessage@roswrap@@AEBU?$String_@V?$allocator@X@std@@@std_msgs@@@ZV?$tuple@V?$reference_wrapper@$$CBU?$String_@V?$allocator@X@std@@@std_msgs@@@std@@@std@@$0A@@std@@QEAA@U_One_then_variadic_args_t@1@A6A?AVSerializedMessage@roswrap@@AEBU?$String_@V?$allocator@X@std@@@std_msgs@@@Z$$QEAV?$reference_wrapper@$$CBU?$String_@V?$allocator@X@std@@@std_msgs@@@1@@Z
	??$?0AEAC@?$_Ref_count_obj2@VMsgPackInt8@msgpack11@@@std@@QEAA@AEAC@Z
	??$?0AEAE$$CBV?$vector@EV?$allocator@E@std@@@std@@$0A@@?$tuple@EV?$vector@EV?$allocator@E@std@@@std@@@std@@QEAA@AEAE$$QEBV?$vector@EV?$allocator@E@std@@@1@@Z
	??$?0AEAE@?$_Ref_count_obj2@VMsgPackUint8@msgpack11@@@std@@QEAA@AEAE@Z
	??$?0AEAE@?$_Tuple_val@E@std@@QEAA@AEAE@Z
	??$?0AEAF@?$_Ref_count_obj2@VMsgPackInt16@msgpack11@@@std@@QEAA@AEAF@Z
	??$?0AEAG@?$_Ref_count_obj2@VMsgPackUint16@msgpack11@@@std@@QEAA@AEAG@Z
	??$?0AEAH@?$_Ref_count_obj2@VMsgPackInt32@msgpack11@@@std@@QEAA@AEAH@Z
	??$?0AEAI@?$_Ref_count_obj2@VMsgPackUint32@msgpack11@@@std@@QEAA@AEAI@Z
	??$?0AEAM@?$_Ref_count_obj2@VMsgPackFloat@msgpack11@@@std@@QEAA@AEAM@Z
	??$?0AEAN@?$_Ref_count_obj2@VMsgPackDouble@msgpack11@@@std@@QEAA@AEAN@Z
	??$?0AEAP8SickScanServices@sick_scan_xd@@EAA_NAEAU?$ColaMsgSrvRequest_@V?$allocator@X@std@@@1@AEAU?$ColaMsgSrvResponse_@V?$allocator@X@std@@@1@@ZAEAPEAV01@AEBU?$_Ph@$00@std@@AEBU?$_Ph@$01@5@@?$_Compressed_pair@P8SickScanServices@sick_scan_xd@@EAA_NAEAU?$ColaMsgSrvRequest_@V?$allocator@X@std@@@2@AEAU?$ColaMsgSrvResponse_@V?$allocator@X@std@@@2@@ZV?$tuple@PEAVSickScanServices@sick_scan_xd@@U?$_Ph@$00@std@@U?$_Ph@$01@4@@std@@$0A@@std@@QEAA@U_One_then_variadic_args_t@1@AEAP8SickScanServices@sick_scan_xd@@EAA_NAEAU?$ColaMsgSrvRequest_@V?$allocator@X@std@@@4@AEAU?$ColaMsgSrvResponse_@V?$allocator@X@std@@@4@@ZAEAPEAV34@AEBU?$_Ph@$00@1@AEBU?$_Ph@$01@1@@Z
	??$?0AEAP8SickScanServices@sick_scan_xd@@EAA_NAEAU?$ECRChangeArrSrvRequest_@V?$allocator@X@std@@@1@AEAU?$ECRChangeArrSrvResponse_@V?$allocator@X@std@@@1@@ZAEAPEAV01@AEBU?$_Ph@$00@std@@AEBU?$_Ph@$01@5@@?$_Compressed_pair@P8SickScanServices@sick_scan_xd@@EAA_NAEAU?$ECRChangeArrSrvRequest_@V?$allocator@X@std@@@2@AEAU?$ECRChangeArrSrvResponse_@V?$allocator@X@std@@@2@@ZV?$tuple@PEAVSickScanServices@sick_scan_xd@@U?$_Ph@$00@std@@U?$_Ph@$01@4@@std@@$0A@@std@@QEAA@U_One_then_variadic_args_t@1@AEAP8SickScanServices@sick_scan_xd@@EAA_NAEAU?$ECRChangeArrSrvRequest_@V?$allocator@X@std@@@4@AEAU?$ECRChangeArrSrvResponse_@V?$allocator@X@std@@@4@@ZAEAPEAV34@AEBU?$_Ph@$00@1@AEBU?$_Ph@$01@1@@Z
	??$?0AEAP8SickScanServices@sick_scan_xd@@EAA_NAEAU?$GetContaminationResultSrvRequest_@V?$allocator@X@std@@@1@AEAU?$GetContaminationResultSrvResponse_@V?$allocator@X@std@@@1@@ZAEAPEAV01@AEBU?$_Ph@$00@std@@AEBU?$_Ph@$01@5@@?$_Compressed_pair@P8SickScanServices@sick_scan_xd@@EAA_NAEAU?$GetContaminationResultSrvRequest_@V?$allocator@X@std@@@2@AEAU?$GetContaminationResultSrvResponse_@V?$allocator@X@std@@@2@@ZV?$tuple@PEAVSickScanServices@sick_scan_xd@@U?$_Ph@$00@std@@U?$_Ph@$01@4@@std@@$0A@@std@@QEAA@U_One_then_variadic_args_t@1@AEAP8SickScanServices@sick_scan_xd@@EAA_NAEAU?$GetContaminationResultSrvRequest_@V?$allocator@X@std@@@4@AEAU?$GetContaminationResultSrvResponse_@V?$allocator@X@std@@@4@@ZAEAPEAV34@AEBU?$_Ph@$00@1@AEBU?$_Ph@$01@1@@Z
	??$?0AEAP8SickScanServices@sick_scan_xd@@EAA_NAEAU?$LIDoutputstateSrvRequest_@V?$allocator@X@std@@@1@AEAU?$LIDoutputstateSrvResponse_@V?$allocator@X@std@@@1@@ZAEAPEAV01@AEBU?$_Ph@$00@std@@AEBU?$_Ph@$01@5@@?$_Compressed_pair@P8SickScanServices@sick_scan_xd@@EAA_NAEAU?$LIDoutputstateSrvRequest_@V?$allocator@X@std@@@2@AEAU?$LIDoutputstateSrvResponse_@V?$allocator@X@std@@@2@@ZV?$tuple@PEAVSickScanServices@sick_scan_xd@@U?$_Ph@$00@std@@U?$_Ph@$01@4@@std@@$0A@@std@@QEAA@U_One_then_variadic_args_t@1@AEAP8SickScanServices@sick_scan_xd@@EAA_NAEAU?$LIDoutputstateSrvRequest_@V?$allocator@X@std@@@4@AEAU?$LIDoutputstateSrvResponse_@V?$allocator@X@std@@@4@@ZAEAPEAV34@AEBU?$_Ph@$00@1@AEBU?$_Ph@$01@1@@Z
	??$?0AEAP8SickScanServices@sick_scan_xd@@EAA_NAEAU?$SCdevicestateSrvRequest_@V?$allocator@X@std@@@1@AEAU?$SCdevicestateSrvResponse_@V?$allocator@X@std@@@1@@ZAEAPEAV01@AEBU?$_Ph@$00@std@@AEBU?$_Ph@$01@5@@?$_Compressed_pair@P8SickScanServices@sick_scan_xd@@EAA_NAEAU?$SCdevicestateSrvRequest_@V?$allocator@X@std@@@2@AEAU?$SCdevicestateSrvResponse_@V?$allocator@X@std@@@2@@ZV?$tuple@PEAVSickScanServices@sick_scan_xd@@U?$_Ph@$00@std@@U?$_Ph@$01@4@@std@@$0A@@std@@QEAA@U_One_then_variadic_args_t@1@AEAP8SickScanServices@sick_scan_xd@@EAA_NAEAU?$SCdevicestateSrvRequest_@V?$allocator@X@std@@@4@AEAU?$SCdevicestateSrvResponse_@V?$allocator@X@std@@@4@@ZAEAPEAV34@AEBU?$_Ph@$00@1@AEBU?$_Ph@$01@1@@Z
	??$?0AEAP8SickScanServices@sick_scan_xd@@EAA_NAEAU?$SCrebootSrvRequest_@V?$allocator@X@std@@@1@AEAU?$SCrebootSrvResponse_@V?$allocator@X@std@@@1@@ZAEAPEAV01@AEBU?$_Ph@$00@std@@AEBU?$_Ph@$01@5@@?$_Compressed_pair@P8SickScanServices@sick_scan_xd@@EAA_NAEAU?$SCrebootSrvRequest_@V?$allocator@X@std@@@2@AEAU?$SCrebootSrvResponse_@V?$allocator@X@std@@@2@@ZV?$tuple@PEAVSickScanServices@sick_scan_xd@@U?$_Ph@$00@std@@U?$_Ph@$01@4@@std@@$0A@@std@@QEAA@U_One_then_variadic_args_t@1@AEAP8SickScanServices@sick_scan_xd@@EAA_NAEAU?$SCrebootSrvRequest_@V?$allocator@X@std@@@4@AEAU?$SCrebootSrvResponse_@V?$allocator@X@std@@@4@@ZAEAPEAV34@AEBU?$_Ph@$00@1@AEBU?$_Ph@$01@1@@Z
	??$?0AEAP8SickScanServices@sick_scan_xd@@EAA_NAEAU?$SCsoftresetSrvRequest_@V?$allocator@X@std@@@1@AEAU?$SCsoftresetSrvResponse_@V?$allocator@X@std@@@1@@ZAEAPEAV01@AEBU?$_Ph@$00@std@@AEBU?$_Ph@$01@5@@?$_Compressed_pair@P8SickScanServices@sick_scan_xd@@EAA_NAEAU?$SCsoftresetSrvRequest_@V?$allocator@X@std@@@2@AEAU?$SCsoftresetSrvResponse_@V?$allocator@X@std@@@2@@ZV?$tuple@PEAVSickScanServices@sick_scan_xd@@U?$_Ph@$00@std@@U?$_Ph@$01@4@@std@@$0A@@std@@QEAA@U_One_then_variadic_args_t@1@AEAP8SickScanServices@sick_scan_xd@@EAA_NAEAU?$SCsoftresetSrvRequest_@V?$allocator@X@std@@@4@AEAU?$SCsoftresetSrvResponse_@V?$allocator@X@std@@@4@@ZAEAPEAV34@AEBU?$_Ph@$00@1@AEBU?$_Ph@$01@1@@Z
	??$?0AEAP8SickScanServices@sick_scan_xd@@EAA_NAEAU?$SickScanExitSrvRequest_@V?$allocator@X@std@@@1@AEAU?$SickScanExitSrvResponse_@V?$allocator@X@std@@@1@@ZAEAPEAV01@AEBU?$_Ph@$00@std@@AEBU?$_Ph@$01@5@@?$_Compressed_pair@P8SickScanServices@sick_scan_xd@@EAA_NAEAU?$SickScanExitSrvRequest_@V?$allocator@X@std@@@2@AEAU?$SickScanExitSrvResponse_@V?$allocator@X@std@@@2@@ZV?$tuple@PEAVSickScanServices@sick_scan_xd@@U?$_Ph@$00@std@@U?$_Ph@$01@4@@std@@$0A@@std@@QEAA@U_One_then_variadic_args_t@1@AEAP8SickScanServices@sick_scan_xd@@EAA_NAEAU?$SickScanExitSrvRequest_@V?$allocator@X@std@@@4@AEAU?$SickScanExitSrvResponse_@V?$allocator@X@std@@@4@@ZAEAPEAV34@AEBU?$_Ph@$00@1@AEBU?$_Ph@$01@1@@Z
	??$?0AEAPEAU?$_Tree_node@U?$pair@$$CBVMsgPack@msgpack11@@V12@@std@@PEAX@std@@_N$0A@@?$pair@PEAU?$_Tree_node@U?$pair@$$CBVMsgPack@msgpack11@@V12@@std@@PEAX@std@@_N@std@@QEAA@AEAPEAU?$_Tree_node@U?$pair@$$CBVMsgPack@msgpack11@@V12@@std@@PEAX@1@$$QEA_N@Z
	??$?0AEAPEAV?$tuple@P6APEAXPEAX@ZPEAVThreadWrapperBase@@@std@@@?$_Compressed_pair@U?$default_delete@V?$tuple@P6APEAXPEAX@ZPEAVThreadWrapperBase@@@std@@@std@@PEAV?$tuple@P6APEAXPEAX@ZPEAVThreadWrapperBase@@@2@$00@std@@QEAA@U_Zero_then_variadic_args_t@1@AEAPEAV?$tuple@P6APEAXPEAX@ZPEAVThreadWrapperBase@@@1@@Z
	??$?0AEAPEAV?$tuple@P8GenericLaserCallable@@EAAXXZPEAV1@@std@@@?$_Compressed_pair@U?$default_delete@V?$tuple@P8GenericLaserCallable@@EAAXXZPEAV1@@std@@@std@@PEAV?$tuple@P8GenericLaserCallable@@EAAXXZPEAV1@@2@$00@std@@QEAA@U_Zero_then_variadic_args_t@1@AEAPEAV?$tuple@P8GenericLaserCallable@@EAAXXZPEAV1@@1@@Z
	??$?0AEAPEAV?$tuple@P8MsgPackConverter@sick_scansegment_xd@@EAA_NXZPEAV12@@std@@@?$_Compressed_pair@U?$default_delete@V?$tuple@P8MsgPackConverter@sick_scansegment_xd@@EAA_NXZPEAV12@@std@@@std@@PEAV?$tuple@P8MsgPackConverter@sick_scansegment_xd@@EAA_NXZPEAV12@@2@$00@std@@QEAA@U_Zero_then_variadic_args_t@1@AEAPEAV?$tuple@P8MsgPackConverter@sick_scansegment_xd@@EAA_NXZPEAV12@@1@@Z
	??$?0AEAPEAV?$tuple@P8MsgPackExporter@sick_scansegment_xd@@EAA_NXZPEAV12@@std@@@?$_Compressed_pair@U?$default_delete@V?$tuple@P8MsgPackExporter@sick_scansegment_xd@@EAA_NXZPEAV12@@std@@@std@@PEAV?$tuple@P8MsgPackExporter@sick_scansegment_xd@@EAA_NXZPEAV12@@2@$00@std@@QEAA@U_Zero_then_variadic_args_t@1@AEAPEAV?$tuple@P8MsgPackExporter@sick_scansegment_xd@@EAA_NXZPEAV12@@1@@Z
	??$?0AEAPEAV?$tuple@P8MsgPackThreads@sick_scansegment_xd@@EAA_NXZPEAV12@@std@@@?$_Compressed_pair@U?$default_delete@V?$tuple@P8MsgPackThreads@sick_scansegment_xd@@EAA_NXZPEAV12@@std@@@std@@PEAV?$tuple@P8MsgPackThreads@sick_scansegment_xd@@EAA_NXZPEAV12@@2@$00@std@@QEAA@U_Zero_then_variadic_args_t@1@AEAPEAV?$tuple@P8MsgPackThreads@sick_scansegment_xd@@EAA_NXZPEAV12@@1@@Z
	??$?0AEAPEAV?$tuple@P8UdpReceiver@sick_scansegment_xd@@EAA_NXZPEAV12@@std@@@?$_Compressed_pair@U?$default_delete@V?$tuple@P8UdpReceiver@sick_scansegment_xd@@EAA_NXZPEAV12@@std@@@std@@PEAV?$tuple@P8UdpReceiver@sick_scansegment_xd@@EAA_NXZPEAV12@@2@$00@std@@QEAA@U_Zero_then_variadic_args_t@1@AEAPEAV?$tuple@P8UdpReceiver@sick_scansegment_xd@@EAA_NXZPEAV12@@1@@Z
	??$?0AEAPEAVSickScanServices@sick_scan_xd@@@?$_Tuple_val@PEAVSickScanServices@sick_scan_xd@@@std@@QEAA@AEAPEAVSickScanServices@sick_scan_xd@@@Z
	??$?0AEAPEAVSickScanServices@sick_scan_xd@@AEBU?$_Ph@$00@std@@AEBU?$_Ph@$01@3@$0A@@?$tuple@PEAVSickScanServices@sick_scan_xd@@U?$_Ph@$00@std@@U?$_Ph@$01@4@@std@@QEAA@AEAPEAVSickScanServices@sick_scan_xd@@AEBU?$_Ph@$00@1@AEBU?$_Ph@$01@1@@Z
	??$?0AEAPEAV_Facet_base@std@@@?$_Compressed_pair@U?$default_delete@V_Facet_base@std@@@std@@PEAV_Facet_base@2@$00@std@@QEAA@U_Zero_then_variadic_args_t@1@AEAPEAV_Facet_base@1@@Z
	??$?0AEAPEBD@?$_Ref_count_obj2@VMsgPackString@msgpack11@@@std@@QEAA@AEAPEBD@Z
	??$?0AEAU?$ColaMsgSrvRequest_@V?$allocator@X@std@@@sick_scan_xd@@$0A@@?$tuple@AEAU?$ColaMsgSrvRequest_@V?$allocator@X@std@@@sick_scan_xd@@AEAU?$ColaMsgSrvResponse_@V?$allocator@X@std@@@2@@std@@QEAA@AEAU?$ColaMsgSrvRequest_@V?$allocator@X@std@@@sick_scan_xd@@AEAU?$ColaMsgSrvResponse_@V?$allocator@X@std@@@3@@Z
	??$?0AEAU?$ColaMsgSrvRequest_@V?$allocator@X@std@@@sick_scan_xd@@@?$_Tuple_val@AEAU?$ColaMsgSrvRequest_@V?$allocator@X@std@@@sick_scan_xd@@@std@@QEAA@AEAU?$ColaMsgSrvRequest_@V?$allocator@X@std@@@sick_scan_xd@@@Z
	??$?0AEAU?$ColaMsgSrvResponse_@V?$allocator@X@std@@@sick_scan_xd@@@?$_Tuple_val@AEAU?$ColaMsgSrvResponse_@V?$allocator@X@std@@@sick_scan_xd@@@std@@QEAA@AEAU?$ColaMsgSrvResponse_@V?$allocator@X@std@@@sick_scan_xd@@@Z
	??$?0AEAU?$ECRChangeArrSrvRequest_@V?$allocator@X@std@@@sick_scan_xd@@$0A@@?$tuple@AEAU?$ECRChangeArrSrvRequest_@V?$allocator@X@std@@@sick_scan_xd@@AEAU?$ECRChangeArrSrvResponse_@V?$allocator@X@std@@@2@@std@@QEAA@AEAU?$ECRChangeArrSrvRequest_@V?$allocator@X@std@@@sick_scan_xd@@AEAU?$ECRChangeArrSrvResponse_@V?$allocator@X@std@@@3@@Z
	??$?0AEAU?$ECRChangeArrSrvRequest_@V?$allocator@X@std@@@sick_scan_xd@@@?$_Tuple_val@AEAU?$ECRChangeArrSrvRequest_@V?$allocator@X@std@@@sick_scan_xd@@@std@@QEAA@AEAU?$ECRChangeArrSrvRequest_@V?$allocator@X@std@@@sick_scan_xd@@@Z
	??$?0AEAU?$ECRChangeArrSrvResponse_@V?$allocator@X@std@@@sick_scan_xd@@@?$_Tuple_val@AEAU?$ECRChangeArrSrvResponse_@V?$allocator@X@std@@@sick_scan_xd@@@std@@QEAA@AEAU?$ECRChangeArrSrvResponse_@V?$allocator@X@std@@@sick_scan_xd@@@Z
	??$?0AEAU?$GetContaminationResultSrvRequest_@V?$allocator@X@std@@@sick_scan_xd@@$0A@@?$tuple@AEAU?$GetContaminationResultSrvRequest_@V?$allocator@X@std@@@sick_scan_xd@@AEAU?$GetContaminationResultSrvResponse_@V?$allocator@X@std@@@2@@std@@QEAA@AEAU?$GetContaminationResultSrvRequest_@V?$allocator@X@std@@@sick_scan_xd@@AEAU?$GetContaminationResultSrvResponse_@V?$allocator@X@std@@@3@@Z
	??$?0AEAU?$GetContaminationResultSrvRequest_@V?$allocator@X@std@@@sick_scan_xd@@@?$_Tuple_val@AEAU?$GetContaminationResultSrvRequest_@V?$allocator@X@std@@@sick_scan_xd@@@std@@QEAA@AEAU?$GetContaminationResultSrvRequest_@V?$allocator@X@std@@@sick_scan_xd@@@Z
	??$?0AEAU?$GetContaminationResultSrvResponse_@V?$allocator@X@std@@@sick_scan_xd@@@?$_Tuple_val@AEAU?$GetContaminationResultSrvResponse_@V?$allocator@X@std@@@sick_scan_xd@@@std@@QEAA@AEAU?$GetContaminationResultSrvResponse_@V?$allocator@X@std@@@sick_scan_xd@@@Z
	??$?0AEAU?$LIDoutputstateSrvRequest_@V?$allocator@X@std@@@sick_scan_xd@@$0A@@?$tuple@AEAU?$LIDoutputstateSrvRequest_@V?$allocator@X@std@@@sick_scan_xd@@AEAU?$LIDoutputstateSrvResponse_@V?$allocator@X@std@@@2@@std@@QEAA@AEAU?$LIDoutputstateSrvRequest_@V?$allocator@X@std@@@sick_scan_xd@@AEAU?$LIDoutputstateSrvResponse_@V?$allocator@X@std@@@3@@Z
	??$?0AEAU?$LIDoutputstateSrvRequest_@V?$allocator@X@std@@@sick_scan_xd@@@?$_Tuple_val@AEAU?$LIDoutputstateSrvRequest_@V?$allocator@X@std@@@sick_scan_xd@@@std@@QEAA@AEAU?$LIDoutputstateSrvRequest_@V?$allocator@X@std@@@sick_scan_xd@@@Z
	??$?0AEAU?$LIDoutputstateSrvResponse_@V?$allocator@X@std@@@sick_scan_xd@@@?$_Tuple_val@AEAU?$LIDoutputstateSrvResponse_@V?$allocator@X@std@@@sick_scan_xd@@@std@@QEAA@AEAU?$LIDoutputstateSrvResponse_@V?$allocator@X@std@@@sick_scan_xd@@@Z
	??$?0AEAU?$SCdevicestateSrvRequest_@V?$allocator@X@std@@@sick_scan_xd@@$0A@@?$tuple@AEAU?$SCdevicestateSrvRequest_@V?$allocator@X@std@@@sick_scan_xd@@AEAU?$SCdevicestateSrvResponse_@V?$allocator@X@std@@@2@@std@@QEAA@AEAU?$SCdevicestateSrvRequest_@V?$allocator@X@std@@@sick_scan_xd@@AEAU?$SCdevicestateSrvResponse_@V?$allocator@X@std@@@3@@Z
	??$?0AEAU?$SCdevicestateSrvRequest_@V?$allocator@X@std@@@sick_scan_xd@@@?$_Tuple_val@AEAU?$SCdevicestateSrvRequest_@V?$allocator@X@std@@@sick_scan_xd@@@std@@QEAA@AEAU?$SCdevicestateSrvRequest_@V?$allocator@X@std@@@sick_scan_xd@@@Z
	??$?0AEAU?$SCdevicestateSrvResponse_@V?$allocator@X@std@@@sick_scan_xd@@@?$_Tuple_val@AEAU?$SCdevicestateSrvResponse_@V?$allocator@X@std@@@sick_scan_xd@@@std@@QEAA@AEAU?$SCdevicestateSrvResponse_@V?$allocator@X@std@@@sick_scan_xd@@@Z
	??$?0AEAU?$SCrebootSrvRequest_@V?$allocator@X@std@@@sick_scan_xd@@$0A@@?$tuple@AEAU?$SCrebootSrvRequest_@V?$allocator@X@std@@@sick_scan_xd@@AEAU?$SCrebootSrvResponse_@V?$allocator@X@std@@@2@@std@@QEAA@AEAU?$SCrebootSrvRequest_@V?$allocator@X@std@@@sick_scan_xd@@AEAU?$SCrebootSrvResponse_@V?$allocator@X@std@@@3@@Z
	??$?0AEAU?$SCrebootSrvRequest_@V?$allocator@X@std@@@sick_scan_xd@@@?$_Tuple_val@AEAU?$SCrebootSrvRequest_@V?$allocator@X@std@@@sick_scan_xd@@@std@@QEAA@AEAU?$SCrebootSrvRequest_@V?$allocator@X@std@@@sick_scan_xd@@@Z
	??$?0AEAU?$SCrebootSrvResponse_@V?$allocator@X@std@@@sick_scan_xd@@@?$_Tuple_val@AEAU?$SCrebootSrvResponse_@V?$allocator@X@std@@@sick_scan_xd@@@std@@QEAA@AEAU?$SCrebootSrvResponse_@V?$allocator@X@std@@@sick_scan_xd@@@Z
	??$?0AEAU?$SCsoftresetSrvRequest_@V?$allocator@X@std@@@sick_scan_xd@@$0A@@?$tuple@AEAU?$SCsoftresetSrvRequest_@V?$allocator@X@std@@@sick_scan_xd@@AEAU?$SCsoftresetSrvResponse_@V?$allocator@X@std@@@2@@std@@QEAA@AEAU?$SCsoftresetSrvRequest_@V?$allocator@X@std@@@sick_scan_xd@@AEAU?$SCsoftresetSrvResponse_@V?$allocator@X@std@@@3@@Z
	??$?0AEAU?$SCsoftresetSrvRequest_@V?$allocator@X@std@@@sick_scan_xd@@@?$_Tuple_val@AEAU?$SCsoftresetSrvRequest_@V?$allocator@X@std@@@sick_scan_xd@@@std@@QEAA@AEAU?$SCsoftresetSrvRequest_@V?$allocator@X@std@@@sick_scan_xd@@@Z
	??$?0AEAU?$SCsoftresetSrvResponse_@V?$allocator@X@std@@@sick_scan_xd@@@?$_Tuple_val@AEAU?$SCsoftresetSrvResponse_@V?$allocator@X@std@@@sick_scan_xd@@@std@@QEAA@AEAU?$SCsoftresetSrvResponse_@V?$allocator@X@std@@@sick_scan_xd@@@Z
	??$?0AEAU?$SickScanExitSrvRequest_@V?$allocator@X@std@@@sick_scan_xd@@$0A@@?$tuple@AEAU?$SickScanExitSrvRequest_@V?$allocator@X@std@@@sick_scan_xd@@AEAU?$SickScanExitSrvResponse_@V?$allocator@X@std@@@2@@std@@QEAA@AEAU?$SickScanExitSrvRequest_@V?$allocator@X@std@@@sick_scan_xd@@AEAU?$SickScanExitSrvResponse_@V?$allocator@X@std@@@3@@Z
	??$?0AEAU?$SickScanExitSrvRequest_@V?$allocator@X@std@@@sick_scan_xd@@@?$_Tuple_val@AEAU?$SickScanExitSrvRequest_@V?$allocator@X@std@@@sick_scan_xd@@@std@@QEAA@AEAU?$SickScanExitSrvRequest_@V?$allocator@X@std@@@sick_scan_xd@@@Z
	??$?0AEAU?$SickScanExitSrvResponse_@V?$allocator@X@std@@@sick_scan_xd@@@?$_Tuple_val@AEAU?$SickScanExitSrvResponse_@V?$allocator@X@std@@@sick_scan_xd@@@std@@QEAA@AEAU?$SickScanExitSrvResponse_@V?$allocator@X@std@@@sick_scan_xd@@@Z
	??$?0AEAV?$allocator@D@std@@$$V@?$_Compressed_pair@V?$allocator@D@std@@V?$_String_val@U?$_Simple_types@D@std@@@2@$00@std@@QEAA@U_One_then_variadic_args_t@1@AEAV?$allocator@D@1@@Z
	??$?0AEAY0BE@$$CBDAEAVConfig@sick_scansegment_xd@@@?$_Ref_count_obj2@VRosMsgpackPublisher@sick_scansegment_xd@@@std@@QEAA@AEAY0BE@$$CBDAEAVConfig@sick_scansegment_xd@@@Z
	??$?0AEA_J@?$_Ref_count_obj2@VMsgPackInt64@msgpack11@@@std@@QEAA@AEA_J@Z
	??$?0AEA_K@?$_Ref_count_obj2@VMsgPackUint64@msgpack11@@@std@@QEAA@AEA_K@Z
	??$?0AEA_K@?$_Tuple_val@_K@std@@QEAA@AEA_K@Z
	??$?0AEBE$$Z$$V@?$pair@$$CBEV?$basic_string@DU?$char_traits@D@std@@V?$allocator@D@2@@std@@@std@@QEAA@Upiecewise_construct_t@1@V?$tuple@AEBE@1@V?$tuple@$$V@1@@Z
	??$?0AEBE$0A@@?$tuple@AEBE@std@@QEAA@AEBE@Z
	??$?0AEBE@?$_List_node_emplace_op2@V?$allocator@U?$_List_node@EPEAX@std@@@std@@@std@@QEAA@AEAV?$allocator@U?$_List_node@EPEAX@std@@@1@AEBE@Z
	??$?0AEBE@?$_Tuple_val@AEBE@std@@QEAA@AEBE@Z
	??$?0AEBH$$Z$$V@?$pair@$$CBHH@std@@QEAA@Upiecewise_construct_t@1@V?$tuple@AEBH@1@V?$tuple@$$V@1@@Z
	??$?0AEBH$$Z$$V@?$pair@$$CBHU?$LaserScan_@V?$allocator@X@std@@@sensor_msgs@@@std@@QEAA@Upiecewise_construct_t@1@V?$tuple@AEBH@1@V?$tuple@$$V@1@@Z
	??$?0AEBH$$Z$$V@?$pair@$$CBHV?$map@HHU?$less@H@std@@V?$allocator@U?$pair@$$CBHH@std@@@2@@std@@@std@@QEAA@Upiecewise_construct_t@1@V?$tuple@AEBH@1@V?$tuple@$$V@1@@Z
	??$?0AEBH$$Z$$V@?$pair@$$CBHV?$map@HU?$LaserScan_@V?$allocator@X@std@@@sensor_msgs@@U?$less@H@std@@V?$allocator@U?$pair@$$CBHU?$LaserScan_@V?$allocator@X@std@@@sensor_msgs@@@std@@@4@@std@@@std@@QEAA@Upiecewise_construct_t@1@V?$tuple@AEBH@1@V?$tuple@$$V@1@@Z
	??$?0AEBH$$Z$$V@?$pair@$$CBHV?$map@HV?$map@HHU?$less@H@std@@V?$allocator@U?$pair@$$CBHH@std@@@2@@std@@U?$less@H@2@V?$allocator@U?$pair@$$CBHV?$map@HHU?$less@H@std@@V?$allocator@U?$pair@$$CBHH@std@@@2@@std@@@std@@@2@@std@@@std@@QEAA@Upiecewise_construct_t@1@V?$tuple@AEBH@1@V?$tuple@$$V@1@@Z
	??$?0AEBH$$Z$$V@?$pair@$$CBHV?$map@HV?$map@HV?$map@HHU?$less@H@std@@V?$allocator@U?$pair@$$CBHH@std@@@2@@std@@U?$less@H@2@V?$allocator@U?$pair@$$CBHV?$map@HHU?$less@H@std@@V?$allocator@U?$pair@$$CBHH@std@@@2@@std@@@std@@@2@@std@@U?$less@H@2@V?$allocator@U?$pair@$$CBHV?$map@HV?$map@HHU?$less@H@std@@V?$allocator@U?$pair@$$CBHH@std@@@2@@std@@U?$less@H@2@V?$allocator@U?$pair@$$CBHV?$map@HHU?$less@H@std@@V?$allocator@U?$pair@$$CBHH@std@@@2@@std@@@std@@@2@@std@@@std@@@2@@std@@@std@@QEAA@Upiecewise_construct_t@1@V?$tuple@AEBH@1@V?$tuple@$$V@1@@Z
	??$?0AEBH$$Z$$V@?$pair@$$CBHV?$time_point@Usystem_clock@chrono@std@@V?$duration@_JU?$ratio@$00$0JIJGIA@@std@@@23@@chrono@std@@@std@@QEAA@Upiecewise_construct_t@1@V?$tuple@AEBH@1@V?$tuple@$$V@1@@Z
	??$?0AEBH$$Z$$V@?$pair@$$CBH_K@std@@QEAA@Upiecewise_construct_t@1@V?$tuple@AEBH@1@V?$tuple@$$V@1@@Z
	??$?0AEBH$0A@@?$tuple@AEBH@std@@QEAA@AEBH@Z
	??$?0AEBH@?$_Tuple_val@AEBH@std@@QEAA@AEBH@Z
	??$?0AEBQ6A?AV?$shared_ptr@U?$ColaMsgSrvRequest_@V?$allocator@X@std@@@sick_scan_xd@@@std@@XZ$0A@@?$_Func_impl_no_alloc@P6A?AV?$shared_ptr@U?$ColaMsgSrvRequest_@V?$allocator@X@std@@@sick_scan_xd@@@std@@XZV12@$$V@std@@QEAA@AEBQ6A?AV?$shared_ptr@U?$ColaMsgSrvRequest_@V?$allocator@X@std@@@sick_scan_xd@@@1@XZ@Z
	??$?0AEBQ6A?AV?$shared_ptr@U?$ColaMsgSrvResponse_@V?$allocator@X@std@@@sick_scan_xd@@@std@@XZ$0A@@?$_Func_impl_no_alloc@P6A?AV?$shared_ptr@U?$ColaMsgSrvResponse_@V?$allocator@X@std@@@sick_scan_xd@@@std@@XZV12@$$V@std@@QEAA@AEBQ6A?AV?$shared_ptr@U?$ColaMsgSrvResponse_@V?$allocator@X@std@@@sick_scan_xd@@@1@XZ@Z
	??$?0AEBQ6A?AV?$shared_ptr@U?$ECRChangeArrSrvRequest_@V?$allocator@X@std@@@sick_scan_xd@@@std@@XZ$0A@@?$_Func_impl_no_alloc@P6A?AV?$shared_ptr@U?$ECRChangeArrSrvRequest_@V?$allocator@X@std@@@sick_scan_xd@@@std@@XZV12@$$V@std@@QEAA@AEBQ6A?AV?$shared_ptr@U?$ECRChangeArrSrvRequest_@V?$allocator@X@std@@@sick_scan_xd@@@1@XZ@Z
	??$?0AEBQ6A?AV?$shared_ptr@U?$ECRChangeArrSrvResponse_@V?$allocator@X@std@@@sick_scan_xd@@@std@@XZ$0A@@?$_Func_impl_no_alloc@P6A?AV?$shared_ptr@U?$ECRChangeArrSrvResponse_@V?$allocator@X@std@@@sick_scan_xd@@@std@@XZV12@$$V@std@@QEAA@AEBQ6A?AV?$shared_ptr@U?$ECRChangeArrSrvResponse_@V?$allocator@X@std@@@sick_scan_xd@@@1@XZ@Z
	??$?0AEBQ6A?AV?$shared_ptr@U?$GetContaminationResultSrvRequest_@V?$allocator@X@std@@@sick_scan_xd@@@std@@XZ$0A@@?$_Func_impl_no_alloc@P6A?AV?$shared_ptr@U?$GetContaminationResultSrvRequest_@V?$allocator@X@std@@@sick_scan_xd@@@std@@XZV12@$$V@std@@QEAA@AEBQ6A?AV?$shared_ptr@U?$GetContaminationResultSrvRequest_@V?$allocator@X@std@@@sick_scan_xd@@@1@XZ@Z
	??$?0AEBQ6A?AV?$shared_ptr@U?$GetContaminationResultSrvResponse_@V?$allocator@X@std@@@sick_scan_xd@@@std@@XZ$0A@@?$_Func_impl_no_alloc@P6A?AV?$shared_ptr@U?$GetContaminationResultSrvResponse_@V?$allocator@X@std@@@sick_scan_xd@@@std@@XZV12@$$V@std@@QEAA@AEBQ6A?AV?$shared_ptr@U?$GetContaminationResultSrvResponse_@V?$allocator@X@std@@@sick_scan_xd@@@1@XZ@Z
	??$?0AEBQ6A?AV?$shared_ptr@U?$LIDoutputstateSrvRequest_@V?$allocator@X@std@@@sick_scan_xd@@@std@@XZ$0A@@?$_Func_impl_no_alloc@P6A?AV?$shared_ptr@U?$LIDoutputstateSrvRequest_@V?$allocator@X@std@@@sick_scan_xd@@@std@@XZV12@$$V@std@@QEAA@AEBQ6A?AV?$shared_ptr@U?$LIDoutputstateSrvRequest_@V?$allocator@X@std@@@sick_scan_xd@@@1@XZ@Z
	??$?0AEBQ6A?AV?$shared_ptr@U?$LIDoutputstateSrvResponse_@V?$allocator@X@std@@@sick_scan_xd@@@std@@XZ$0A@@?$_Func_impl_no_alloc@P6A?AV?$shared_ptr@U?$LIDoutputstateSrvResponse_@V?$allocator@X@std@@@sick_scan_xd@@@std@@XZV12@$$V@std@@QEAA@AEBQ6A?AV?$shared_ptr@U?$LIDoutputstateSrvResponse_@V?$allocator@X@std@@@sick_scan_xd@@@1@XZ@Z
	??$?0AEBQ6A?AV?$shared_ptr@U?$SCdevicestateSrvRequest_@V?$allocator@X@std@@@sick_scan_xd@@@std@@XZ$0A@@?$_Func_impl_no_alloc@P6A?AV?$shared_ptr@U?$SCdevicestateSrvRequest_@V?$allocator@X@std@@@sick_scan_xd@@@std@@XZV12@$$V@std@@QEAA@AEBQ6A?AV?$shared_ptr@U?$SCdevicestateSrvRequest_@V?$allocator@X@std@@@sick_scan_xd@@@1@XZ@Z
	??$?0AEBQ6A?AV?$shared_ptr@U?$SCdevicestateSrvResponse_@V?$allocator@X@std@@@sick_scan_xd@@@std@@XZ$0A@@?$_Func_impl_no_alloc@P6A?AV?$shared_ptr@U?$SCdevicestateSrvResponse_@V?$allocator@X@std@@@sick_scan_xd@@@std@@XZV12@$$V@std@@QEAA@AEBQ6A?AV?$shared_ptr@U?$SCdevicestateSrvResponse_@V?$allocator@X@std@@@sick_scan_xd@@@1@XZ@Z
	??$?0AEBQ6A?AV?$shared_ptr@U?$SCrebootSrvRequest_@V?$allocator@X@std@@@sick_scan_xd@@@std@@XZ$0A@@?$_Func_impl_no_alloc@P6A?AV?$shared_ptr@U?$SCrebootSrvRequest_@V?$allocator@X@std@@@sick_scan_xd@@@std@@XZV12@$$V@std@@QEAA@AEBQ6A?AV?$shared_ptr@U?$SCrebootSrvRequest_@V?$allocator@X@std@@@sick_scan_xd@@@1@XZ@Z
	??$?0AEBQ6A?AV?$shared_ptr@U?$SCrebootSrvResponse_@V?$allocator@X@std@@@sick_scan_xd@@@std@@XZ$0A@@?$_Func_impl_no_alloc@P6A?AV?$shared_ptr@U?$SCrebootSrvResponse_@V?$allocator@X@std@@@sick_scan_xd@@@std@@XZV12@$$V@std@@QEAA@AEBQ6A?AV?$shared_ptr@U?$SCrebootSrvResponse_@V?$allocator@X@std@@@sick_scan_xd@@@1@XZ@Z
	??$?0AEBQ6A?AV?$shared_ptr@U?$SCsoftresetSrvRequest_@V?$allocator@X@std@@@sick_scan_xd@@@std@@XZ$0A@@?$_Func_impl_no_alloc@P6A?AV?$shared_ptr@U?$SCsoftresetSrvRequest_@V?$allocator@X@std@@@sick_scan_xd@@@std@@XZV12@$$V@std@@QEAA@AEBQ6A?AV?$shared_ptr@U?$SCsoftresetSrvRequest_@V?$allocator@X@std@@@sick_scan_xd@@@1@XZ@Z
	??$?0AEBQ6A?AV?$shared_ptr@U?$SCsoftresetSrvResponse_@V?$allocator@X@std@@@sick_scan_xd@@@std@@XZ$0A@@?$_Func_impl_no_alloc@P6A?AV?$shared_ptr@U?$SCsoftresetSrvResponse_@V?$allocator@X@std@@@sick_scan_xd@@@std@@XZV12@$$V@std@@QEAA@AEBQ6A?AV?$shared_ptr@U?$SCsoftresetSrvResponse_@V?$allocator@X@std@@@sick_scan_xd@@@1@XZ@Z
	??$?0AEBQ6A?AV?$shared_ptr@U?$SickScanExitSrvRequest_@V?$allocator@X@std@@@sick_scan_xd@@@std@@XZ$0A@@?$_Func_impl_no_alloc@P6A?AV?$shared_ptr@U?$SickScanExitSrvRequest_@V?$allocator@X@std@@@sick_scan_xd@@@std@@XZV12@$$V@std@@QEAA@AEBQ6A?AV?$shared_ptr@U?$SickScanExitSrvRequest_@V?$allocator@X@std@@@sick_scan_xd@@@1@XZ@Z
	??$?0AEBQ6A?AV?$shared_ptr@U?$SickScanExitSrvResponse_@V?$allocator@X@std@@@sick_scan_xd@@@std@@XZ$0A@@?$_Func_impl_no_alloc@P6A?AV?$shared_ptr@U?$SickScanExitSrvResponse_@V?$allocator@X@std@@@sick_scan_xd@@@std@@XZV12@$$V@std@@QEAA@AEBQ6A?AV?$shared_ptr@U?$SickScanExitSrvResponse_@V?$allocator@X@std@@@sick_scan_xd@@@1@XZ@Z
	??$?0AEBQ6AXPEAVNodeHandle@roswrap@@PEBU?$Imu_@V?$allocator@X@std@@@sensor_msgs@@@Z@?$_List_node_emplace_op2@V?$allocator@U?$_List_node@P6AXPEAVNodeHandle@roswrap@@PEBU?$Imu_@V?$allocator@X@std@@@sensor_msgs@@@ZPEAX@std@@@std@@@std@@QEAA@AEAV?$allocator@U?$_List_node@P6AXPEAVNodeHandle@roswrap@@PEBU?$Imu_@V?$allocator@X@std@@@sensor_msgs@@@ZPEAX@std@@@1@AEBQ6AXPEAVNodeHandle@roswrap@@PEBU?$Imu_@V?$allocator@X@std@@@sensor_msgs@@@Z@Z
	??$?0AEBQ6AXPEAVNodeHandle@roswrap@@PEBU?$LFErecMsg_@V?$allocator@X@std@@@sick_scan_xd@@@Z@?$_List_node_emplace_op2@V?$allocator@U?$_List_node@P6AXPEAVNodeHandle@roswrap@@PEBU?$LFErecMsg_@V?$allocator@X@std@@@sick_scan_xd@@@ZPEAX@std@@@std@@@std@@QEAA@AEAV?$allocator@U?$_List_node@P6AXPEAVNodeHandle@roswrap@@PEBU?$LFErecMsg_@V?$allocator@X@std@@@sick_scan_xd@@@ZPEAX@std@@@1@AEBQ6AXPEAVNodeHandle@roswrap@@PEBU?$LFErecMsg_@V?$allocator@X@std@@@sick_scan_xd@@@Z@Z
	??$?0AEBQ6AXPEAVNodeHandle@roswrap@@PEBU?$LIDoutputstateMsg_@V?$allocator@X@std@@@sick_scan_xd@@@Z@?$_List_node_emplace_op2@V?$allocator@U?$_List_node@P6AXPEAVNodeHandle@roswrap@@PEBU?$LIDoutputstateMsg_@V?$allocator@X@std@@@sick_scan_xd@@@ZPEAX@std@@@std@@@std@@QEAA@AEAV?$allocator@U?$_List_node@P6AXPEAVNodeHandle@roswrap@@PEBU?$LIDoutputstateMsg_@V?$allocator@X@std@@@sick_scan_xd@@@ZPEAX@std@@@1@AEBQ6AXPEAVNodeHandle@roswrap@@PEBU?$LIDoutputstateMsg_@V?$allocator@X@std@@@sick_scan_xd@@@Z@Z
	??$?0AEBQ6AXPEAVNodeHandle@roswrap@@PEBU?$MarkerArray_@V?$allocator@X@std@@@visualization_msgs@@@Z@?$_List_node_emplace_op2@V?$allocator@U?$_List_node@P6AXPEAVNodeHandle@roswrap@@PEBU?$MarkerArray_@V?$allocator@X@std@@@visualization_msgs@@@ZPEAX@std@@@std@@@std@@QEAA@AEAV?$allocator@U?$_List_node@P6AXPEAVNodeHandle@roswrap@@PEBU?$MarkerArray_@V?$allocator@X@std@@@visualization_msgs@@@ZPEAX@std@@@1@AEBQ6AXPEAVNodeHandle@roswrap@@PEBU?$MarkerArray_@V?$allocator@X@std@@@visualization_msgs@@@Z@Z
	??$?0AEBQ6AXPEAVNodeHandle@roswrap@@PEBU?$RadarScan_@V?$allocator@X@std@@@sick_scan_xd@@@Z@?$_List_node_emplace_op2@V?$allocator@U?$_List_node@P6AXPEAVNodeHandle@roswrap@@PEBU?$RadarScan_@V?$allocator@X@std@@@sick_scan_xd@@@ZPEAX@std@@@std@@@std@@QEAA@AEAV?$allocator@U?$_List_node@P6AXPEAVNodeHandle@roswrap@@PEBU?$RadarScan_@V?$allocator@X@std@@@sick_scan_xd@@@ZPEAX@std@@@1@AEBQ6AXPEAVNodeHandle@roswrap@@PEBU?$RadarScan_@V?$allocator@X@std@@@sick_scan_xd@@@Z@Z
	??$?0AEBQ6AXPEAVNodeHandle@roswrap@@PEBU?$SickLdmrsObjectArray_@V?$allocator@X@std@@@sick_scan_xd@@@Z@?$_List_node_emplace_op2@V?$allocator@U?$_List_node@P6AXPEAVNodeHandle@roswrap@@PEBU?$SickLdmrsObjectArray_@V?$allocator@X@std@@@sick_scan_xd@@@ZPEAX@std@@@std@@@std@@QEAA@AEAV?$allocator@U?$_List_node@P6AXPEAVNodeHandle@roswrap@@PEBU?$SickLdmrsObjectArray_@V?$allocator@X@std@@@sick_scan_xd@@@ZPEAX@std@@@1@AEBQ6AXPEAVNodeHandle@roswrap@@PEBU?$SickLdmrsObjectArray_@V?$allocator@X@std@@@sick_scan_xd@@@Z@Z
	??$?0AEBQ6AXPEAVNodeHandle@roswrap@@PEBUPointCloud2withEcho@sick_scan_xd@@@Z@?$_List_node_emplace_op2@V?$allocator@U?$_List_node@P6AXPEAVNodeHandle@roswrap@@PEBUPointCloud2withEcho@sick_scan_xd@@@ZPEAX@std@@@std@@@std@@QEAA@AEAV?$allocator@U?$_List_node@P6AXPEAVNodeHandle@roswrap@@PEBUPointCloud2withEcho@sick_scan_xd@@@ZPEAX@std@@@1@AEBQ6AXPEAVNodeHandle@roswrap@@PEBUPointCloud2withEcho@sick_scan_xd@@@Z@Z
	??$?0AEBQ6AXPEAVNodeHandle@roswrap@@PEBVNAV350mNPOSData@sick_scan_xd@@@Z@?$_List_node_emplace_op2@V?$allocator@U?$_List_node@P6AXPEAVNodeHandle@roswrap@@PEBVNAV350mNPOSData@sick_scan_xd@@@ZPEAX@std@@@std@@@std@@QEAA@AEAV?$allocator@U?$_List_node@P6AXPEAVNodeHandle@roswrap@@PEBVNAV350mNPOSData@sick_scan_xd@@@ZPEAX@std@@@1@AEBQ6AXPEAVNodeHandle@roswrap@@PEBVNAV350mNPOSData@sick_scan_xd@@@Z@Z
	??$?0AEBQ6AXPEAXPEBUSickScanDiagnosticMsgType@@@Z@?$_List_node_emplace_op2@V?$allocator@U?$_List_node@P6AXPEAXPEBUSickScanDiagnosticMsgType@@@ZPEAX@std@@@std@@@std@@QEAA@AEAV?$allocator@U?$_List_node@P6AXPEAXPEBUSickScanDiagnosticMsgType@@@ZPEAX@std@@@1@AEBQ6AXPEAXPEBUSickScanDiagnosticMsgType@@@Z@Z
	??$?0AEBQ6AXPEAXPEBUSickScanImuMsgType@@@Z@?$_List_node_emplace_op2@V?$allocator@U?$_List_node@P6AXPEAXPEBUSickScanImuMsgType@@@ZPEAX@std@@@std@@@std@@QEAA@AEAV?$allocator@U?$_List_node@P6AXPEAXPEBUSickScanImuMsgType@@@ZPEAX@std@@@1@AEBQ6AXPEAXPEBUSickScanImuMsgType@@@Z@Z
	??$?0AEBQ6AXPEAXPEBUSickScanLFErecMsgType@@@Z@?$_List_node_emplace_op2@V?$allocator@U?$_List_node@P6AXPEAXPEBUSickScanLFErecMsgType@@@ZPEAX@std@@@std@@@std@@QEAA@AEAV?$allocator@U?$_List_node@P6AXPEAXPEBUSickScanLFErecMsgType@@@ZPEAX@std@@@1@AEBQ6AXPEAXPEBUSickScanLFErecMsgType@@@Z@Z
	??$?0AEBQ6AXPEAXPEBUSickScanLIDoutputstateMsgType@@@Z@?$_List_node_emplace_op2@V?$allocator@U?$_List_node@P6AXPEAXPEBUSickScanLIDoutputstateMsgType@@@ZPEAX@std@@@std@@@std@@QEAA@AEAV?$allocator@U?$_List_node@P6AXPEAXPEBUSickScanLIDoutputstateMsgType@@@ZPEAX@std@@@1@AEBQ6AXPEAXPEBUSickScanLIDoutputstateMsgType@@@Z@Z
	??$?0AEBQ6AXPEAXPEBUSickScanLdmrsObjectArrayType@@@Z@?$_List_node_emplace_op2@V?$allocator@U?$_List_node@P6AXPEAXPEBUSickScanLdmrsObjectArrayType@@@ZPEAX@std@@@std@@@std@@QEAA@AEAV?$allocator@U?$_List_node@P6AXPEAXPEBUSickScanLdmrsObjectArrayType@@@ZPEAX@std@@@1@AEBQ6AXPEAXPEBUSickScanLdmrsObjectArrayType@@@Z@Z
	??$?0AEBQ6AXPEAXPEBUSickScanLogMsgType@@@Z@?$_List_node_emplace_op2@V?$allocator@U?$_List_node@P6AXPEAXPEBUSickScanLogMsgType@@@ZPEAX@std@@@std@@@std@@QEAA@AEAV?$allocator@U?$_List_node@P6AXPEAXPEBUSickScanLogMsgType@@@ZPEAX@std@@@1@AEBQ6AXPEAXPEBUSickScanLogMsgType@@@Z@Z
	??$?0AEBQ6AXPEAXPEBUSickScanNavPoseLandmarkMsgType@@@Z@?$_List_node_emplace_op2@V?$allocator@U?$_List_node@P6AXPEAXPEBUSickScanNavPoseLandmarkMsgType@@@ZPEAX@std@@@std@@@std@@QEAA@AEAV?$allocator@U?$_List_node@P6AXPEAXPEBUSickScanNavPoseLandmarkMsgType@@@ZPEAX@std@@@1@AEBQ6AXPEAXPEBUSickScanNavPoseLandmarkMsgType@@@Z@Z
	??$?0AEBQ6AXPEAXPEBUSickScanPointCloudMsgType@@@Z@?$_List_node_emplace_op2@V?$allocator@U?$_List_node@P6AXPEAXPEBUSickScanPointCloudMsgType@@@ZPEAX@std@@@std@@@std@@QEAA@AEAV?$allocator@U?$_List_node@P6AXPEAXPEBUSickScanPointCloudMsgType@@@ZPEAX@std@@@1@AEBQ6AXPEAXPEBUSickScanPointCloudMsgType@@@Z@Z
	??$?0AEBQ6AXPEAXPEBUSickScanRadarScanType@@@Z@?$_List_node_emplace_op2@V?$allocator@U?$_List_node@P6AXPEAXPEBUSickScanRadarScanType@@@ZPEAX@std@@@std@@@std@@QEAA@AEAV?$allocator@U?$_List_node@P6AXPEAXPEBUSickScanRadarScanType@@@ZPEAX@std@@@1@AEBQ6AXPEAXPEBUSickScanRadarScanType@@@Z@Z
	??$?0AEBQ6AXPEAXPEBUSickScanVisualizationMarkerMsgType@@@Z@?$_List_node_emplace_op2@V?$allocator@U?$_List_node@P6AXPEAXPEBUSickScanVisualizationMarkerMsgType@@@ZPEAX@std@@@std@@@std@@QEAA@AEAV?$allocator@U?$_List_node@P6AXPEAXPEBUSickScanVisualizationMarkerMsgType@@@ZPEAX@std@@@1@AEBQ6AXPEAXPEBUSickScanVisualizationMarkerMsgType@@@Z@Z
	??$?0AEBQEAU?$_Tree_node@U?$pair@$$CBC_N@std@@PEAX@std@@_N$0A@@?$pair@PEAU?$_Tree_node@U?$pair@$$CBC_N@std@@PEAX@std@@_N@std@@QEAA@AEBQEAU?$_Tree_node@U?$pair@$$CBC_N@std@@PEAX@1@$$QEA_N@Z
	??$?0AEBQEAU?$_Tree_node@U?$pair@$$CBEV?$basic_string@DU?$char_traits@D@std@@V?$allocator@D@2@@std@@@std@@PEAX@std@@_N$0A@@?$pair@PEAU?$_Tree_node@U?$pair@$$CBEV?$basic_string@DU?$char_traits@D@std@@V?$allocator@D@2@@std@@@std@@PEAX@std@@_N@std@@QEAA@AEBQEAU?$_Tree_node@U?$pair@$$CBEV?$basic_string@DU?$char_traits@D@std@@V?$allocator@D@2@@std@@@std@@PEAX@1@$$QEA_N@Z
	??$?0AEBQEAU?$_Tree_node@U?$pair@$$CBHH@std@@PEAX@std@@_N$0A@@?$pair@PEAU?$_Tree_node@U?$pair@$$CBHH@std@@PEAX@std@@_N@std@@QEAA@AEBQEAU?$_Tree_node@U?$pair@$$CBHH@std@@PEAX@1@$$QEA_N@Z
	??$?0AEBQEAU?$_Tree_node@U?$pair@$$CBHU?$LaserScan_@V?$allocator@X@std@@@sensor_msgs@@@std@@PEAX@std@@_N$0A@@?$pair@PEAU?$_Tree_node@U?$pair@$$CBHU?$LaserScan_@V?$allocator@X@std@@@sensor_msgs@@@std@@PEAX@std@@_N@std@@QEAA@AEBQEAU?$_Tree_node@U?$pair@$$CBHU?$LaserScan_@V?$allocator@X@std@@@sensor_msgs@@@std@@PEAX@1@$$QEA_N@Z
	??$?0AEBQEAU?$_Tree_node@U?$pair@$$CBHV?$map@HHU?$less@H@std@@V?$allocator@U?$pair@$$CBHH@std@@@2@@std@@@std@@PEAX@std@@_N$0A@@?$pair@PEAU?$_Tree_node@U?$pair@$$CBHV?$map@HHU?$less@H@std@@V?$allocator@U?$pair@$$CBHH@std@@@2@@std@@@std@@PEAX@std@@_N@std@@QEAA@AEBQEAU?$_Tree_node@U?$pair@$$CBHV?$map@HHU?$less@H@std@@V?$allocator@U?$pair@$$CBHH@std@@@2@@std@@@std@@PEAX@1@$$QEA_N@Z
	??$?0AEBQEAU?$_Tree_node@U?$pair@$$CBHV?$map@HU?$LaserScan_@V?$allocator@X@std@@@sensor_msgs@@U?$less@H@std@@V?$allocator@U?$pair@$$CBHU?$LaserScan_@V?$allocator@X@std@@@sensor_msgs@@@std@@@4@@std@@@std@@PEAX@std@@_N$0A@@?$pair@PEAU?$_Tree_node@U?$pair@$$CBHV?$map@HU?$LaserScan_@V?$allocator@X@std@@@sensor_msgs@@U?$less@H@std@@V?$allocator@U?$pair@$$CBHU?$LaserScan_@V?$allocator@X@std@@@sensor_msgs@@@std@@@4@@std@@@std@@PEAX@std@@_N@std@@QEAA@AEBQEAU?$_Tree_node@U?$pair@$$CBHV?$map@HU?$LaserScan_@V?$allocator@X@std@@@sensor_msgs@@U?$less@H@std@@V?$allocator@U?$pair@$$CBHU?$LaserScan_@V?$allocator@X@std@@@sensor_msgs@@@std@@@4@@std@@@std@@PEAX@1@$$QEA_N@Z
	??$?0AEBQEAU?$_Tree_node@U?$pair@$$CBHV?$map@HV?$map@HHU?$less@H@std@@V?$allocator@U?$pair@$$CBHH@std@@@2@@std@@U?$less@H@2@V?$allocator@U?$pair@$$CBHV?$map@HHU?$less@H@std@@V?$allocator@U?$pair@$$CBHH@std@@@2@@std@@@std@@@2@@std@@@std@@PEAX@std@@_N$0A@@?$pair@PEAU?$_Tree_node@U?$pair@$$CBHV?$map@HV?$map@HHU?$less@H@std@@V?$allocator@U?$pair@$$CBHH@std@@@2@@std@@U?$less@H@2@V?$allocator@U?$pair@$$CBHV?$map@HHU?$less@H@std@@V?$allocator@U?$pair@$$CBHH@std@@@2@@std@@@std@@@2@@std@@@std@@PEAX@std@@_N@std@@QEAA@AEBQEAU?$_Tree_node@U?$pair@$$CBHV?$map@HV?$map@HHU?$less@H@std@@V?$allocator@U?$pair@$$CBHH@std@@@2@@std@@U?$less@H@2@V?$allocator@U?$pair@$$CBHV?$map@HHU?$less@H@std@@V?$allocator@U?$pair@$$CBHH@std@@@2@@std@@@std@@@2@@std@@@std@@PEAX@1@$$QEA_N@Z
	??$?0AEBQEAU?$_Tree_node@U?$pair@$$CBHV?$map@HV?$map@HV?$map@HHU?$less@H@std@@V?$allocator@U?$pair@$$CBHH@std@@@2@@std@@U?$less@H@2@V?$allocator@U?$pair@$$CBHV?$map@HHU?$less@H@std@@V?$allocator@U?$pair@$$CBHH@std@@@2@@std@@@std@@@2@@std@@U?$less@H@2@V?$allocator@U?$pair@$$CBHV?$map@HV?$map@HHU?$less@H@std@@V?$allocator@U?$pair@$$CBHH@std@@@2@@std@@U?$less@H@2@V?$allocator@U?$pair@$$CBHV?$map@HHU?$less@H@std@@V?$allocator@U?$pair@$$CBHH@std@@@2@@std@@@std@@@2@@std@@@std@@@2@@std@@@std@@PEAX@std@@_N$0A@@?$pair@PEAU?$_Tree_node@U?$pair@$$CBHV?$map@HV?$map@HV?$map@HHU?$less@H@std@@V?$allocator@U?$pair@$$CBHH@std@@@2@@std@@U?$less@H@2@V?$allocator@U?$pair@$$CBHV?$map@HHU?$less@H@std@@V?$allocator@U?$pair@$$CBHH@std@@@2@@std@@@std@@@2@@std@@U?$less@H@2@V?$allocator@U?$pair@$$CBHV?$map@HV?$map@HHU?$less@H@std@@V?$allocator@U?$pair@$$CBHH@std@@@2@@std@@U?$less@H@2@V?$allocator@U?$pair@$$CBHV?$map@HHU?$less@H@std@@V?$allocator@U?$pair@$$CBHH@std@@@2@@std@@@std@@@2@@std@@@std@@@2@@std@@@std@@PEAX@std@@_N@std@@QEAA@AEBQEAU?$_Tree_node@U?$pair@$$CBHV?$map@HV?$map@HV?$map@HHU?$less@H@std@@V?$allocator@U?$pair@$$CBHH@std@@@2@@std@@U?$less@H@2@V?$allocator@U?$pair@$$CBHV?$map@HHU?$less@H@std@@V?$allocator@U?$pair@$$CBHH@std@@@2@@std@@@std@@@2@@std@@U?$less@H@2@V?$allocator@U?$pair@$$CBHV?$map@HV?$map@HHU?$less@H@std@@V?$allocator@U?$pair@$$CBHH@std@@@2@@std@@U?$less@H@2@V?$allocator@U?$pair@$$CBHV?$map@HHU?$less@H@std@@V?$allocator@U?$pair@$$CBHH@std@@@2@@std@@@std@@@2@@std@@@std@@@2@@std@@@std@@PEAX@1@$$QEA_N@Z
	??$?0AEBQEAU?$_Tree_node@U?$pair@$$CBHV?$time_point@Usystem_clock@chrono@std@@V?$duration@_JU?$ratio@$00$0JIJGIA@@std@@@23@@chrono@std@@@std@@PEAX@std@@_N$0A@@?$pair@PEAU?$_Tree_node@U?$pair@$$CBHV?$time_point@Usystem_clock@chrono@std@@V?$duration@_JU?$ratio@$00$0JIJGIA@@std@@@23@@chrono@std@@@std@@PEAX@std@@_N@std@@QEAA@AEBQEAU?$_Tree_node@U?$pair@$$CBHV?$time_point@Usystem_clock@chrono@std@@V?$duration@_JU?$ratio@$00$0JIJGIA@@std@@@23@@chrono@std@@@std@@PEAX@1@$$QEA_N@Z
	??$?0AEBQEAU?$_Tree_node@U?$pair@$$CBH_K@std@@PEAX@std@@_N$0A@@?$pair@PEAU?$_Tree_node@U?$pair@$$CBH_K@std@@PEAX@std@@_N@std@@QEAA@AEBQEAU?$_Tree_node@U?$pair@$$CBH_K@std@@PEAX@1@$$QEA_N@Z
	??$?0AEBQEAU?$_Tree_node@U?$pair@$$CBV?$basic_string@DU?$char_traits@D@std@@V?$allocator@D@2@@std@@H@std@@PEAX@std@@_N$0A@@?$pair@PEAU?$_Tree_node@U?$pair@$$CBV?$basic_string@DU?$char_traits@D@std@@V?$allocator@D@2@@std@@H@std@@PEAX@std@@_N@std@@QEAA@AEBQEAU?$_Tree_node@U?$pair@$$CBV?$basic_string@DU?$char_traits@D@std@@V?$allocator@D@2@@std@@H@std@@PEAX@1@$$QEA_N@Z
	??$?0AEBQEAU?$_Tree_node@U?$pair@$$CBV?$basic_string@DU?$char_traits@D@std@@V?$allocator@D@2@@std@@V12@@std@@PEAX@std@@_N$0A@@?$pair@PEAU?$_Tree_node@U?$pair@$$CBV?$basic_string@DU?$char_traits@D@std@@V?$allocator@D@2@@std@@V12@@std@@PEAX@std@@_N@std@@QEAA@AEBQEAU?$_Tree_node@U?$pair@$$CBV?$basic_string@DU?$char_traits@D@std@@V?$allocator@D@2@@std@@V12@@std@@PEAX@1@$$QEA_N@Z
	??$?0AEBQEAU?$_Tree_node@U?$pair@$$CBV?$basic_string@DU?$char_traits@D@std@@V?$allocator@D@2@@std@@V?$vector@V?$basic_string@DU?$char_traits@D@std@@V?$allocator@D@2@@std@@V?$allocator@V?$basic_string@DU?$char_traits@D@std@@V?$allocator@D@2@@std@@@2@@2@@std@@PEAX@std@@_N$0A@@?$pair@PEAU?$_Tree_node@U?$pair@$$CBV?$basic_string@DU?$char_traits@D@std@@V?$allocator@D@2@@std@@V?$vector@V?$basic_string@DU?$char_traits@D@std@@V?$allocator@D@2@@std@@V?$allocator@V?$basic_string@DU?$char_traits@D@std@@V?$allocator@D@2@@std@@@2@@2@@std@@PEAX@std@@_N@std@@QEAA@AEBQEAU?$_Tree_node@U?$pair@$$CBV?$basic_string@DU?$char_traits@D@std@@V?$allocator@D@2@@std@@V?$vector@V?$basic_string@DU?$char_traits@D@std@@V?$allocator@D@2@@std@@V?$allocator@V?$basic_string@DU?$char_traits@D@std@@V?$allocator@D@2@@std@@@2@@2@@std@@PEAX@1@$$QEA_N@Z
	??$?0AEBQEAU?$_Tree_node@U?$pair@$$CBV?$basic_string@DU?$char_traits@D@std@@V?$allocator@D@2@@std@@_N@std@@PEAX@std@@_N$0A@@?$pair@PEAU?$_Tree_node@U?$pair@$$CBV?$basic_string@DU?$char_traits@D@std@@V?$allocator@D@2@@std@@_N@std@@PEAX@std@@_N@std@@QEAA@AEBQEAU?$_Tree_node@U?$pair@$$CBV?$basic_string@DU?$char_traits@D@std@@V?$allocator@D@2@@std@@_N@std@@PEAX@1@$$QEA_N@Z
	??$?0AEBQEAU?$_Tree_node@U?$pair@QEAVNodeHandle@roswrap@@V?$list@P6AXPEAVNodeHandle@roswrap@@PEBU?$Imu_@V?$allocator@X@std@@@sensor_msgs@@@ZV?$allocator@P6AXPEAVNodeHandle@roswrap@@PEBU?$Imu_@V?$allocator@X@std@@@sensor_msgs@@@Z@std@@@std@@@std@@PEAX@std@@_N$0A@@?$pair@PEAU?$_Tree_node@U?$pair@QEAVNodeHandle@roswrap@@V?$list@P6AXPEAVNodeHandle@roswrap@@PEBU?$Imu_@V?$allocator@X@std@@@sensor_msgs@@@ZV?$allocator@P6AXPEAVNodeHandle@roswrap@@PEBU?$Imu_@V?$allocator@X@std@@@sensor_msgs@@@Z@std@@@std@@@std@@PEAX@std@@_N@std@@QEAA@AEBQEAU?$_Tree_node@U?$pair@QEAVNodeHandle@roswrap@@V?$list@P6AXPEAVNodeHandle@roswrap@@PEBU?$Imu_@V?$allocator@X@std@@@sensor_msgs@@@ZV?$allocator@P6AXPEAVNodeHandle@roswrap@@PEBU?$Imu_@V?$allocator@X@std@@@sensor_msgs@@@Z@std@@@std@@@std@@PEAX@1@$$QEA_N@Z
	??$?0AEBQEAU?$_Tree_node@U?$pair@QEAVNodeHandle@roswrap@@V?$list@P6AXPEAVNodeHandle@roswrap@@PEBU?$LFErecMsg_@V?$allocator@X@std@@@sick_scan_xd@@@ZV?$allocator@P6AXPEAVNodeHandle@roswrap@@PEBU?$LFErecMsg_@V?$allocator@X@std@@@sick_scan_xd@@@Z@std@@@std@@@std@@PEAX@std@@_N$0A@@?$pair@PEAU?$_Tree_node@U?$pair@QEAVNodeHandle@roswrap@@V?$list@P6AXPEAVNodeHandle@roswrap@@PEBU?$LFErecMsg_@V?$allocator@X@std@@@sick_scan_xd@@@ZV?$allocator@P6AXPEAVNodeHandle@roswrap@@PEBU?$LFErecMsg_@V?$allocator@X@std@@@sick_scan_xd@@@Z@std@@@std@@@std@@PEAX@std@@_N@std@@QEAA@AEBQEAU?$_Tree_node@U?$pair@QEAVNodeHandle@roswrap@@V?$list@P6AXPEAVNodeHandle@roswrap@@PEBU?$LFErecMsg_@V?$allocator@X@std@@@sick_scan_xd@@@ZV?$allocator@P6AXPEAVNodeHandle@roswrap@@PEBU?$LFErecMsg_@V?$allocator@X@std@@@sick_scan_xd@@@Z@std@@@std@@@std@@PEAX@1@$$QEA_N@Z
	??$?0AEBQEAU?$_Tree_node@U?$pair@QEAVNodeHandle@roswrap@@V?$list@P6AXPEAVNodeHandle@roswrap@@PEBU?$LIDoutputstateMsg_@V?$allocator@X@std@@@sick_scan_xd@@@ZV?$allocator@P6AXPEAVNodeHandle@roswrap@@PEBU?$LIDoutputstateMsg_@V?$allocator@X@std@@@sick_scan_xd@@@Z@std@@@std@@@std@@PEAX@std@@_N$0A@@?$pair@PEAU?$_Tree_node@U?$pair@QEAVNodeHandle@roswrap@@V?$list@P6AXPEAVNodeHandle@roswrap@@PEBU?$LIDoutputstateMsg_@V?$allocator@X@std@@@sick_scan_xd@@@ZV?$allocator@P6AXPEAVNodeHandle@roswrap@@PEBU?$LIDoutputstateMsg_@V?$allocator@X@std@@@sick_scan_xd@@@Z@std@@@std@@@std@@PEAX@std@@_N@std@@QEAA@AEBQEAU?$_Tree_node@U?$pair@QEAVNodeHandle@roswrap@@V?$list@P6AXPEAVNodeHandle@roswrap@@PEBU?$LIDoutputstateMsg_@V?$allocator@X@std@@@sick_scan_xd@@@ZV?$allocator@P6AXPEAVNodeHandle@roswrap@@PEBU?$LIDoutputstateMsg_@V?$allocator@X@std@@@sick_scan_xd@@@Z@std@@@std@@@std@@PEAX@1@$$QEA_N@Z
	??$?0AEBQEAU?$_Tree_node@U?$pair@QEAVNodeHandle@roswrap@@V?$list@P6AXPEAVNodeHandle@roswrap@@PEBU?$MarkerArray_@V?$allocator@X@std@@@visualization_msgs@@@ZV?$allocator@P6AXPEAVNodeHandle@roswrap@@PEBU?$MarkerArray_@V?$allocator@X@std@@@visualization_msgs@@@Z@std@@@std@@@std@@PEAX@std@@_N$0A@@?$pair@PEAU?$_Tree_node@U?$pair@QEAVNodeHandle@roswrap@@V?$list@P6AXPEAVNodeHandle@roswrap@@PEBU?$MarkerArray_@V?$allocator@X@std@@@visualization_msgs@@@ZV?$allocator@P6AXPEAVNodeHandle@roswrap@@PEBU?$MarkerArray_@V?$allocator@X@std@@@visualization_msgs@@@Z@std@@@std@@@std@@PEAX@std@@_N@std@@QEAA@AEBQEAU?$_Tree_node@U?$pair@QEAVNodeHandle@roswrap@@V?$list@P6AXPEAVNodeHandle@roswrap@@PEBU?$MarkerArray_@V?$allocator@X@std@@@visualization_msgs@@@ZV?$allocator@P6AXPEAVNodeHandle@roswrap@@PEBU?$MarkerArray_@V?$allocator@X@std@@@visualization_msgs@@@Z@std@@@std@@@std@@PEAX@1@$$QEA_N@Z
	??$?0AEBQEAU?$_Tree_node@U?$pair@QEAVNodeHandle@roswrap@@V?$list@P6AXPEAVNodeHandle@roswrap@@PEBU?$RadarScan_@V?$allocator@X@std@@@sick_scan_xd@@@ZV?$allocator@P6AXPEAVNodeHandle@roswrap@@PEBU?$RadarScan_@V?$allocator@X@std@@@sick_scan_xd@@@Z@std@@@std@@@std@@PEAX@std@@_N$0A@@?$pair@PEAU?$_Tree_node@U?$pair@QEAVNodeHandle@roswrap@@V?$list@P6AXPEAVNodeHandle@roswrap@@PEBU?$RadarScan_@V?$allocator@X@std@@@sick_scan_xd@@@ZV?$allocator@P6AXPEAVNodeHandle@roswrap@@PEBU?$RadarScan_@V?$allocator@X@std@@@sick_scan_xd@@@Z@std@@@std@@@std@@PEAX@std@@_N@std@@QEAA@AEBQEAU?$_Tree_node@U?$pair@QEAVNodeHandle@roswrap@@V?$list@P6AXPEAVNodeHandle@roswrap@@PEBU?$RadarScan_@V?$allocator@X@std@@@sick_scan_xd@@@ZV?$allocator@P6AXPEAVNodeHandle@roswrap@@PEBU?$RadarScan_@V?$allocator@X@std@@@sick_scan_xd@@@Z@std@@@std@@@std@@PEAX@1@$$QEA_N@Z
	??$?0AEBQEAU?$_Tree_node@U?$pair@QEAVNodeHandle@roswrap@@V?$list@P6AXPEAVNodeHandle@roswrap@@PEBU?$SickLdmrsObjectArray_@V?$allocator@X@std@@@sick_scan_xd@@@ZV?$allocator@P6AXPEAVNodeHandle@roswrap@@PEBU?$SickLdmrsObjectArray_@V?$allocator@X@std@@@sick_scan_xd@@@Z@std@@@std@@@std@@PEAX@std@@_N$0A@@?$pair@PEAU?$_Tree_node@U?$pair@QEAVNodeHandle@roswrap@@V?$list@P6AXPEAVNodeHandle@roswrap@@PEBU?$SickLdmrsObjectArray_@V?$allocator@X@std@@@sick_scan_xd@@@ZV?$allocator@P6AXPEAVNodeHandle@roswrap@@PEBU?$SickLdmrsObjectArray_@V?$allocator@X@std@@@sick_scan_xd@@@Z@std@@@std@@@std@@PEAX@std@@_N@std@@QEAA@AEBQEAU?$_Tree_node@U?$pair@QEAVNodeHandle@roswrap@@V?$list@P6AXPEAVNodeHandle@roswrap@@PEBU?$SickLdmrsObjectArray_@V?$allocator@X@std@@@sick_scan_xd@@@ZV?$allocator@P6AXPEAVNodeHandle@roswrap@@PEBU?$SickLdmrsObjectArray_@V?$allocator@X@std@@@sick_scan_xd@@@Z@std@@@std@@@std@@PEAX@1@$$QEA_N@Z
	??$?0AEBQEAU?$_Tree_node@U?$pair@QEAVNodeHandle@roswrap@@V?$list@P6AXPEAVNodeHandle@roswrap@@PEBUPointCloud2withEcho@sick_scan_xd@@@ZV?$allocator@P6AXPEAVNodeHandle@roswrap@@PEBUPointCloud2withEcho@sick_scan_xd@@@Z@std@@@std@@@std@@PEAX@std@@_N$0A@@?$pair@PEAU?$_Tree_node@U?$pair@QEAVNodeHandle@roswrap@@V?$list@P6AXPEAVNodeHandle@roswrap@@PEBUPointCloud2withEcho@sick_scan_xd@@@ZV?$allocator@P6AXPEAVNodeHandle@roswrap@@PEBUPointCloud2withEcho@sick_scan_xd@@@Z@std@@@std@@@std@@PEAX@std@@_N@std@@QEAA@AEBQEAU?$_Tree_node@U?$pair@QEAVNodeHandle@roswrap@@V?$list@P6AXPEAVNodeHandle@roswrap@@PEBUPointCloud2withEcho@sick_scan_xd@@@ZV?$allocator@P6AXPEAVNodeHandle@roswrap@@PEBUPointCloud2withEcho@sick_scan_xd@@@Z@std@@@std@@@std@@PEAX@1@$$QEA_N@Z
	??$?0AEBQEAU?$_Tree_node@U?$pair@QEAVNodeHandle@roswrap@@V?$list@P6AXPEAVNodeHandle@roswrap@@PEBVNAV350mNPOSData@sick_scan_xd@@@ZV?$allocator@P6AXPEAVNodeHandle@roswrap@@PEBVNAV350mNPOSData@sick_scan_xd@@@Z@std@@@std@@@std@@PEAX@std@@_N$0A@@?$pair@PEAU?$_Tree_node@U?$pair@QEAVNodeHandle@roswrap@@V?$list@P6AXPEAVNodeHandle@roswrap@@PEBVNAV350mNPOSData@sick_scan_xd@@@ZV?$allocator@P6AXPEAVNodeHandle@roswrap@@PEBVNAV350mNPOSData@sick_scan_xd@@@Z@std@@@std@@@std@@PEAX@std@@_N@std@@QEAA@AEBQEAU?$_Tree_node@U?$pair@QEAVNodeHandle@roswrap@@V?$list@P6AXPEAVNodeHandle@roswrap@@PEBVNAV350mNPOSData@sick_scan_xd@@@ZV?$allocator@P6AXPEAVNodeHandle@roswrap@@PEBVNAV350mNPOSData@sick_scan_xd@@@Z@std@@@std@@@std@@PEAX@1@$$QEA_N@Z
	??$?0AEBQEAU?$_Tree_node@U?$pair@QEAXV?$basic_string@DU?$char_traits@D@std@@V?$allocator@D@2@@std@@@std@@PEAX@std@@_N$0A@@?$pair@PEAU?$_Tree_node@U?$pair@QEAXV?$basic_string@DU?$char_traits@D@std@@V?$allocator@D@2@@std@@@std@@PEAX@std@@_N@std@@QEAA@AEBQEAU?$_Tree_node@U?$pair@QEAXV?$basic_string@DU?$char_traits@D@std@@V?$allocator@D@2@@std@@@std@@PEAX@1@$$QEA_N@Z
	??$?0AEBQEAU?$_Tree_node@U?$pair@QEAXV?$list@P6AXPEAXPEBUSickScanDiagnosticMsgType@@@ZV?$allocator@P6AXPEAXPEBUSickScanDiagnosticMsgType@@@Z@std@@@std@@@std@@PEAX@std@@_N$0A@@?$pair@PEAU?$_Tree_node@U?$pair@QEAXV?$list@P6AXPEAXPEBUSickScanDiagnosticMsgType@@@ZV?$allocator@P6AXPEAXPEBUSickScanDiagnosticMsgType@@@Z@std@@@std@@@std@@PEAX@std@@_N@std@@QEAA@AEBQEAU?$_Tree_node@U?$pair@QEAXV?$list@P6AXPEAXPEBUSickScanDiagnosticMsgType@@@ZV?$allocator@P6AXPEAXPEBUSickScanDiagnosticMsgType@@@Z@std@@@std@@@std@@PEAX@1@$$QEA_N@Z
	??$?0AEBQEAU?$_Tree_node@U?$pair@QEAXV?$list@P6AXPEAXPEBUSickScanImuMsgType@@@ZV?$allocator@P6AXPEAXPEBUSickScanImuMsgType@@@Z@std@@@std@@@std@@PEAX@std@@_N$0A@@?$pair@PEAU?$_Tree_node@U?$pair@QEAXV?$list@P6AXPEAXPEBUSickScanImuMsgType@@@ZV?$allocator@P6AXPEAXPEBUSickScanImuMsgType@@@Z@std@@@std@@@std@@PEAX@std@@_N@std@@QEAA@AEBQEAU?$_Tree_node@U?$pair@QEAXV?$list@P6AXPEAXPEBUSickScanImuMsgType@@@ZV?$allocator@P6AXPEAXPEBUSickScanImuMsgType@@@Z@std@@@std@@@std@@PEAX@1@$$QEA_N@Z
	??$?0AEBQEAU?$_Tree_node@U?$pair@QEAXV?$list@P6AXPEAXPEBUSickScanLFErecMsgType@@@ZV?$allocator@P6AXPEAXPEBUSickScanLFErecMsgType@@@Z@std@@@std@@@std@@PEAX@std@@_N$0A@@?$pair@PEAU?$_Tree_node@U?$pair@QEAXV?$list@P6AXPEAXPEBUSickScanLFErecMsgType@@@ZV?$allocator@P6AXPEAXPEBUSickScanLFErecMsgType@@@Z@std@@@std@@@std@@PEAX@std@@_N@std@@QEAA@AEBQEAU?$_Tree_node@U?$pair@QEAXV?$list@P6AXPEAXPEBUSickScanLFErecMsgType@@@ZV?$allocator@P6AXPEAXPEBUSickScanLFErecMsgType@@@Z@std@@@std@@@std@@PEAX@1@$$QEA_N@Z
	??$?0AEBQEAU?$_Tree_node@U?$pair@QEAXV?$list@P6AXPEAXPEBUSickScanLIDoutputstateMsgType@@@ZV?$allocator@P6AXPEAXPEBUSickScanLIDoutputstateMsgType@@@Z@std@@@std@@@std@@PEAX@std@@_N$0A@@?$pair@PEAU?$_Tree_node@U?$pair@QEAXV?$list@P6AXPEAXPEBUSickScanLIDoutputstateMsgType@@@ZV?$allocator@P6AXPEAXPEBUSickScanLIDoutputstateMsgType@@@Z@std@@@std@@@std@@PEAX@std@@_N@std@@QEAA@AEBQEAU?$_Tree_node@U?$pair@QEAXV?$list@P6AXPEAXPEBUSickScanLIDoutputstateMsgType@@@ZV?$allocator@P6AXPEAXPEBUSickScanLIDoutputstateMsgType@@@Z@std@@@std@@@std@@PEAX@1@$$QEA_N@Z
	??$?0AEBQEAU?$_Tree_node@U?$pair@QEAXV?$list@P6AXPEAXPEBUSickScanLdmrsObjectArrayType@@@ZV?$allocator@P6AXPEAXPEBUSickScanLdmrsObjectArrayType@@@Z@std@@@std@@@std@@PEAX@std@@_N$0A@@?$pair@PEAU?$_Tree_node@U?$pair@QEAXV?$list@P6AXPEAXPEBUSickScanLdmrsObjectArrayType@@@ZV?$allocator@P6AXPEAXPEBUSickScanLdmrsObjectArrayType@@@Z@std@@@std@@@std@@PEAX@std@@_N@std@@QEAA@AEBQEAU?$_Tree_node@U?$pair@QEAXV?$list@P6AXPEAXPEBUSickScanLdmrsObjectArrayType@@@ZV?$allocator@P6AXPEAXPEBUSickScanLdmrsObjectArrayType@@@Z@std@@@std@@@std@@PEAX@1@$$QEA_N@Z
	??$?0AEBQEAU?$_Tree_node@U?$pair@QEAXV?$list@P6AXPEAXPEBUSickScanLogMsgType@@@ZV?$allocator@P6AXPEAXPEBUSickScanLogMsgType@@@Z@std@@@std@@@std@@PEAX@std@@_N$0A@@?$pair@PEAU?$_Tree_node@U?$pair@QEAXV?$list@P6AXPEAXPEBUSickScanLogMsgType@@@ZV?$allocator@P6AXPEAXPEBUSickScanLogMsgType@@@Z@std@@@std@@@std@@PEAX@std@@_N@std@@QEAA@AEBQEAU?$_Tree_node@U?$pair@QEAXV?$list@P6AXPEAXPEBUSickScanLogMsgType@@@ZV?$allocator@P6AXPEAXPEBUSickScanLogMsgType@@@Z@std@@@std@@@std@@PEAX@1@$$QEA_N@Z
	??$?0AEBQEAU?$_Tree_node@U?$pair@QEAXV?$list@P6AXPEAXPEBUSickScanNavPoseLandmarkMsgType@@@ZV?$allocator@P6AXPEAXPEBUSickScanNavPoseLandmarkMsgType@@@Z@std@@@std@@@std@@PEAX@std@@_N$0A@@?$pair@PEAU?$_Tree_node@U?$pair@QEAXV?$list@P6AXPEAXPEBUSickScanNavPoseLandmarkMsgType@@@ZV?$allocator@P6AXPEAXPEBUSickScanNavPoseLandmarkMsgType@@@Z@std@@@std@@@std@@PEAX@std@@_N@std@@QEAA@AEBQEAU?$_Tree_node@U?$pair@QEAXV?$list@P6AXPEAXPEBUSickScanNavPoseLandmarkMsgType@@@ZV?$allocator@P6AXPEAXPEBUSickScanNavPoseLandmarkMsgType@@@Z@std@@@std@@@std@@PEAX@1@$$QEA_N@Z
	??$?0AEBQEAU?$_Tree_node@U?$pair@QEAXV?$list@P6AXPEAXPEBUSickScanPointCloudMsgType@@@ZV?$allocator@P6AXPEAXPEBUSickScanPointCloudMsgType@@@Z@std@@@std@@@std@@PEAX@std@@_N$0A@@?$pair@PEAU?$_Tree_node@U?$pair@QEAXV?$list@P6AXPEAXPEBUSickScanPointCloudMsgType@@@ZV?$allocator@P6AXPEAXPEBUSickScanPointCloudMsgType@@@Z@std@@@std@@@std@@PEAX@std@@_N@std@@QEAA@AEBQEAU?$_Tree_node@U?$pair@QEAXV?$list@P6AXPEAXPEBUSickScanPointCloudMsgType@@@ZV?$allocator@P6AXPEAXPEBUSickScanPointCloudMsgType@@@Z@std@@@std@@@std@@PEAX@1@$$QEA_N@Z
	??$?0AEBQEAU?$_Tree_node@U?$pair@QEAXV?$list@P6AXPEAXPEBUSickScanRadarScanType@@@ZV?$allocator@P6AXPEAXPEBUSickScanRadarScanType@@@Z@std@@@std@@@std@@PEAX@std@@_N$0A@@?$pair@PEAU?$_Tree_node@U?$pair@QEAXV?$list@P6AXPEAXPEBUSickScanRadarScanType@@@ZV?$allocator@P6AXPEAXPEBUSickScanRadarScanType@@@Z@std@@@std@@@std@@PEAX@std@@_N@std@@QEAA@AEBQEAU?$_Tree_node@U?$pair@QEAXV?$list@P6AXPEAXPEBUSickScanRadarScanType@@@ZV?$allocator@P6AXPEAXPEBUSickScanRadarScanType@@@Z@std@@@std@@@std@@PEAX@1@$$QEA_N@Z
	??$?0AEBQEAU?$_Tree_node@U?$pair@QEAXV?$list@P6AXPEAXPEBUSickScanVisualizationMarkerMsgType@@@ZV?$allocator@P6AXPEAXPEBUSickScanVisualizationMarkerMsgType@@@Z@std@@@std@@@std@@PEAX@std@@_N$0A@@?$pair@PEAU?$_Tree_node@U?$pair@QEAXV?$list@P6AXPEAXPEBUSickScanVisualizationMarkerMsgType@@@ZV?$allocator@P6AXPEAXPEBUSickScanVisualizationMarkerMsgType@@@Z@std@@@std@@@std@@PEAX@std@@_N@std@@QEAA@AEBQEAU?$_Tree_node@U?$pair@QEAXV?$list@P6AXPEAXPEBUSickScanVisualizationMarkerMsgType@@@ZV?$allocator@P6AXPEAXPEBUSickScanVisualizationMarkerMsgType@@@Z@std@@@std@@@std@@PEAX@1@$$QEA_N@Z
	??$?0AEBQEAV?$SickWaitForMessageHandler@PEAVNodeHandle@roswrap@@U?$Imu_@V?$allocator@X@std@@@sensor_msgs@@@sick_scan_xd@@@?$_List_node_emplace_op2@V?$allocator@U?$_List_node@PEAV?$SickWaitForMessageHandler@PEAVNodeHandle@roswrap@@U?$Imu_@V?$allocator@X@std@@@sensor_msgs@@@sick_scan_xd@@PEAX@std@@@std@@@std@@QEAA@AEAV?$allocator@U?$_List_node@PEAV?$SickWaitForMessageHandler@PEAVNodeHandle@roswrap@@U?$Imu_@V?$allocator@X@std@@@sensor_msgs@@@sick_scan_xd@@PEAX@std@@@1@AEBQEAV?$SickWaitForMessageHandler@PEAVNodeHandle@roswrap@@U?$Imu_@V?$allocator@X@std@@@sensor_msgs@@@sick_scan_xd@@@Z
	??$?0AEBQEAV?$SickWaitForMessageHandler@PEAVNodeHandle@roswrap@@U?$LFErecMsg_@V?$allocator@X@std@@@sick_scan_xd@@@sick_scan_xd@@@?$_List_node_emplace_op2@V?$allocator@U?$_List_node@PEAV?$SickWaitForMessageHandler@PEAVNodeHandle@roswrap@@U?$LFErecMsg_@V?$allocator@X@std@@@sick_scan_xd@@@sick_scan_xd@@PEAX@std@@@std@@@std@@QEAA@AEAV?$allocator@U?$_List_node@PEAV?$SickWaitForMessageHandler@PEAVNodeHandle@roswrap@@U?$LFErecMsg_@V?$allocator@X@std@@@sick_scan_xd@@@sick_scan_xd@@PEAX@std@@@1@AEBQEAV?$SickWaitForMessageHandler@PEAVNodeHandle@roswrap@@U?$LFErecMsg_@V?$allocator@X@std@@@sick_scan_xd@@@sick_scan_xd@@@Z
	??$?0AEBQEAV?$SickWaitForMessageHandler@PEAVNodeHandle@roswrap@@U?$LIDoutputstateMsg_@V?$allocator@X@std@@@sick_scan_xd@@@sick_scan_xd@@@?$_List_node_emplace_op2@V?$allocator@U?$_List_node@PEAV?$SickWaitForMessageHandler@PEAVNodeHandle@roswrap@@U?$LIDoutputstateMsg_@V?$allocator@X@std@@@sick_scan_xd@@@sick_scan_xd@@PEAX@std@@@std@@@std@@QEAA@AEAV?$allocator@U?$_List_node@PEAV?$SickWaitForMessageHandler@PEAVNodeHandle@roswrap@@U?$LIDoutputstateMsg_@V?$allocator@X@std@@@sick_scan_xd@@@sick_scan_xd@@PEAX@std@@@1@AEBQEAV?$SickWaitForMessageHandler@PEAVNodeHandle@roswrap@@U?$LIDoutputstateMsg_@V?$allocator@X@std@@@sick_scan_xd@@@sick_scan_xd@@@Z
	??$?0AEBQEAV?$SickWaitForMessageHandler@PEAVNodeHandle@roswrap@@U?$MarkerArray_@V?$allocator@X@std@@@visualization_msgs@@@sick_scan_xd@@@?$_List_node_emplace_op2@V?$allocator@U?$_List_node@PEAV?$SickWaitForMessageHandler@PEAVNodeHandle@roswrap@@U?$MarkerArray_@V?$allocator@X@std@@@visualization_msgs@@@sick_scan_xd@@PEAX@std@@@std@@@std@@QEAA@AEAV?$allocator@U?$_List_node@PEAV?$SickWaitForMessageHandler@PEAVNodeHandle@roswrap@@U?$MarkerArray_@V?$allocator@X@std@@@visualization_msgs@@@sick_scan_xd@@PEAX@std@@@1@AEBQEAV?$SickWaitForMessageHandler@PEAVNodeHandle@roswrap@@U?$MarkerArray_@V?$allocator@X@std@@@visualization_msgs@@@sick_scan_xd@@@Z
	??$?0AEBQEAV?$SickWaitForMessageHandler@PEAVNodeHandle@roswrap@@U?$RadarScan_@V?$allocator@X@std@@@sick_scan_xd@@@sick_scan_xd@@@?$_List_node_emplace_op2@V?$allocator@U?$_List_node@PEAV?$SickWaitForMessageHandler@PEAVNodeHandle@roswrap@@U?$RadarScan_@V?$allocator@X@std@@@sick_scan_xd@@@sick_scan_xd@@PEAX@std@@@std@@@std@@QEAA@AEAV?$allocator@U?$_List_node@PEAV?$SickWaitForMessageHandler@PEAVNodeHandle@roswrap@@U?$RadarScan_@V?$allocator@X@std@@@sick_scan_xd@@@sick_scan_xd@@PEAX@std@@@1@AEBQEAV?$SickWaitForMessageHandler@PEAVNodeHandle@roswrap@@U?$RadarScan_@V?$allocator@X@std@@@sick_scan_xd@@@sick_scan_xd@@@Z
	??$?0AEBQEAV?$SickWaitForMessageHandler@PEAVNodeHandle@roswrap@@U?$SickLdmrsObjectArray_@V?$allocator@X@std@@@sick_scan_xd@@@sick_scan_xd@@@?$_List_node_emplace_op2@V?$allocator@U?$_List_node@PEAV?$SickWaitForMessageHandler@PEAVNodeHandle@roswrap@@U?$SickLdmrsObjectArray_@V?$allocator@X@std@@@sick_scan_xd@@@sick_scan_xd@@PEAX@std@@@std@@@std@@QEAA@AEAV?$allocator@U?$_List_node@PEAV?$SickWaitForMessageHandler@PEAVNodeHandle@roswrap@@U?$SickLdmrsObjectArray_@V?$allocator@X@std@@@sick_scan_xd@@@sick_scan_xd@@PEAX@std@@@1@AEBQEAV?$SickWaitForMessageHandler@PEAVNodeHandle@roswrap@@U?$SickLdmrsObjectArray_@V?$allocator@X@std@@@sick_scan_xd@@@sick_scan_xd@@@Z
	??$?0AEBQEAV?$SickWaitForMessageHandler@PEAVNodeHandle@roswrap@@UPointCloud2withEcho@sick_scan_xd@@@sick_scan_xd@@@?$_List_node_emplace_op2@V?$allocator@U?$_List_node@PEAV?$SickWaitForMessageHandler@PEAVNodeHandle@roswrap@@UPointCloud2withEcho@sick_scan_xd@@@sick_scan_xd@@PEAX@std@@@std@@@std@@QEAA@AEAV?$allocator@U?$_List_node@PEAV?$SickWaitForMessageHandler@PEAVNodeHandle@roswrap@@UPointCloud2withEcho@sick_scan_xd@@@sick_scan_xd@@PEAX@std@@@1@AEBQEAV?$SickWaitForMessageHandler@PEAVNodeHandle@roswrap@@UPointCloud2withEcho@sick_scan_xd@@@sick_scan_xd@@@Z
	??$?0AEBQEAV?$SickWaitForMessageHandler@PEAVNodeHandle@roswrap@@VNAV350mNPOSData@sick_scan_xd@@@sick_scan_xd@@@?$_List_node_emplace_op2@V?$allocator@U?$_List_node@PEAV?$SickWaitForMessageHandler@PEAVNodeHandle@roswrap@@VNAV350mNPOSData@sick_scan_xd@@@sick_scan_xd@@PEAX@std@@@std@@@std@@QEAA@AEAV?$allocator@U?$_List_node@PEAV?$SickWaitForMessageHandler@PEAVNodeHandle@roswrap@@VNAV350mNPOSData@sick_scan_xd@@@sick_scan_xd@@PEAX@std@@@1@AEBQEAV?$SickWaitForMessageHandler@PEAVNodeHandle@roswrap@@VNAV350mNPOSData@sick_scan_xd@@@sick_scan_xd@@@Z
	??$?0AEBQEAVMsgPackExportListenerIF@sick_scansegment_xd@@@?$_List_node_emplace_op2@V?$allocator@U?$_List_node@PEAVMsgPackExportListenerIF@sick_scansegment_xd@@PEAX@std@@@std@@@std@@QEAA@AEAV?$allocator@U?$_List_node@PEAVMsgPackExportListenerIF@sick_scansegment_xd@@PEAX@std@@@1@AEBQEAVMsgPackExportListenerIF@sick_scansegment_xd@@@Z
	??$?0AEBQEAVNodeHandle@roswrap@@$$Z$$V@?$pair@QEAVNodeHandle@roswrap@@V?$list@P6AXPEAVNodeHandle@roswrap@@PEBU?$Imu_@V?$allocator@X@std@@@sensor_msgs@@@ZV?$allocator@P6AXPEAVNodeHandle@roswrap@@PEBU?$Imu_@V?$allocator@X@std@@@sensor_msgs@@@Z@std@@@std@@@std@@QEAA@Upiecewise_construct_t@1@V?$tuple@AEBQEAVNodeHandle@roswrap@@@1@V?$tuple@$$V@1@@Z
	??$?0AEBQEAVNodeHandle@roswrap@@$$Z$$V@?$pair@QEAVNodeHandle@roswrap@@V?$list@P6AXPEAVNodeHandle@roswrap@@PEBU?$LFErecMsg_@V?$allocator@X@std@@@sick_scan_xd@@@ZV?$allocator@P6AXPEAVNodeHandle@roswrap@@PEBU?$LFErecMsg_@V?$allocator@X@std@@@sick_scan_xd@@@Z@std@@@std@@@std@@QEAA@Upiecewise_construct_t@1@V?$tuple@AEBQEAVNodeHandle@roswrap@@@1@V?$tuple@$$V@1@@Z
	??$?0AEBQEAVNodeHandle@roswrap@@$$Z$$V@?$pair@QEAVNodeHandle@roswrap@@V?$list@P6AXPEAVNodeHandle@roswrap@@PEBU?$LIDoutputstateMsg_@V?$allocator@X@std@@@sick_scan_xd@@@ZV?$allocator@P6AXPEAVNodeHandle@roswrap@@PEBU?$LIDoutputstateMsg_@V?$allocator@X@std@@@sick_scan_xd@@@Z@std@@@std@@@std@@QEAA@Upiecewise_construct_t@1@V?$tuple@AEBQEAVNodeHandle@roswrap@@@1@V?$tuple@$$V@1@@Z
	??$?0AEBQEAVNodeHandle@roswrap@@$$Z$$V@?$pair@QEAVNodeHandle@roswrap@@V?$list@P6AXPEAVNodeHandle@roswrap@@PEBU?$MarkerArray_@V?$allocator@X@std@@@visualization_msgs@@@ZV?$allocator@P6AXPEAVNodeHandle@roswrap@@PEBU?$MarkerArray_@V?$allocator@X@std@@@visualization_msgs@@@Z@std@@@std@@@std@@QEAA@Upiecewise_construct_t@1@V?$tuple@AEBQEAVNodeHandle@roswrap@@@1@V?$tuple@$$V@1@@Z
	??$?0AEBQEAVNodeHandle@roswrap@@$$Z$$V@?$pair@QEAVNodeHandle@roswrap@@V?$list@P6AXPEAVNodeHandle@roswrap@@PEBU?$RadarScan_@V?$allocator@X@std@@@sick_scan_xd@@@ZV?$allocator@P6AXPEAVNodeHandle@roswrap@@PEBU?$RadarScan_@V?$allocator@X@std@@@sick_scan_xd@@@Z@std@@@std@@@std@@QEAA@Upiecewise_construct_t@1@V?$tuple@AEBQEAVNodeHandle@roswrap@@@1@V?$tuple@$$V@1@@Z
	??$?0AEBQEAVNodeHandle@roswrap@@$$Z$$V@?$pair@QEAVNodeHandle@roswrap@@V?$list@P6AXPEAVNodeHandle@roswrap@@PEBU?$SickLdmrsObjectArray_@V?$allocator@X@std@@@sick_scan_xd@@@ZV?$allocator@P6AXPEAVNodeHandle@roswrap@@PEBU?$SickLdmrsObjectArray_@V?$allocator@X@std@@@sick_scan_xd@@@Z@std@@@std@@@std@@QEAA@Upiecewise_construct_t@1@V?$tuple@AEBQEAVNodeHandle@roswrap@@@1@V?$tuple@$$V@1@@Z
	??$?0AEBQEAVNodeHandle@roswrap@@$$Z$$V@?$pair@QEAVNodeHandle@roswrap@@V?$list@P6AXPEAVNodeHandle@roswrap@@PEBUPointCloud2withEcho@sick_scan_xd@@@ZV?$allocator@P6AXPEAVNodeHandle@roswrap@@PEBUPointCloud2withEcho@sick_scan_xd@@@Z@std@@@std@@@std@@QEAA@Upiecewise_construct_t@1@V?$tuple@AEBQEAVNodeHandle@roswrap@@@1@V?$tuple@$$V@1@@Z
	??$?0AEBQEAVNodeHandle@roswrap@@$$Z$$V@?$pair@QEAVNodeHandle@roswrap@@V?$list@P6AXPEAVNodeHandle@roswrap@@PEBVNAV350mNPOSData@sick_scan_xd@@@ZV?$allocator@P6AXPEAVNodeHandle@roswrap@@PEBVNAV350mNPOSData@sick_scan_xd@@@Z@std@@@std@@@std@@QEAA@Upiecewise_construct_t@1@V?$tuple@AEBQEAVNodeHandle@roswrap@@@1@V?$tuple@$$V@1@@Z
	??$?0AEBQEAVNodeHandle@roswrap@@$0A@@?$tuple@AEBQEAVNodeHandle@roswrap@@@std@@QEAA@AEBQEAVNodeHandle@roswrap@@@Z
	??$?0AEBQEAVNodeHandle@roswrap@@@?$_Tuple_val@AEBQEAVNodeHandle@roswrap@@@std@@QEAA@AEBQEAVNodeHandle@roswrap@@@Z
	??$?0AEBQEAX$$Z$$V@?$pair@QEAXV?$basic_string@DU?$char_traits@D@std@@V?$allocator@D@2@@std@@@std@@QEAA@Upiecewise_construct_t@1@V?$tuple@AEBQEAX@1@V?$tuple@$$V@1@@Z
	??$?0AEBQEAX$$Z$$V@?$pair@QEAXV?$list@P6AXPEAXPEBUSickScanDiagnosticMsgType@@@ZV?$allocator@P6AXPEAXPEBUSickScanDiagnosticMsgType@@@Z@std@@@std@@@std@@QEAA@Upiecewise_construct_t@1@V?$tuple@AEBQEAX@1@V?$tuple@$$V@1@@Z
	??$?0AEBQEAX$$Z$$V@?$pair@QEAXV?$list@P6AXPEAXPEBUSickScanImuMsgType@@@ZV?$allocator@P6AXPEAXPEBUSickScanImuMsgType@@@Z@std@@@std@@@std@@QEAA@Upiecewise_construct_t@1@V?$tuple@AEBQEAX@1@V?$tuple@$$V@1@@Z
	??$?0AEBQEAX$$Z$$V@?$pair@QEAXV?$list@P6AXPEAXPEBUSickScanLFErecMsgType@@@ZV?$allocator@P6AXPEAXPEBUSickScanLFErecMsgType@@@Z@std@@@std@@@std@@QEAA@Upiecewise_construct_t@1@V?$tuple@AEBQEAX@1@V?$tuple@$$V@1@@Z
	??$?0AEBQEAX$$Z$$V@?$pair@QEAXV?$list@P6AXPEAXPEBUSickScanLIDoutputstateMsgType@@@ZV?$allocator@P6AXPEAXPEBUSickScanLIDoutputstateMsgType@@@Z@std@@@std@@@std@@QEAA@Upiecewise_construct_t@1@V?$tuple@AEBQEAX@1@V?$tuple@$$V@1@@Z
	??$?0AEBQEAX$$Z$$V@?$pair@QEAXV?$list@P6AXPEAXPEBUSickScanLdmrsObjectArrayType@@@ZV?$allocator@P6AXPEAXPEBUSickScanLdmrsObjectArrayType@@@Z@std@@@std@@@std@@QEAA@Upiecewise_construct_t@1@V?$tuple@AEBQEAX@1@V?$tuple@$$V@1@@Z
	??$?0AEBQEAX$$Z$$V@?$pair@QEAXV?$list@P6AXPEAXPEBUSickScanLogMsgType@@@ZV?$allocator@P6AXPEAXPEBUSickScanLogMsgType@@@Z@std@@@std@@@std@@QEAA@Upiecewise_construct_t@1@V?$tuple@AEBQEAX@1@V?$tuple@$$V@1@@Z
	??$?0AEBQEAX$$Z$$V@?$pair@QEAXV?$list@P6AXPEAXPEBUSickScanNavPoseLandmarkMsgType@@@ZV?$allocator@P6AXPEAXPEBUSickScanNavPoseLandmarkMsgType@@@Z@std@@@std@@@std@@QEAA@Upiecewise_construct_t@1@V?$tuple@AEBQEAX@1@V?$tuple@$$V@1@@Z
	??$?0AEBQEAX$$Z$$V@?$pair@QEAXV?$list@P6AXPEAXPEBUSickScanPointCloudMsgType@@@ZV?$allocator@P6AXPEAXPEBUSickScanPointCloudMsgType@@@Z@std@@@std@@@std@@QEAA@Upiecewise_construct_t@1@V?$tuple@AEBQEAX@1@V?$tuple@$$V@1@@Z
	??$?0AEBQEAX$$Z$$V@?$pair@QEAXV?$list@P6AXPEAXPEBUSickScanRadarScanType@@@ZV?$allocator@P6AXPEAXPEBUSickScanRadarScanType@@@Z@std@@@std@@@std@@QEAA@Upiecewise_construct_t@1@V?$tuple@AEBQEAX@1@V?$tuple@$$V@1@@Z
	??$?0AEBQEAX$$Z$$V@?$pair@QEAXV?$list@P6AXPEAXPEBUSickScanVisualizationMarkerMsgType@@@ZV?$allocator@P6AXPEAXPEBUSickScanVisualizationMarkerMsgType@@@Z@std@@@std@@@std@@QEAA@Upiecewise_construct_t@1@V?$tuple@AEBQEAX@1@V?$tuple@$$V@1@@Z
	??$?0AEBQEAX$0A@@?$tuple@AEBQEAX@std@@QEAA@AEBQEAX@Z
	??$?0AEBQEAX@?$_Tuple_val@AEBQEAX@std@@QEAA@AEBQEAX@Z
	??$?0AEBU?$Imu_@V?$allocator@X@std@@@sensor_msgs@@$0A@@?$reference_wrapper@$$CBU?$Imu_@V?$allocator@X@std@@@sensor_msgs@@@std@@QEAA@AEBU?$Imu_@V?$allocator@X@std@@@sensor_msgs@@@Z
	??$?0AEBU?$LFErecMsg_@V?$allocator@X@std@@@sick_scan_xd@@$0A@@?$reference_wrapper@$$CBU?$LFErecMsg_@V?$allocator@X@std@@@sick_scan_xd@@@std@@QEAA@AEBU?$LFErecMsg_@V?$allocator@X@std@@@sick_scan_xd@@@Z
	??$?0AEBU?$LIDinputstateMsg_@V?$allocator@X@std@@@sick_scan_xd@@$0A@@?$reference_wrapper@$$CBU?$LIDinputstateMsg_@V?$allocator@X@std@@@sick_scan_xd@@@std@@QEAA@AEBU?$LIDinputstateMsg_@V?$allocator@X@std@@@sick_scan_xd@@@Z
	??$?0AEBU?$LIDoutputstateMsg_@V?$allocator@X@std@@@sick_scan_xd@@$0A@@?$reference_wrapper@$$CBU?$LIDoutputstateMsg_@V?$allocator@X@std@@@sick_scan_xd@@@std@@QEAA@AEBU?$LIDoutputstateMsg_@V?$allocator@X@std@@@sick_scan_xd@@@Z
	??$?0AEBU?$MarkerArray_@V?$allocator@X@std@@@visualization_msgs@@$0A@@?$reference_wrapper@$$CBU?$MarkerArray_@V?$allocator@X@std@@@visualization_msgs@@@std@@QEAA@AEBU?$MarkerArray_@V?$allocator@X@std@@@visualization_msgs@@@Z
	??$?0AEBU?$NAVLandmarkData_@V?$allocator@X@std@@@sick_scan_xd@@$0A@@?$reference_wrapper@$$CBU?$NAVLandmarkData_@V?$allocator@X@std@@@sick_scan_xd@@@std@@QEAA@AEBU?$NAVLandmarkData_@V?$allocator@X@std@@@sick_scan_xd@@@Z
	??$?0AEBU?$NAVPoseData_@V?$allocator@X@std@@@sick_scan_xd@@$0A@@?$reference_wrapper@$$CBU?$NAVPoseData_@V?$allocator@X@std@@@sick_scan_xd@@@std@@QEAA@AEBU?$NAVPoseData_@V?$allocator@X@std@@@sick_scan_xd@@@Z
	??$?0AEBU?$RadarScan_@V?$allocator@X@std@@@sick_scan_xd@@$0A@@?$reference_wrapper@$$CBU?$RadarScan_@V?$allocator@X@std@@@sick_scan_xd@@@std@@QEAA@AEBU?$RadarScan_@V?$allocator@X@std@@@sick_scan_xd@@@Z
	??$?0AEBU?$String_@V?$allocator@X@std@@@std_msgs@@$0A@@?$reference_wrapper@$$CBU?$String_@V?$allocator@X@std@@@std_msgs@@@std@@QEAA@AEBU?$String_@V?$allocator@X@std@@@std_msgs@@@Z
	??$?0AEBU?$_Ph@$00@std@@@?$_Tuple_val@U?$_Ph@$00@std@@@std@@QEAA@AEBU?$_Ph@$00@1@@Z
	??$?0AEBU?$_Ph@$01@std@@@?$_Tuple_val@U?$_Ph@$01@std@@@std@@QEAA@AEBU?$_Ph@$01@1@@Z
	??$?0AEBU?$less@C@std@@U_Zero_then_variadic_args_t@1@@?$_Compressed_pair@U?$less@C@std@@V?$_Compressed_pair@V?$allocator@U?$_Tree_node@U?$pair@$$CBC_N@std@@PEAX@std@@@std@@V?$_Tree_val@U?$_Tree_simple_types@U?$pair@$$CBC_N@std@@@std@@@2@$00@2@$00@std@@QEAA@U_One_then_variadic_args_t@1@AEBU?$less@C@1@$$QEAU_Zero_then_variadic_args_t@1@@Z
	??$?0AEBU?$less@E@std@@U_Zero_then_variadic_args_t@1@@?$_Compressed_pair@U?$less@E@std@@V?$_Compressed_pair@V?$allocator@U?$_Tree_node@U?$pair@$$CBEV?$basic_string@DU?$char_traits@D@std@@V?$allocator@D@2@@std@@@std@@PEAX@std@@@std@@V?$_Tree_val@U?$_Tree_simple_types@U?$pair@$$CBEV?$basic_string@DU?$char_traits@D@std@@V?$allocator@D@2@@std@@@std@@@std@@@2@$00@2@$00@std@@QEAA@U_One_then_variadic_args_t@1@AEBU?$less@E@1@$$QEAU_Zero_then_variadic_args_t@1@@Z
	??$?0AEBU?$less@H@std@@U_Zero_then_variadic_args_t@1@@?$_Compressed_pair@U?$less@H@std@@V?$_Compressed_pair@V?$allocator@U?$_Tree_node@U?$pair@$$CBHH@std@@PEAX@std@@@std@@V?$_Tree_val@U?$_Tree_simple_types@U?$pair@$$CBHH@std@@@std@@@2@$00@2@$00@std@@QEAA@U_One_then_variadic_args_t@1@AEBU?$less@H@1@$$QEAU_Zero_then_variadic_args_t@1@@Z
	??$?0AEBU?$less@H@std@@U_Zero_then_variadic_args_t@1@@?$_Compressed_pair@U?$less@H@std@@V?$_Compressed_pair@V?$allocator@U?$_Tree_node@U?$pair@$$CBHU?$LaserScan_@V?$allocator@X@std@@@sensor_msgs@@@std@@PEAX@std@@@std@@V?$_Tree_val@U?$_Tree_simple_types@U?$pair@$$CBHU?$LaserScan_@V?$allocator@X@std@@@sensor_msgs@@@std@@@std@@@2@$00@2@$00@std@@QEAA@U_One_then_variadic_args_t@1@AEBU?$less@H@1@$$QEAU_Zero_then_variadic_args_t@1@@Z
	??$?0AEBU?$less@H@std@@U_Zero_then_variadic_args_t@1@@?$_Compressed_pair@U?$less@H@std@@V?$_Compressed_pair@V?$allocator@U?$_Tree_node@U?$pair@$$CBHV?$map@HHU?$less@H@std@@V?$allocator@U?$pair@$$CBHH@std@@@2@@std@@@std@@PEAX@std@@@std@@V?$_Tree_val@U?$_Tree_simple_types@U?$pair@$$CBHV?$map@HHU?$less@H@std@@V?$allocator@U?$pair@$$CBHH@std@@@2@@std@@@std@@@std@@@2@$00@2@$00@std@@QEAA@U_One_then_variadic_args_t@1@AEBU?$less@H@1@$$QEAU_Zero_then_variadic_args_t@1@@Z
	??$?0AEBU?$less@H@std@@U_Zero_then_variadic_args_t@1@@?$_Compressed_pair@U?$less@H@std@@V?$_Compressed_pair@V?$allocator@U?$_Tree_node@U?$pair@$$CBHV?$map@HU?$LaserScan_@V?$allocator@X@std@@@sensor_msgs@@U?$less@H@std@@V?$allocator@U?$pair@$$CBHU?$LaserScan_@V?$allocator@X@std@@@sensor_msgs@@@std@@@4@@std@@@std@@PEAX@std@@@std@@V?$_Tree_val@U?$_Tree_simple_types@U?$pair@$$CBHV?$map@HU?$LaserScan_@V?$allocator@X@std@@@sensor_msgs@@U?$less@H@std@@V?$allocator@U?$pair@$$CBHU?$LaserScan_@V?$allocator@X@std@@@sensor_msgs@@@std@@@4@@std@@@std@@@std@@@2@$00@2@$00@std@@QEAA@U_One_then_variadic_args_t@1@AEBU?$less@H@1@$$QEAU_Zero_then_variadic_args_t@1@@Z
	??$?0AEBU?$less@H@std@@U_Zero_then_variadic_args_t@1@@?$_Compressed_pair@U?$less@H@std@@V?$_Compressed_pair@V?$allocator@U?$_Tree_node@U?$pair@$$CBHV?$map@HV?$map@HHU?$less@H@std@@V?$allocator@U?$pair@$$CBHH@std@@@2@@std@@U?$less@H@2@V?$allocator@U?$pair@$$CBHV?$map@HHU?$less@H@std@@V?$allocator@U?$pair@$$CBHH@std@@@2@@std@@@std@@@2@@std@@@std@@PEAX@std@@@std@@V?$_Tree_val@U?$_Tree_simple_types@U?$pair@$$CBHV?$map@HV?$map@HHU?$less@H@std@@V?$allocator@U?$pair@$$CBHH@std@@@2@@std@@U?$less@H@2@V?$allocator@U?$pair@$$CBHV?$map@HHU?$less@H@std@@V?$allocator@U?$pair@$$CBHH@std@@@2@@std@@@std@@@2@@std@@@std@@@std@@@2@$00@2@$00@std@@QEAA@U_One_then_variadic_args_t@1@AEBU?$less@H@1@$$QEAU_Zero_then_variadic_args_t@1@@Z
	??$?0AEBU?$less@H@std@@U_Zero_then_variadic_args_t@1@@?$_Compressed_pair@U?$less@H@std@@V?$_Compressed_pair@V?$allocator@U?$_Tree_node@U?$pair@$$CBHV?$map@HV?$map@HV?$map@HHU?$less@H@std@@V?$allocator@U?$pair@$$CBHH@std@@@2@@std@@U?$less@H@2@V?$allocator@U?$pair@$$CBHV?$map@HHU?$less@H@std@@V?$allocator@U?$pair@$$CBHH@std@@@2@@std@@@std@@@2@@std@@U?$less@H@2@V?$allocator@U?$pair@$$CBHV?$map@HV?$map@HHU?$less@H@std@@V?$allocator@U?$pair@$$CBHH@std@@@2@@std@@U?$less@H@2@V?$allocator@U?$pair@$$CBHV?$map@HHU?$less@H@std@@V?$allocator@U?$pair@$$CBHH@std@@@2@@std@@@std@@@2@@std@@@std@@@2@@std@@@std@@PEAX@std@@@std@@V?$_Tree_val@U?$_Tree_simple_types@U?$pair@$$CBHV?$map@HV?$map@HV?$map@HHU?$less@H@std@@V?$allocator@U?$pair@$$CBHH@std@@@2@@std@@U?$less@H@2@V?$allocator@U?$pair@$$CBHV?$map@HHU?$less@H@std@@V?$allocator@U?$pair@$$CBHH@std@@@2@@std@@@std@@@2@@std@@U?$less@H@2@V?$allocator@U?$pair@$$CBHV?$map@HV?$map@HHU?$less@H@std@@V?$allocator@U?$pair@$$CBHH@std@@@2@@std@@U?$less@H@2@V?$allocator@U?$pair@$$CBHV?$map@HHU?$less@H@std@@V?$allocator@U?$pair@$$CBHH@std@@@2@@std@@@std@@@2@@std@@@std@@@2@@std@@@std@@@std@@@2@$00@2@$00@std@@QEAA@U_One_then_variadic_args_t@1@AEBU?$less@H@1@$$QEAU_Zero_then_variadic_args_t@1@@Z
	??$?0AEBU?$less@H@std@@U_Zero_then_variadic_args_t@1@@?$_Compressed_pair@U?$less@H@std@@V?$_Compressed_pair@V?$allocator@U?$_Tree_node@U?$pair@$$CBHV?$time_point@Usystem_clock@chrono@std@@V?$duration@_JU?$ratio@$00$0JIJGIA@@std@@@23@@chrono@std@@@std@@PEAX@std@@@std@@V?$_Tree_val@U?$_Tree_simple_types@U?$pair@$$CBHV?$time_point@Usystem_clock@chrono@std@@V?$duration@_JU?$ratio@$00$0JIJGIA@@std@@@23@@chrono@std@@@std@@@std@@@2@$00@2@$00@std@@QEAA@U_One_then_variadic_args_t@1@AEBU?$less@H@1@$$QEAU_Zero_then_variadic_args_t@1@@Z
	??$?0AEBU?$less@H@std@@U_Zero_then_variadic_args_t@1@@?$_Compressed_pair@U?$less@H@std@@V?$_Compressed_pair@V?$allocator@U?$_Tree_node@U?$pair@$$CBH_K@std@@PEAX@std@@@std@@V?$_Tree_val@U?$_Tree_simple_types@U?$pair@$$CBH_K@std@@@std@@@2@$00@2@$00@std@@QEAA@U_One_then_variadic_args_t@1@AEBU?$less@H@1@$$QEAU_Zero_then_variadic_args_t@1@@Z
	??$?0AEBU?$less@PEAVNodeHandle@roswrap@@@std@@U_Zero_then_variadic_args_t@1@@?$_Compressed_pair@U?$less@PEAVNodeHandle@roswrap@@@std@@V?$_Compressed_pair@V?$allocator@U?$_Tree_node@U?$pair@QEAVNodeHandle@roswrap@@V?$list@P6AXPEAVNodeHandle@roswrap@@PEBU?$Imu_@V?$allocator@X@std@@@sensor_msgs@@@ZV?$allocator@P6AXPEAVNodeHandle@roswrap@@PEBU?$Imu_@V?$allocator@X@std@@@sensor_msgs@@@Z@std@@@std@@@std@@PEAX@std@@@std@@V?$_Tree_val@U?$_Tree_simple_types@U?$pair@QEAVNodeHandle@roswrap@@V?$list@P6AXPEAVNodeHandle@roswrap@@PEBU?$Imu_@V?$allocator@X@std@@@sensor_msgs@@@ZV?$allocator@P6AXPEAVNodeHandle@roswrap@@PEBU?$Imu_@V?$allocator@X@std@@@sensor_msgs@@@Z@std@@@std@@@std@@@std@@@2@$00@2@$00@std@@QEAA@U_One_then_variadic_args_t@1@AEBU?$less@PEAVNodeHandle@roswrap@@@1@$$QEAU_Zero_then_variadic_args_t@1@@Z
	??$?0AEBU?$less@PEAVNodeHandle@roswrap@@@std@@U_Zero_then_variadic_args_t@1@@?$_Compressed_pair@U?$less@PEAVNodeHandle@roswrap@@@std@@V?$_Compressed_pair@V?$allocator@U?$_Tree_node@U?$pair@QEAVNodeHandle@roswrap@@V?$list@P6AXPEAVNodeHandle@roswrap@@PEBU?$LFErecMsg_@V?$allocator@X@std@@@sick_scan_xd@@@ZV?$allocator@P6AXPEAVNodeHandle@roswrap@@PEBU?$LFErecMsg_@V?$allocator@X@std@@@sick_scan_xd@@@Z@std@@@std@@@std@@PEAX@std@@@std@@V?$_Tree_val@U?$_Tree_simple_types@U?$pair@QEAVNodeHandle@roswrap@@V?$list@P6AXPEAVNodeHandle@roswrap@@PEBU?$LFErecMsg_@V?$allocator@X@std@@@sick_scan_xd@@@ZV?$allocator@P6AXPEAVNodeHandle@roswrap@@PEBU?$LFErecMsg_@V?$allocator@X@std@@@sick_scan_xd@@@Z@std@@@std@@@std@@@std@@@2@$00@2@$00@std@@QEAA@U_One_then_variadic_args_t@1@AEBU?$less@PEAVNodeHandle@roswrap@@@1@$$QEAU_Zero_then_variadic_args_t@1@@Z
	??$?0AEBU?$less@PEAVNodeHandle@roswrap@@@std@@U_Zero_then_variadic_args_t@1@@?$_Compressed_pair@U?$less@PEAVNodeHandle@roswrap@@@std@@V?$_Compressed_pair@V?$allocator@U?$_Tree_node@U?$pair@QEAVNodeHandle@roswrap@@V?$list@P6AXPEAVNodeHandle@roswrap@@PEBU?$LIDoutputstateMsg_@V?$allocator@X@std@@@sick_scan_xd@@@ZV?$allocator@P6AXPEAVNodeHandle@roswrap@@PEBU?$LIDoutputstateMsg_@V?$allocator@X@std@@@sick_scan_xd@@@Z@std@@@std@@@std@@PEAX@std@@@std@@V?$_Tree_val@U?$_Tree_simple_types@U?$pair@QEAVNodeHandle@roswrap@@V?$list@P6AXPEAVNodeHandle@roswrap@@PEBU?$LIDoutputstateMsg_@V?$allocator@X@std@@@sick_scan_xd@@@ZV?$allocator@P6AXPEAVNodeHandle@roswrap@@PEBU?$LIDoutputstateMsg_@V?$allocator@X@std@@@sick_scan_xd@@@Z@std@@@std@@@std@@@std@@@2@$00@2@$00@std@@QEAA@U_One_then_variadic_args_t@1@AEBU?$less@PEAVNodeHandle@roswrap@@@1@$$QEAU_Zero_then_variadic_args_t@1@@Z
	??$?0AEBU?$less@PEAVNodeHandle@roswrap@@@std@@U_Zero_then_variadic_args_t@1@@?$_Compressed_pair@U?$less@PEAVNodeHandle@roswrap@@@std@@V?$_Compressed_pair@V?$allocator@U?$_Tree_node@U?$pair@QEAVNodeHandle@roswrap@@V?$list@P6AXPEAVNodeHandle@roswrap@@PEBU?$MarkerArray_@V?$allocator@X@std@@@visualization_msgs@@@ZV?$allocator@P6AXPEAVNodeHandle@roswrap@@PEBU?$MarkerArray_@V?$allocator@X@std@@@visualization_msgs@@@Z@std@@@std@@@std@@PEAX@std@@@std@@V?$_Tree_val@U?$_Tree_simple_types@U?$pair@QEAVNodeHandle@roswrap@@V?$list@P6AXPEAVNodeHandle@roswrap@@PEBU?$MarkerArray_@V?$allocator@X@std@@@visualization_msgs@@@ZV?$allocator@P6AXPEAVNodeHandle@roswrap@@PEBU?$MarkerArray_@V?$allocator@X@std@@@visualization_msgs@@@Z@std@@@std@@@std@@@std@@@2@$00@2@$00@std@@QEAA@U_One_then_variadic_args_t@1@AEBU?$less@PEAVNodeHandle@roswrap@@@1@$$QEAU_Zero_then_variadic_args_t@1@@Z
	??$?0AEBU?$less@PEAVNodeHandle@roswrap@@@std@@U_Zero_then_variadic_args_t@1@@?$_Compressed_pair@U?$less@PEAVNodeHandle@roswrap@@@std@@V?$_Compressed_pair@V?$allocator@U?$_Tree_node@U?$pair@QEAVNodeHandle@roswrap@@V?$list@P6AXPEAVNodeHandle@roswrap@@PEBU?$RadarScan_@V?$allocator@X@std@@@sick_scan_xd@@@ZV?$allocator@P6AXPEAVNodeHandle@roswrap@@PEBU?$RadarScan_@V?$allocator@X@std@@@sick_scan_xd@@@Z@std@@@std@@@std@@PEAX@std@@@std@@V?$_Tree_val@U?$_Tree_simple_types@U?$pair@QEAVNodeHandle@roswrap@@V?$list@P6AXPEAVNodeHandle@roswrap@@PEBU?$RadarScan_@V?$allocator@X@std@@@sick_scan_xd@@@ZV?$allocator@P6AXPEAVNodeHandle@roswrap@@PEBU?$RadarScan_@V?$allocator@X@std@@@sick_scan_xd@@@Z@std@@@std@@@std@@@std@@@2@$00@2@$00@std@@QEAA@U_One_then_variadic_args_t@1@AEBU?$less@PEAVNodeHandle@roswrap@@@1@$$QEAU_Zero_then_variadic_args_t@1@@Z
	??$?0AEBU?$less@PEAVNodeHandle@roswrap@@@std@@U_Zero_then_variadic_args_t@1@@?$_Compressed_pair@U?$less@PEAVNodeHandle@roswrap@@@std@@V?$_Compressed_pair@V?$allocator@U?$_Tree_node@U?$pair@QEAVNodeHandle@roswrap@@V?$list@P6AXPEAVNodeHandle@roswrap@@PEBU?$SickLdmrsObjectArray_@V?$allocator@X@std@@@sick_scan_xd@@@ZV?$allocator@P6AXPEAVNodeHandle@roswrap@@PEBU?$SickLdmrsObjectArray_@V?$allocator@X@std@@@sick_scan_xd@@@Z@std@@@std@@@std@@PEAX@std@@@std@@V?$_Tree_val@U?$_Tree_simple_types@U?$pair@QEAVNodeHandle@roswrap@@V?$list@P6AXPEAVNodeHandle@roswrap@@PEBU?$SickLdmrsObjectArray_@V?$allocator@X@std@@@sick_scan_xd@@@ZV?$allocator@P6AXPEAVNodeHandle@roswrap@@PEBU?$SickLdmrsObjectArray_@V?$allocator@X@std@@@sick_scan_xd@@@Z@std@@@std@@@std@@@std@@@2@$00@2@$00@std@@QEAA@U_One_then_variadic_args_t@1@AEBU?$less@PEAVNodeHandle@roswrap@@@1@$$QEAU_Zero_then_variadic_args_t@1@@Z
	??$?0AEBU?$less@PEAVNodeHandle@roswrap@@@std@@U_Zero_then_variadic_args_t@1@@?$_Compressed_pair@U?$less@PEAVNodeHandle@roswrap@@@std@@V?$_Compressed_pair@V?$allocator@U?$_Tree_node@U?$pair@QEAVNodeHandle@roswrap@@V?$list@P6AXPEAVNodeHandle@roswrap@@PEBUPointCloud2withEcho@sick_scan_xd@@@ZV?$allocator@P6AXPEAVNodeHandle@roswrap@@PEBUPointCloud2withEcho@sick_scan_xd@@@Z@std@@@std@@@std@@PEAX@std@@@std@@V?$_Tree_val@U?$_Tree_simple_types@U?$pair@QEAVNodeHandle@roswrap@@V?$list@P6AXPEAVNodeHandle@roswrap@@PEBUPointCloud2withEcho@sick_scan_xd@@@ZV?$allocator@P6AXPEAVNodeHandle@roswrap@@PEBUPointCloud2withEcho@sick_scan_xd@@@Z@std@@@std@@@std@@@std@@@2@$00@2@$00@std@@QEAA@U_One_then_variadic_args_t@1@AEBU?$less@PEAVNodeHandle@roswrap@@@1@$$QEAU_Zero_then_variadic_args_t@1@@Z
	??$?0AEBU?$less@PEAVNodeHandle@roswrap@@@std@@U_Zero_then_variadic_args_t@1@@?$_Compressed_pair@U?$less@PEAVNodeHandle@roswrap@@@std@@V?$_Compressed_pair@V?$allocator@U?$_Tree_node@U?$pair@QEAVNodeHandle@roswrap@@V?$list@P6AXPEAVNodeHandle@roswrap@@PEBVNAV350mNPOSData@sick_scan_xd@@@ZV?$allocator@P6AXPEAVNodeHandle@roswrap@@PEBVNAV350mNPOSData@sick_scan_xd@@@Z@std@@@std@@@std@@PEAX@std@@@std@@V?$_Tree_val@U?$_Tree_simple_types@U?$pair@QEAVNodeHandle@roswrap@@V?$list@P6AXPEAVNodeHandle@roswrap@@PEBVNAV350mNPOSData@sick_scan_xd@@@ZV?$allocator@P6AXPEAVNodeHandle@roswrap@@PEBVNAV350mNPOSData@sick_scan_xd@@@Z@std@@@std@@@std@@@std@@@2@$00@2@$00@std@@QEAA@U_One_then_variadic_args_t@1@AEBU?$less@PEAVNodeHandle@roswrap@@@1@$$QEAU_Zero_then_variadic_args_t@1@@Z
	??$?0AEBU?$less@PEAX@std@@U_Zero_then_variadic_args_t@1@@?$_Compressed_pair@U?$less@PEAX@std@@V?$_Compressed_pair@V?$allocator@U?$_Tree_node@U?$pair@QEAXV?$basic_string@DU?$char_traits@D@std@@V?$allocator@D@2@@std@@@std@@PEAX@std@@@std@@V?$_Tree_val@U?$_Tree_simple_types@U?$pair@QEAXV?$basic_string@DU?$char_traits@D@std@@V?$allocator@D@2@@std@@@std@@@std@@@2@$00@2@$00@std@@QEAA@U_One_then_variadic_args_t@1@AEBU?$less@PEAX@1@$$QEAU_Zero_then_variadic_args_t@1@@Z
	??$?0AEBU?$less@PEAX@std@@U_Zero_then_variadic_args_t@1@@?$_Compressed_pair@U?$less@PEAX@std@@V?$_Compressed_pair@V?$allocator@U?$_Tree_node@U?$pair@QEAXV?$list@P6AXPEAXPEBUSickScanDiagnosticMsgType@@@ZV?$allocator@P6AXPEAXPEBUSickScanDiagnosticMsgType@@@Z@std@@@std@@@std@@PEAX@std@@@std@@V?$_Tree_val@U?$_Tree_simple_types@U?$pair@QEAXV?$list@P6AXPEAXPEBUSickScanDiagnosticMsgType@@@ZV?$allocator@P6AXPEAXPEBUSickScanDiagnosticMsgType@@@Z@std@@@std@@@std@@@std@@@2@$00@2@$00@std@@QEAA@U_One_then_variadic_args_t@1@AEBU?$less@PEAX@1@$$QEAU_Zero_then_variadic_args_t@1@@Z
	??$?0AEBU?$less@PEAX@std@@U_Zero_then_variadic_args_t@1@@?$_Compressed_pair@U?$less@PEAX@std@@V?$_Compressed_pair@V?$allocator@U?$_Tree_node@U?$pair@QEAXV?$list@P6AXPEAXPEBUSickScanImuMsgType@@@ZV?$allocator@P6AXPEAXPEBUSickScanImuMsgType@@@Z@std@@@std@@@std@@PEAX@std@@@std@@V?$_Tree_val@U?$_Tree_simple_types@U?$pair@QEAXV?$list@P6AXPEAXPEBUSickScanImuMsgType@@@ZV?$allocator@P6AXPEAXPEBUSickScanImuMsgType@@@Z@std@@@std@@@std@@@std@@@2@$00@2@$00@std@@QEAA@U_One_then_variadic_args_t@1@AEBU?$less@PEAX@1@$$QEAU_Zero_then_variadic_args_t@1@@Z
	??$?0AEBU?$less@PEAX@std@@U_Zero_then_variadic_args_t@1@@?$_Compressed_pair@U?$less@PEAX@std@@V?$_Compressed_pair@V?$allocator@U?$_Tree_node@U?$pair@QEAXV?$list@P6AXPEAXPEBUSickScanLFErecMsgType@@@ZV?$allocator@P6AXPEAXPEBUSickScanLFErecMsgType@@@Z@std@@@std@@@std@@PEAX@std@@@std@@V?$_Tree_val@U?$_Tree_simple_types@U?$pair@QEAXV?$list@P6AXPEAXPEBUSickScanLFErecMsgType@@@ZV?$allocator@P6AXPEAXPEBUSickScanLFErecMsgType@@@Z@std@@@std@@@std@@@std@@@2@$00@2@$00@std@@QEAA@U_One_then_variadic_args_t@1@AEBU?$less@PEAX@1@$$QEAU_Zero_then_variadic_args_t@1@@Z
	??$?0AEBU?$less@PEAX@std@@U_Zero_then_variadic_args_t@1@@?$_Compressed_pair@U?$less@PEAX@std@@V?$_Compressed_pair@V?$allocator@U?$_Tree_node@U?$pair@QEAXV?$list@P6AXPEAXPEBUSickScanLIDoutputstateMsgType@@@ZV?$allocator@P6AXPEAXPEBUSickScanLIDoutputstateMsgType@@@Z@std@@@std@@@std@@PEAX@std@@@std@@V?$_Tree_val@U?$_Tree_simple_types@U?$pair@QEAXV?$list@P6AXPEAXPEBUSickScanLIDoutputstateMsgType@@@ZV?$allocator@P6AXPEAXPEBUSickScanLIDoutputstateMsgType@@@Z@std@@@std@@@std@@@std@@@2@$00@2@$00@std@@QEAA@U_One_then_variadic_args_t@1@AEBU?$less@PEAX@1@$$QEAU_Zero_then_variadic_args_t@1@@Z
	??$?0AEBU?$less@PEAX@std@@U_Zero_then_variadic_args_t@1@@?$_Compressed_pair@U?$less@PEAX@std@@V?$_Compressed_pair@V?$allocator@U?$_Tree_node@U?$pair@QEAXV?$list@P6AXPEAXPEBUSickScanLdmrsObjectArrayType@@@ZV?$allocator@P6AXPEAXPEBUSickScanLdmrsObjectArrayType@@@Z@std@@@std@@@std@@PEAX@std@@@std@@V?$_Tree_val@U?$_Tree_simple_types@U?$pair@QEAXV?$list@P6AXPEAXPEBUSickScanLdmrsObjectArrayType@@@ZV?$allocator@P6AXPEAXPEBUSickScanLdmrsObjectArrayType@@@Z@std@@@std@@@std@@@std@@@2@$00@2@$00@std@@QEAA@U_One_then_variadic_args_t@1@AEBU?$less@PEAX@1@$$QEAU_Zero_then_variadic_args_t@1@@Z
	??$?0AEBU?$less@PEAX@std@@U_Zero_then_variadic_args_t@1@@?$_Compressed_pair@U?$less@PEAX@std@@V?$_Compressed_pair@V?$allocator@U?$_Tree_node@U?$pair@QEAXV?$list@P6AXPEAXPEBUSickScanLogMsgType@@@ZV?$allocator@P6AXPEAXPEBUSickScanLogMsgType@@@Z@std@@@std@@@std@@PEAX@std@@@std@@V?$_Tree_val@U?$_Tree_simple_types@U?$pair@QEAXV?$list@P6AXPEAXPEBUSickScanLogMsgType@@@ZV?$allocator@P6AXPEAXPEBUSickScanLogMsgType@@@Z@std@@@std@@@std@@@std@@@2@$00@2@$00@std@@QEAA@U_One_then_variadic_args_t@1@AEBU?$less@PEAX@1@$$QEAU_Zero_then_variadic_args_t@1@@Z
	??$?0AEBU?$less@PEAX@std@@U_Zero_then_variadic_args_t@1@@?$_Compressed_pair@U?$less@PEAX@std@@V?$_Compressed_pair@V?$allocator@U?$_Tree_node@U?$pair@QEAXV?$list@P6AXPEAXPEBUSickScanNavPoseLandmarkMsgType@@@ZV?$allocator@P6AXPEAXPEBUSickScanNavPoseLandmarkMsgType@@@Z@std@@@std@@@std@@PEAX@std@@@std@@V?$_Tree_val@U?$_Tree_simple_types@U?$pair@QEAXV?$list@P6AXPEAXPEBUSickScanNavPoseLandmarkMsgType@@@ZV?$allocator@P6AXPEAXPEBUSickScanNavPoseLandmarkMsgType@@@Z@std@@@std@@@std@@@std@@@2@$00@2@$00@std@@QEAA@U_One_then_variadic_args_t@1@AEBU?$less@PEAX@1@$$QEAU_Zero_then_variadic_args_t@1@@Z
	??$?0AEBU?$less@PEAX@std@@U_Zero_then_variadic_args_t@1@@?$_Compressed_pair@U?$less@PEAX@std@@V?$_Compressed_pair@V?$allocator@U?$_Tree_node@U?$pair@QEAXV?$list@P6AXPEAXPEBUSickScanPointCloudMsgType@@@ZV?$allocator@P6AXPEAXPEBUSickScanPointCloudMsgType@@@Z@std@@@std@@@std@@PEAX@std@@@std@@V?$_Tree_val@U?$_Tree_simple_types@U?$pair@QEAXV?$list@P6AXPEAXPEBUSickScanPointCloudMsgType@@@ZV?$allocator@P6AXPEAXPEBUSickScanPointCloudMsgType@@@Z@std@@@std@@@std@@@std@@@2@$00@2@$00@std@@QEAA@U_One_then_variadic_args_t@1@AEBU?$less@PEAX@1@$$QEAU_Zero_then_variadic_args_t@1@@Z
	??$?0AEBU?$less@PEAX@std@@U_Zero_then_variadic_args_t@1@@?$_Compressed_pair@U?$less@PEAX@std@@V?$_Compressed_pair@V?$allocator@U?$_Tree_node@U?$pair@QEAXV?$list@P6AXPEAXPEBUSickScanRadarScanType@@@ZV?$allocator@P6AXPEAXPEBUSickScanRadarScanType@@@Z@std@@@std@@@std@@PEAX@std@@@std@@V?$_Tree_val@U?$_Tree_simple_types@U?$pair@QEAXV?$list@P6AXPEAXPEBUSickScanRadarScanType@@@ZV?$allocator@P6AXPEAXPEBUSickScanRadarScanType@@@Z@std@@@std@@@std@@@std@@@2@$00@2@$00@std@@QEAA@U_One_then_variadic_args_t@1@AEBU?$less@PEAX@1@$$QEAU_Zero_then_variadic_args_t@1@@Z
	??$?0AEBU?$less@PEAX@std@@U_Zero_then_variadic_args_t@1@@?$_Compressed_pair@U?$less@PEAX@std@@V?$_Compressed_pair@V?$allocator@U?$_Tree_node@U?$pair@QEAXV?$list@P6AXPEAXPEBUSickScanVisualizationMarkerMsgType@@@ZV?$allocator@P6AXPEAXPEBUSickScanVisualizationMarkerMsgType@@@Z@std@@@std@@@std@@PEAX@std@@@std@@V?$_Tree_val@U?$_Tree_simple_types@U?$pair@QEAXV?$list@P6AXPEAXPEBUSickScanVisualizationMarkerMsgType@@@ZV?$allocator@P6AXPEAXPEBUSickScanVisualizationMarkerMsgType@@@Z@std@@@std@@@std@@@std@@@2@$00@2@$00@std@@QEAA@U_One_then_variadic_args_t@1@AEBU?$less@PEAX@1@$$QEAU_Zero_then_variadic_args_t@1@@Z
	??$?0AEBU?$less@V?$basic_string@DU?$char_traits@D@std@@V?$allocator@D@2@@std@@@std@@U_Zero_then_variadic_args_t@1@@?$_Compressed_pair@U?$less@V?$basic_string@DU?$char_traits@D@std@@V?$allocator@D@2@@std@@@std@@V?$_Compressed_pair@V?$allocator@U?$_Tree_node@U?$pair@$$CBV?$basic_string@DU?$char_traits@D@std@@V?$allocator@D@2@@std@@H@std@@PEAX@std@@@std@@V?$_Tree_val@U?$_Tree_simple_types@U?$pair@$$CBV?$basic_string@DU?$char_traits@D@std@@V?$allocator@D@2@@std@@H@std@@@std@@@2@$00@2@$00@std@@QEAA@U_One_then_variadic_args_t@1@AEBU?$less@V?$basic_string@DU?$char_traits@D@std@@V?$allocator@D@2@@std@@@1@$$QEAU_Zero_then_variadic_args_t@1@@Z
	??$?0AEBU?$less@V?$basic_string@DU?$char_traits@D@std@@V?$allocator@D@2@@std@@@std@@U_Zero_then_variadic_args_t@1@@?$_Compressed_pair@U?$less@V?$basic_string@DU?$char_traits@D@std@@V?$allocator@D@2@@std@@@std@@V?$_Compressed_pair@V?$allocator@U?$_Tree_node@U?$pair@$$CBV?$basic_string@DU?$char_traits@D@std@@V?$allocator@D@2@@std@@V12@@std@@PEAX@std@@@std@@V?$_Tree_val@U?$_Tree_simple_types@U?$pair@$$CBV?$basic_string@DU?$char_traits@D@std@@V?$allocator@D@2@@std@@V12@@std@@@std@@@2@$00@2@$00@std@@QEAA@U_One_then_variadic_args_t@1@AEBU?$less@V?$basic_string@DU?$char_traits@D@std@@V?$allocator@D@2@@std@@@1@$$QEAU_Zero_then_variadic_args_t@1@@Z
	??$?0AEBU?$less@V?$basic_string@DU?$char_traits@D@std@@V?$allocator@D@2@@std@@@std@@U_Zero_then_variadic_args_t@1@@?$_Compressed_pair@U?$less@V?$basic_string@DU?$char_traits@D@std@@V?$allocator@D@2@@std@@@std@@V?$_Compressed_pair@V?$allocator@U?$_Tree_node@U?$pair@$$CBV?$basic_string@DU?$char_traits@D@std@@V?$allocator@D@2@@std@@V?$vector@V?$basic_string@DU?$char_traits@D@std@@V?$allocator@D@2@@std@@V?$allocator@V?$basic_string@DU?$char_traits@D@std@@V?$allocator@D@2@@std@@@2@@2@@std@@PEAX@std@@@std@@V?$_Tree_val@U?$_Tree_simple_types@U?$pair@$$CBV?$basic_string@DU?$char_traits@D@std@@V?$allocator@D@2@@std@@V?$vector@V?$basic_string@DU?$char_traits@D@std@@V?$allocator@D@2@@std@@V?$allocator@V?$basic_string@DU?$char_traits@D@std@@V?$allocator@D@2@@std@@@2@@2@@std@@@std@@@2@$00@2@$00@std@@QEAA@U_One_then_variadic_args_t@1@AEBU?$less@V?$basic_string@DU?$char_traits@D@std@@V?$allocator@D@2@@std@@@1@$$QEAU_Zero_then_variadic_args_t@1@@Z
	??$?0AEBU?$less@V?$basic_string@DU?$char_traits@D@std@@V?$allocator@D@2@@std@@@std@@U_Zero_then_variadic_args_t@1@@?$_Compressed_pair@U?$less@V?$basic_string@DU?$char_traits@D@std@@V?$allocator@D@2@@std@@@std@@V?$_Compressed_pair@V?$allocator@U?$_Tree_node@U?$pair@$$CBV?$basic_string@DU?$char_traits@D@std@@V?$allocator@D@2@@std@@_N@std@@PEAX@std@@@std@@V?$_Tree_val@U?$_Tree_simple_types@U?$pair@$$CBV?$basic_string@DU?$char_traits@D@std@@V?$allocator@D@2@@std@@_N@std@@@std@@@2@$00@2@$00@std@@QEAA@U_One_then_variadic_args_t@1@AEBU?$less@V?$basic_string@DU?$char_traits@D@std@@V?$allocator@D@2@@std@@@1@$$QEAU_Zero_then_variadic_args_t@1@@Z
	??$?0AEBU?$less@VMsgPack@msgpack11@@@std@@U_Zero_then_variadic_args_t@1@@?$_Compressed_pair@U?$less@VMsgPack@msgpack11@@@std@@V?$_Compressed_pair@V?$allocator@U?$_Tree_node@U?$pair@$$CBVMsgPack@msgpack11@@V12@@std@@PEAX@std@@@std@@V?$_Tree_val@U?$_Tree_simple_types@U?$pair@$$CBVMsgPack@msgpack11@@V12@@std@@@std@@@2@$00@2@$00@std@@QEAA@U_One_then_variadic_args_t@1@AEBU?$less@VMsgPack@msgpack11@@@1@$$QEAU_Zero_then_variadic_args_t@1@@Z
	??$?0AEBU?$pair@$$CBEV?$basic_string@DU?$char_traits@D@std@@V?$allocator@D@2@@std@@@std@@@?$_Tree_temp_node@V?$allocator@U?$_Tree_node@U?$pair@$$CBEV?$basic_string@DU?$char_traits@D@std@@V?$allocator@D@2@@std@@@std@@PEAX@std@@@std@@@std@@QEAA@AEAV?$allocator@U?$_Tree_node@U?$pair@$$CBEV?$basic_string@DU?$char_traits@D@std@@V?$allocator@D@2@@std@@@std@@PEAX@std@@@1@PEAU?$_Tree_node@U?$pair@$$CBEV?$basic_string@DU?$char_traits@D@std@@V?$allocator@D@2@@std@@@std@@PEAX@1@AEBU?$pair@$$CBEV?$basic_string@DU?$char_traits@D@std@@V?$allocator@D@2@@std@@@1@@Z
	??$?0AEBUpiecewise_construct_t@std@@V?$tuple@$$QEAC@1@V?$tuple@$$V@1@@?$_Tree_temp_node@V?$allocator@U?$_Tree_node@U?$pair@$$CBC_N@std@@PEAX@std@@@std@@@std@@QEAA@AEAV?$allocator@U?$_Tree_node@U?$pair@$$CBC_N@std@@PEAX@std@@@1@PEAU?$_Tree_node@U?$pair@$$CBC_N@std@@PEAX@1@AEBUpiecewise_construct_t@1@$$QEAV?$tuple@$$QEAC@1@$$QEAV?$tuple@$$V@1@@Z
	??$?0AEBUpiecewise_construct_t@std@@V?$tuple@$$QEAH@1@V?$tuple@$$V@1@@?$_Tree_temp_node@V?$allocator@U?$_Tree_node@U?$pair@$$CBHH@std@@PEAX@std@@@std@@@std@@QEAA@AEAV?$allocator@U?$_Tree_node@U?$pair@$$CBHH@std@@PEAX@std@@@1@PEAU?$_Tree_node@U?$pair@$$CBHH@std@@PEAX@1@AEBUpiecewise_construct_t@1@$$QEAV?$tuple@$$QEAH@1@$$QEAV?$tuple@$$V@1@@Z
	??$?0AEBUpiecewise_construct_t@std@@V?$tuple@$$QEAH@1@V?$tuple@$$V@1@@?$_Tree_temp_node@V?$allocator@U?$_Tree_node@U?$pair@$$CBHV?$map@HHU?$less@H@std@@V?$allocator@U?$pair@$$CBHH@std@@@2@@std@@@std@@PEAX@std@@@std@@@std@@QEAA@AEAV?$allocator@U?$_Tree_node@U?$pair@$$CBHV?$map@HHU?$less@H@std@@V?$allocator@U?$pair@$$CBHH@std@@@2@@std@@@std@@PEAX@std@@@1@PEAU?$_Tree_node@U?$pair@$$CBHV?$map@HHU?$less@H@std@@V?$allocator@U?$pair@$$CBHH@std@@@2@@std@@@std@@PEAX@1@AEBUpiecewise_construct_t@1@$$QEAV?$tuple@$$QEAH@1@$$QEAV?$tuple@$$V@1@@Z
	??$?0AEBUpiecewise_construct_t@std@@V?$tuple@$$QEAV?$basic_string@DU?$char_traits@D@std@@V?$allocator@D@2@@std@@@1@V?$tuple@$$V@1@@?$_Tree_temp_node@V?$allocator@U?$_Tree_node@U?$pair@$$CBV?$basic_string@DU?$char_traits@D@std@@V?$allocator@D@2@@std@@H@std@@PEAX@std@@@std@@@std@@QEAA@AEAV?$allocator@U?$_Tree_node@U?$pair@$$CBV?$basic_string@DU?$char_traits@D@std@@V?$allocator@D@2@@std@@H@std@@PEAX@std@@@1@PEAU?$_Tree_node@U?$pair@$$CBV?$basic_string@DU?$char_traits@D@std@@V?$allocator@D@2@@std@@H@std@@PEAX@1@AEBUpiecewise_construct_t@1@$$QEAV?$tuple@$$QEAV?$basic_string@DU?$char_traits@D@std@@V?$allocator@D@2@@std@@@1@$$QEAV?$tuple@$$V@1@@Z
	??$?0AEBUpiecewise_construct_t@std@@V?$tuple@$$QEAV?$basic_string@DU?$char_traits@D@std@@V?$allocator@D@2@@std@@@1@V?$tuple@$$V@1@@?$_Tree_temp_node@V?$allocator@U?$_Tree_node@U?$pair@$$CBV?$basic_string@DU?$char_traits@D@std@@V?$allocator@D@2@@std@@V12@@std@@PEAX@std@@@std@@@std@@QEAA@AEAV?$allocator@U?$_Tree_node@U?$pair@$$CBV?$basic_string@DU?$char_traits@D@std@@V?$allocator@D@2@@std@@V12@@std@@PEAX@std@@@1@PEAU?$_Tree_node@U?$pair@$$CBV?$basic_string@DU?$char_traits@D@std@@V?$allocator@D@2@@std@@V12@@std@@PEAX@1@AEBUpiecewise_construct_t@1@$$QEAV?$tuple@$$QEAV?$basic_string@DU?$char_traits@D@std@@V?$allocator@D@2@@std@@@1@$$QEAV?$tuple@$$V@1@@Z
	??$?0AEBUpiecewise_construct_t@std@@V?$tuple@$$QEAV?$basic_string@DU?$char_traits@D@std@@V?$allocator@D@2@@std@@@1@V?$tuple@$$V@1@@?$_Tree_temp_node@V?$allocator@U?$_Tree_node@U?$pair@$$CBV?$basic_string@DU?$char_traits@D@std@@V?$allocator@D@2@@std@@V?$vector@V?$basic_string@DU?$char_traits@D@std@@V?$allocator@D@2@@std@@V?$allocator@V?$basic_string@DU?$char_traits@D@std@@V?$allocator@D@2@@std@@@2@@2@@std@@PEAX@std@@@std@@@std@@QEAA@AEAV?$allocator@U?$_Tree_node@U?$pair@$$CBV?$basic_string@DU?$char_traits@D@std@@V?$allocator@D@2@@std@@V?$vector@V?$basic_string@DU?$char_traits@D@std@@V?$allocator@D@2@@std@@V?$allocator@V?$basic_string@DU?$char_traits@D@std@@V?$allocator@D@2@@std@@@2@@2@@std@@PEAX@std@@@1@PEAU?$_Tree_node@U?$pair@$$CBV?$basic_string@DU?$char_traits@D@std@@V?$allocator@D@2@@std@@V?$vector@V?$basic_string@DU?$char_traits@D@std@@V?$allocator@D@2@@std@@V?$allocator@V?$basic_string@DU?$char_traits@D@std@@V?$allocator@D@2@@std@@@2@@2@@std@@PEAX@1@AEBUpiecewise_construct_t@1@$$QEAV?$tuple@$$QEAV?$basic_string@DU?$char_traits@D@std@@V?$allocator@D@2@@std@@@1@$$QEAV?$tuple@$$V@1@@Z
	??$?0AEBUpiecewise_construct_t@std@@V?$tuple@AEBE@1@V?$tuple@$$V@1@@?$_Tree_temp_node@V?$allocator@U?$_Tree_node@U?$pair@$$CBEV?$basic_string@DU?$char_traits@D@std@@V?$allocator@D@2@@std@@@std@@PEAX@std@@@std@@@std@@QEAA@AEAV?$allocator@U?$_Tree_node@U?$pair@$$CBEV?$basic_string@DU?$char_traits@D@std@@V?$allocator@D@2@@std@@@std@@PEAX@std@@@1@PEAU?$_Tree_node@U?$pair@$$CBEV?$basic_string@DU?$char_traits@D@std@@V?$allocator@D@2@@std@@@std@@PEAX@1@AEBUpiecewise_construct_t@1@$$QEAV?$tuple@AEBE@1@$$QEAV?$tuple@$$V@1@@Z
	??$?0AEBUpiecewise_construct_t@std@@V?$tuple@AEBH@1@V?$tuple@$$V@1@@?$_Tree_temp_node@V?$allocator@U?$_Tree_node@U?$pair@$$CBHH@std@@PEAX@std@@@std@@@std@@QEAA@AEAV?$allocator@U?$_Tree_node@U?$pair@$$CBHH@std@@PEAX@std@@@1@PEAU?$_Tree_node@U?$pair@$$CBHH@std@@PEAX@1@AEBUpiecewise_construct_t@1@$$QEAV?$tuple@AEBH@1@$$QEAV?$tuple@$$V@1@@Z
	??$?0AEBUpiecewise_construct_t@std@@V?$tuple@AEBH@1@V?$tuple@$$V@1@@?$_Tree_temp_node@V?$allocator@U?$_Tree_node@U?$pair@$$CBHU?$LaserScan_@V?$allocator@X@std@@@sensor_msgs@@@std@@PEAX@std@@@std@@@std@@QEAA@AEAV?$allocator@U?$_Tree_node@U?$pair@$$CBHU?$LaserScan_@V?$allocator@X@std@@@sensor_msgs@@@std@@PEAX@std@@@1@PEAU?$_Tree_node@U?$pair@$$CBHU?$LaserScan_@V?$allocator@X@std@@@sensor_msgs@@@std@@PEAX@1@AEBUpiecewise_construct_t@1@$$QEAV?$tuple@AEBH@1@$$QEAV?$tuple@$$V@1@@Z
	??$?0AEBUpiecewise_construct_t@std@@V?$tuple@AEBH@1@V?$tuple@$$V@1@@?$_Tree_temp_node@V?$allocator@U?$_Tree_node@U?$pair@$$CBHV?$map@HHU?$less@H@std@@V?$allocator@U?$pair@$$CBHH@std@@@2@@std@@@std@@PEAX@std@@@std@@@std@@QEAA@AEAV?$allocator@U?$_Tree_node@U?$pair@$$CBHV?$map@HHU?$less@H@std@@V?$allocator@U?$pair@$$CBHH@std@@@2@@std@@@std@@PEAX@std@@@1@PEAU?$_Tree_node@U?$pair@$$CBHV?$map@HHU?$less@H@std@@V?$allocator@U?$pair@$$CBHH@std@@@2@@std@@@std@@PEAX@1@AEBUpiecewise_construct_t@1@$$QEAV?$tuple@AEBH@1@$$QEAV?$tuple@$$V@1@@Z
	??$?0AEBUpiecewise_construct_t@std@@V?$tuple@AEBH@1@V?$tuple@$$V@1@@?$_Tree_temp_node@V?$allocator@U?$_Tree_node@U?$pair@$$CBHV?$map@HU?$LaserScan_@V?$allocator@X@std@@@sensor_msgs@@U?$less@H@std@@V?$allocator@U?$pair@$$CBHU?$LaserScan_@V?$allocator@X@std@@@sensor_msgs@@@std@@@4@@std@@@std@@PEAX@std@@@std@@@std@@QEAA@AEAV?$allocator@U?$_Tree_node@U?$pair@$$CBHV?$map@HU?$LaserScan_@V?$allocator@X@std@@@sensor_msgs@@U?$less@H@std@@V?$allocator@U?$pair@$$CBHU?$LaserScan_@V?$allocator@X@std@@@sensor_msgs@@@std@@@4@@std@@@std@@PEAX@std@@@1@PEAU?$_Tree_node@U?$pair@$$CBHV?$map@HU?$LaserScan_@V?$allocator@X@std@@@sensor_msgs@@U?$less@H@std@@V?$allocator@U?$pair@$$CBHU?$LaserScan_@V?$allocator@X@std@@@sensor_msgs@@@std@@@4@@std@@@std@@PEAX@1@AEBUpiecewise_construct_t@1@$$QEAV?$tuple@AEBH@1@$$QEAV?$tuple@$$V@1@@Z
	??$?0AEBUpiecewise_construct_t@std@@V?$tuple@AEBH@1@V?$tuple@$$V@1@@?$_Tree_temp_node@V?$allocator@U?$_Tree_node@U?$pair@$$CBHV?$map@HV?$map@HHU?$less@H@std@@V?$allocator@U?$pair@$$CBHH@std@@@2@@std@@U?$less@H@2@V?$allocator@U?$pair@$$CBHV?$map@HHU?$less@H@std@@V?$allocator@U?$pair@$$CBHH@std@@@2@@std@@@std@@@2@@std@@@std@@PEAX@std@@@std@@@std@@QEAA@AEAV?$allocator@U?$_Tree_node@U?$pair@$$CBHV?$map@HV?$map@HHU?$less@H@std@@V?$allocator@U?$pair@$$CBHH@std@@@2@@std@@U?$less@H@2@V?$allocator@U?$pair@$$CBHV?$map@HHU?$less@H@std@@V?$allocator@U?$pair@$$CBHH@std@@@2@@std@@@std@@@2@@std@@@std@@PEAX@std@@@1@PEAU?$_Tree_node@U?$pair@$$CBHV?$map@HV?$map@HHU?$less@H@std@@V?$allocator@U?$pair@$$CBHH@std@@@2@@std@@U?$less@H@2@V?$allocator@U?$pair@$$CBHV?$map@HHU?$less@H@std@@V?$allocator@U?$pair@$$CBHH@std@@@2@@std@@@std@@@2@@std@@@std@@PEAX@1@AEBUpiecewise_construct_t@1@$$QEAV?$tuple@AEBH@1@$$QEAV?$tuple@$$V@1@@Z
	??$?0AEBUpiecewise_construct_t@std@@V?$tuple@AEBH@1@V?$tuple@$$V@1@@?$_Tree_temp_node@V?$allocator@U?$_Tree_node@U?$pair@$$CBHV?$map@HV?$map@HV?$map@HHU?$less@H@std@@V?$allocator@U?$pair@$$CBHH@std@@@2@@std@@U?$less@H@2@V?$allocator@U?$pair@$$CBHV?$map@HHU?$less@H@std@@V?$allocator@U?$pair@$$CBHH@std@@@2@@std@@@std@@@2@@std@@U?$less@H@2@V?$allocator@U?$pair@$$CBHV?$map@HV?$map@HHU?$less@H@std@@V?$allocator@U?$pair@$$CBHH@std@@@2@@std@@U?$less@H@2@V?$allocator@U?$pair@$$CBHV?$map@HHU?$less@H@std@@V?$allocator@U?$pair@$$CBHH@std@@@2@@std@@@std@@@2@@std@@@std@@@2@@std@@@std@@PEAX@std@@@std@@@std@@QEAA@AEAV?$allocator@U?$_Tree_node@U?$pair@$$CBHV?$map@HV?$map@HV?$map@HHU?$less@H@std@@V?$allocator@U?$pair@$$CBHH@std@@@2@@std@@U?$less@H@2@V?$allocator@U?$pair@$$CBHV?$map@HHU?$less@H@std@@V?$allocator@U?$pair@$$CBHH@std@@@2@@std@@@std@@@2@@std@@U?$less@H@2@V?$allocator@U?$pair@$$CBHV?$map@HV?$map@HHU?$less@H@std@@V?$allocator@U?$pair@$$CBHH@std@@@2@@std@@U?$less@H@2@V?$allocator@U?$pair@$$CBHV?$map@HHU?$less@H@std@@V?$allocator@U?$pair@$$CBHH@std@@@2@@std@@@std@@@2@@std@@@std@@@2@@std@@@std@@PEAX@std@@@1@PEAU?$_Tree_node@U?$pair@$$CBHV?$map@HV?$map@HV?$map@HHU?$less@H@std@@V?$allocator@U?$pair@$$CBHH@std@@@2@@std@@U?$less@H@2@V?$allocator@U?$pair@$$CBHV?$map@HHU?$less@H@std@@V?$allocator@U?$pair@$$CBHH@std@@@2@@std@@@std@@@2@@std@@U?$less@H@2@V?$allocator@U?$pair@$$CBHV?$map@HV?$map@HHU?$less@H@std@@V?$allocator@U?$pair@$$CBHH@std@@@2@@std@@U?$less@H@2@V?$allocator@U?$pair@$$CBHV?$map@HHU?$less@H@std@@V?$allocator@U?$pair@$$CBHH@std@@@2@@std@@@std@@@2@@std@@@std@@@2@@std@@@std@@PEAX@1@AEBUpiecewise_construct_t@1@$$QEAV?$tuple@AEBH@1@$$QEAV?$tuple@$$V@1@@Z
	??$?0AEBUpiecewise_construct_t@std@@V?$tuple@AEBH@1@V?$tuple@$$V@1@@?$_Tree_temp_node@V?$allocator@U?$_Tree_node@U?$pair@$$CBHV?$time_point@Usystem_clock@chrono@std@@V?$duration@_JU?$ratio@$00$0JIJGIA@@std@@@23@@chrono@std@@@std@@PEAX@std@@@std@@@std@@QEAA@AEAV?$allocator@U?$_Tree_node@U?$pair@$$CBHV?$time_point@Usystem_clock@chrono@std@@V?$duration@_JU?$ratio@$00$0JIJGIA@@std@@@23@@chrono@std@@@std@@PEAX@std@@@1@PEAU?$_Tree_node@U?$pair@$$CBHV?$time_point@Usystem_clock@chrono@std@@V?$duration@_JU?$ratio@$00$0JIJGIA@@std@@@23@@chrono@std@@@std@@PEAX@1@AEBUpiecewise_construct_t@1@$$QEAV?$tuple@AEBH@1@$$QEAV?$tuple@$$V@1@@Z
	??$?0AEBUpiecewise_construct_t@std@@V?$tuple@AEBH@1@V?$tuple@$$V@1@@?$_Tree_temp_node@V?$allocator@U?$_Tree_node@U?$pair@$$CBH_K@std@@PEAX@std@@@std@@@std@@QEAA@AEAV?$allocator@U?$_Tree_node@U?$pair@$$CBH_K@std@@PEAX@std@@@1@PEAU?$_Tree_node@U?$pair@$$CBH_K@std@@PEAX@1@AEBUpiecewise_construct_t@1@$$QEAV?$tuple@AEBH@1@$$QEAV?$tuple@$$V@1@@Z
	??$?0AEBUpiecewise_construct_t@std@@V?$tuple@AEBQEAVNodeHandle@roswrap@@@1@V?$tuple@$$V@1@@?$_Tree_temp_node@V?$allocator@U?$_Tree_node@U?$pair@QEAVNodeHandle@roswrap@@V?$list@P6AXPEAVNodeHandle@roswrap@@PEBU?$Imu_@V?$allocator@X@std@@@sensor_msgs@@@ZV?$allocator@P6AXPEAVNodeHandle@roswrap@@PEBU?$Imu_@V?$allocator@X@std@@@sensor_msgs@@@Z@std@@@std@@@std@@PEAX@std@@@std@@@std@@QEAA@AEAV?$allocator@U?$_Tree_node@U?$pair@QEAVNodeHandle@roswrap@@V?$list@P6AXPEAVNodeHandle@roswrap@@PEBU?$Imu_@V?$allocator@X@std@@@sensor_msgs@@@ZV?$allocator@P6AXPEAVNodeHandle@roswrap@@PEBU?$Imu_@V?$allocator@X@std@@@sensor_msgs@@@Z@std@@@std@@@std@@PEAX@std@@@1@PEAU?$_Tree_node@U?$pair@QEAVNodeHandle@roswrap@@V?$list@P6AXPEAVNodeHandle@roswrap@@PEBU?$Imu_@V?$allocator@X@std@@@sensor_msgs@@@ZV?$allocator@P6AXPEAVNodeHandle@roswrap@@PEBU?$Imu_@V?$allocator@X@std@@@sensor_msgs@@@Z@std@@@std@@@std@@PEAX@1@AEBUpiecewise_construct_t@1@$$QEAV?$tuple@AEBQEAVNodeHandle@roswrap@@@1@$$QEAV?$tuple@$$V@1@@Z
	??$?0AEBUpiecewise_construct_t@std@@V?$tuple@AEBQEAVNodeHandle@roswrap@@@1@V?$tuple@$$V@1@@?$_Tree_temp_node@V?$allocator@U?$_Tree_node@U?$pair@QEAVNodeHandle@roswrap@@V?$list@P6AXPEAVNodeHandle@roswrap@@PEBU?$LFErecMsg_@V?$allocator@X@std@@@sick_scan_xd@@@ZV?$allocator@P6AXPEAVNodeHandle@roswrap@@PEBU?$LFErecMsg_@V?$allocator@X@std@@@sick_scan_xd@@@Z@std@@@std@@@std@@PEAX@std@@@std@@@std@@QEAA@AEAV?$allocator@U?$_Tree_node@U?$pair@QEAVNodeHandle@roswrap@@V?$list@P6AXPEAVNodeHandle@roswrap@@PEBU?$LFErecMsg_@V?$allocator@X@std@@@sick_scan_xd@@@ZV?$allocator@P6AXPEAVNodeHandle@roswrap@@PEBU?$LFErecMsg_@V?$allocator@X@std@@@sick_scan_xd@@@Z@std@@@std@@@std@@PEAX@std@@@1@PEAU?$_Tree_node@U?$pair@QEAVNodeHandle@roswrap@@V?$list@P6AXPEAVNodeHandle@roswrap@@PEBU?$LFErecMsg_@V?$allocator@X@std@@@sick_scan_xd@@@ZV?$allocator@P6AXPEAVNodeHandle@roswrap@@PEBU?$LFErecMsg_@V?$allocator@X@std@@@sick_scan_xd@@@Z@std@@@std@@@std@@PEAX@1@AEBUpiecewise_construct_t@1@$$QEAV?$tuple@AEBQEAVNodeHandle@roswrap@@@1@$$QEAV?$tuple@$$V@1@@Z
	??$?0AEBUpiecewise_construct_t@std@@V?$tuple@AEBQEAVNodeHandle@roswrap@@@1@V?$tuple@$$V@1@@?$_Tree_temp_node@V?$allocator@U?$_Tree_node@U?$pair@QEAVNodeHandle@roswrap@@V?$list@P6AXPEAVNodeHandle@roswrap@@PEBU?$LIDoutputstateMsg_@V?$allocator@X@std@@@sick_scan_xd@@@ZV?$allocator@P6AXPEAVNodeHandle@roswrap@@PEBU?$LIDoutputstateMsg_@V?$allocator@X@std@@@sick_scan_xd@@@Z@std@@@std@@@std@@PEAX@std@@@std@@@std@@QEAA@AEAV?$allocator@U?$_Tree_node@U?$pair@QEAVNodeHandle@roswrap@@V?$list@P6AXPEAVNodeHandle@roswrap@@PEBU?$LIDoutputstateMsg_@V?$allocator@X@std@@@sick_scan_xd@@@ZV?$allocator@P6AXPEAVNodeHandle@roswrap@@PEBU?$LIDoutputstateMsg_@V?$allocator@X@std@@@sick_scan_xd@@@Z@std@@@std@@@std@@PEAX@std@@@1@PEAU?$_Tree_node@U?$pair@QEAVNodeHandle@roswrap@@V?$list@P6AXPEAVNodeHandle@roswrap@@PEBU?$LIDoutputstateMsg_@V?$allocator@X@std@@@sick_scan_xd@@@ZV?$allocator@P6AXPEAVNodeHandle@roswrap@@PEBU?$LIDoutputstateMsg_@V?$allocator@X@std@@@sick_scan_xd@@@Z@std@@@std@@@std@@PEAX@1@AEBUpiecewise_construct_t@1@$$QEAV?$tuple@AEBQEAVNodeHandle@roswrap@@@1@$$QEAV?$tuple@$$V@1@@Z
	??$?0AEBUpiecewise_construct_t@std@@V?$tuple@AEBQEAVNodeHandle@roswrap@@@1@V?$tuple@$$V@1@@?$_Tree_temp_node@V?$allocator@U?$_Tree_node@U?$pair@QEAVNodeHandle@roswrap@@V?$list@P6AXPEAVNodeHandle@roswrap@@PEBU?$MarkerArray_@V?$allocator@X@std@@@visualization_msgs@@@ZV?$allocator@P6AXPEAVNodeHandle@roswrap@@PEBU?$MarkerArray_@V?$allocator@X@std@@@visualization_msgs@@@Z@std@@@std@@@std@@PEAX@std@@@std@@@std@@QEAA@AEAV?$allocator@U?$_Tree_node@U?$pair@QEAVNodeHandle@roswrap@@V?$list@P6AXPEAVNodeHandle@roswrap@@PEBU?$MarkerArray_@V?$allocator@X@std@@@visualization_msgs@@@ZV?$allocator@P6AXPEAVNodeHandle@roswrap@@PEBU?$MarkerArray_@V?$allocator@X@std@@@visualization_msgs@@@Z@std@@@std@@@std@@PEAX@std@@@1@PEAU?$_Tree_node@U?$pair@QEAVNodeHandle@roswrap@@V?$list@P6AXPEAVNodeHandle@roswrap@@PEBU?$MarkerArray_@V?$allocator@X@std@@@visualization_msgs@@@ZV?$allocator@P6AXPEAVNodeHandle@roswrap@@PEBU?$MarkerArray_@V?$allocator@X@std@@@visualization_msgs@@@Z@std@@@std@@@std@@PEAX@1@AEBUpiecewise_construct_t@1@$$QEAV?$tuple@AEBQEAVNodeHandle@roswrap@@@1@$$QEAV?$tuple@$$V@1@@Z
	??$?0AEBUpiecewise_construct_t@std@@V?$tuple@AEBQEAVNodeHandle@roswrap@@@1@V?$tuple@$$V@1@@?$_Tree_temp_node@V?$allocator@U?$_Tree_node@U?$pair@QEAVNodeHandle@roswrap@@V?$list@P6AXPEAVNodeHandle@roswrap@@PEBU?$RadarScan_@V?$allocator@X@std@@@sick_scan_xd@@@ZV?$allocator@P6AXPEAVNodeHandle@roswrap@@PEBU?$RadarScan_@V?$allocator@X@std@@@sick_scan_xd@@@Z@std@@@std@@@std@@PEAX@std@@@std@@@std@@QEAA@AEAV?$allocator@U?$_Tree_node@U?$pair@QEAVNodeHandle@roswrap@@V?$list@P6AXPEAVNodeHandle@roswrap@@PEBU?$RadarScan_@V?$allocator@X@std@@@sick_scan_xd@@@ZV?$allocator@P6AXPEAVNodeHandle@roswrap@@PEBU?$RadarScan_@V?$allocator@X@std@@@sick_scan_xd@@@Z@std@@@std@@@std@@PEAX@std@@@1@PEAU?$_Tree_node@U?$pair@QEAVNodeHandle@roswrap@@V?$list@P6AXPEAVNodeHandle@roswrap@@PEBU?$RadarScan_@V?$allocator@X@std@@@sick_scan_xd@@@ZV?$allocator@P6AXPEAVNodeHandle@roswrap@@PEBU?$RadarScan_@V?$allocator@X@std@@@sick_scan_xd@@@Z@std@@@std@@@std@@PEAX@1@AEBUpiecewise_construct_t@1@$$QEAV?$tuple@AEBQEAVNodeHandle@roswrap@@@1@$$QEAV?$tuple@$$V@1@@Z
	??$?0AEBUpiecewise_construct_t@std@@V?$tuple@AEBQEAVNodeHandle@roswrap@@@1@V?$tuple@$$V@1@@?$_Tree_temp_node@V?$allocator@U?$_Tree_node@U?$pair@QEAVNodeHandle@roswrap@@V?$list@P6AXPEAVNodeHandle@roswrap@@PEBU?$SickLdmrsObjectArray_@V?$allocator@X@std@@@sick_scan_xd@@@ZV?$allocator@P6AXPEAVNodeHandle@roswrap@@PEBU?$SickLdmrsObjectArray_@V?$allocator@X@std@@@sick_scan_xd@@@Z@std@@@std@@@std@@PEAX@std@@@std@@@std@@QEAA@AEAV?$allocator@U?$_Tree_node@U?$pair@QEAVNodeHandle@roswrap@@V?$list@P6AXPEAVNodeHandle@roswrap@@PEBU?$SickLdmrsObjectArray_@V?$allocator@X@std@@@sick_scan_xd@@@ZV?$allocator@P6AXPEAVNodeHandle@roswrap@@PEBU?$SickLdmrsObjectArray_@V?$allocator@X@std@@@sick_scan_xd@@@Z@std@@@std@@@std@@PEAX@std@@@1@PEAU?$_Tree_node@U?$pair@QEAVNodeHandle@roswrap@@V?$list@P6AXPEAVNodeHandle@roswrap@@PEBU?$SickLdmrsObjectArray_@V?$allocator@X@std@@@sick_scan_xd@@@ZV?$allocator@P6AXPEAVNodeHandle@roswrap@@PEBU?$SickLdmrsObjectArray_@V?$allocator@X@std@@@sick_scan_xd@@@Z@std@@@std@@@std@@PEAX@1@AEBUpiecewise_construct_t@1@$$QEAV?$tuple@AEBQEAVNodeHandle@roswrap@@@1@$$QEAV?$tuple@$$V@1@@Z
	??$?0AEBUpiecewise_construct_t@std@@V?$tuple@AEBQEAVNodeHandle@roswrap@@@1@V?$tuple@$$V@1@@?$_Tree_temp_node@V?$allocator@U?$_Tree_node@U?$pair@QEAVNodeHandle@roswrap@@V?$list@P6AXPEAVNodeHandle@roswrap@@PEBUPointCloud2withEcho@sick_scan_xd@@@ZV?$allocator@P6AXPEAVNodeHandle@roswrap@@PEBUPointCloud2withEcho@sick_scan_xd@@@Z@std@@@std@@@std@@PEAX@std@@@std@@@std@@QEAA@AEAV?$allocator@U?$_Tree_node@U?$pair@QEAVNodeHandle@roswrap@@V?$list@P6AXPEAVNodeHandle@roswrap@@PEBUPointCloud2withEcho@sick_scan_xd@@@ZV?$allocator@P6AXPEAVNodeHandle@roswrap@@PEBUPointCloud2withEcho@sick_scan_xd@@@Z@std@@@std@@@std@@PEAX@std@@@1@PEAU?$_Tree_node@U?$pair@QEAVNodeHandle@roswrap@@V?$list@P6AXPEAVNodeHandle@roswrap@@PEBUPointCloud2withEcho@sick_scan_xd@@@ZV?$allocator@P6AXPEAVNodeHandle@roswrap@@PEBUPointCloud2withEcho@sick_scan_xd@@@Z@std@@@std@@@std@@PEAX@1@AEBUpiecewise_construct_t@1@$$QEAV?$tuple@AEBQEAVNodeHandle@roswrap@@@1@$$QEAV?$tuple@$$V@1@@Z
	??$?0AEBUpiecewise_construct_t@std@@V?$tuple@AEBQEAVNodeHandle@roswrap@@@1@V?$tuple@$$V@1@@?$_Tree_temp_node@V?$allocator@U?$_Tree_node@U?$pair@QEAVNodeHandle@roswrap@@V?$list@P6AXPEAVNodeHandle@roswrap@@PEBVNAV350mNPOSData@sick_scan_xd@@@ZV?$allocator@P6AXPEAVNodeHandle@roswrap@@PEBVNAV350mNPOSData@sick_scan_xd@@@Z@std@@@std@@@std@@PEAX@std@@@std@@@std@@QEAA@AEAV?$allocator@U?$_Tree_node@U?$pair@QEAVNodeHandle@roswrap@@V?$list@P6AXPEAVNodeHandle@roswrap@@PEBVNAV350mNPOSData@sick_scan_xd@@@ZV?$allocator@P6AXPEAVNodeHandle@roswrap@@PEBVNAV350mNPOSData@sick_scan_xd@@@Z@std@@@std@@@std@@PEAX@std@@@1@PEAU?$_Tree_node@U?$pair@QEAVNodeHandle@roswrap@@V?$list@P6AXPEAVNodeHandle@roswrap@@PEBVNAV350mNPOSData@sick_scan_xd@@@ZV?$allocator@P6AXPEAVNodeHandle@roswrap@@PEBVNAV350mNPOSData@sick_scan_xd@@@Z@std@@@std@@@std@@PEAX@1@AEBUpiecewise_construct_t@1@$$QEAV?$tuple@AEBQEAVNodeHandle@roswrap@@@1@$$QEAV?$tuple@$$V@1@@Z
	??$?0AEBUpiecewise_construct_t@std@@V?$tuple@AEBQEAX@1@V?$tuple@$$V@1@@?$_Tree_temp_node@V?$allocator@U?$_Tree_node@U?$pair@QEAXV?$basic_string@DU?$char_traits@D@std@@V?$allocator@D@2@@std@@@std@@PEAX@std@@@std@@@std@@QEAA@AEAV?$allocator@U?$_Tree_node@U?$pair@QEAXV?$basic_string@DU?$char_traits@D@std@@V?$allocator@D@2@@std@@@std@@PEAX@std@@@1@PEAU?$_Tree_node@U?$pair@QEAXV?$basic_string@DU?$char_traits@D@std@@V?$allocator@D@2@@std@@@std@@PEAX@1@AEBUpiecewise_construct_t@1@$$QEAV?$tuple@AEBQEAX@1@$$QEAV?$tuple@$$V@1@@Z
	??$?0AEBUpiecewise_construct_t@std@@V?$tuple@AEBQEAX@1@V?$tuple@$$V@1@@?$_Tree_temp_node@V?$allocator@U?$_Tree_node@U?$pair@QEAXV?$list@P6AXPEAXPEBUSickScanDiagnosticMsgType@@@ZV?$allocator@P6AXPEAXPEBUSickScanDiagnosticMsgType@@@Z@std@@@std@@@std@@PEAX@std@@@std@@@std@@QEAA@AEAV?$allocator@U?$_Tree_node@U?$pair@QEAXV?$list@P6AXPEAXPEBUSickScanDiagnosticMsgType@@@ZV?$allocator@P6AXPEAXPEBUSickScanDiagnosticMsgType@@@Z@std@@@std@@@std@@PEAX@std@@@1@PEAU?$_Tree_node@U?$pair@QEAXV?$list@P6AXPEAXPEBUSickScanDiagnosticMsgType@@@ZV?$allocator@P6AXPEAXPEBUSickScanDiagnosticMsgType@@@Z@std@@@std@@@std@@PEAX@1@AEBUpiecewise_construct_t@1@$$QEAV?$tuple@AEBQEAX@1@$$QEAV?$tuple@$$V@1@@Z
	??$?0AEBUpiecewise_construct_t@std@@V?$tuple@AEBQEAX@1@V?$tuple@$$V@1@@?$_Tree_temp_node@V?$allocator@U?$_Tree_node@U?$pair@QEAXV?$list@P6AXPEAXPEBUSickScanImuMsgType@@@ZV?$allocator@P6AXPEAXPEBUSickScanImuMsgType@@@Z@std@@@std@@@std@@PEAX@std@@@std@@@std@@QEAA@AEAV?$allocator@U?$_Tree_node@U?$pair@QEAXV?$list@P6AXPEAXPEBUSickScanImuMsgType@@@ZV?$allocator@P6AXPEAXPEBUSickScanImuMsgType@@@Z@std@@@std@@@std@@PEAX@std@@@1@PEAU?$_Tree_node@U?$pair@QEAXV?$list@P6AXPEAXPEBUSickScanImuMsgType@@@ZV?$allocator@P6AXPEAXPEBUSickScanImuMsgType@@@Z@std@@@std@@@std@@PEAX@1@AEBUpiecewise_construct_t@1@$$QEAV?$tuple@AEBQEAX@1@$$QEAV?$tuple@$$V@1@@Z
	??$?0AEBUpiecewise_construct_t@std@@V?$tuple@AEBQEAX@1@V?$tuple@$$V@1@@?$_Tree_temp_node@V?$allocator@U?$_Tree_node@U?$pair@QEAXV?$list@P6AXPEAXPEBUSickScanLFErecMsgType@@@ZV?$allocator@P6AXPEAXPEBUSickScanLFErecMsgType@@@Z@std@@@std@@@std@@PEAX@std@@@std@@@std@@QEAA@AEAV?$allocator@U?$_Tree_node@U?$pair@QEAXV?$list@P6AXPEAXPEBUSickScanLFErecMsgType@@@ZV?$allocator@P6AXPEAXPEBUSickScanLFErecMsgType@@@Z@std@@@std@@@std@@PEAX@std@@@1@PEAU?$_Tree_node@U?$pair@QEAXV?$list@P6AXPEAXPEBUSickScanLFErecMsgType@@@ZV?$allocator@P6AXPEAXPEBUSickScanLFErecMsgType@@@Z@std@@@std@@@std@@PEAX@1@AEBUpiecewise_construct_t@1@$$QEAV?$tuple@AEBQEAX@1@$$QEAV?$tuple@$$V@1@@Z
	??$?0AEBUpiecewise_construct_t@std@@V?$tuple@AEBQEAX@1@V?$tuple@$$V@1@@?$_Tree_temp_node@V?$allocator@U?$_Tree_node@U?$pair@QEAXV?$list@P6AXPEAXPEBUSickScanLIDoutputstateMsgType@@@ZV?$allocator@P6AXPEAXPEBUSickScanLIDoutputstateMsgType@@@Z@std@@@std@@@std@@PEAX@std@@@std@@@std@@QEAA@AEAV?$allocator@U?$_Tree_node@U?$pair@QEAXV?$list@P6AXPEAXPEBUSickScanLIDoutputstateMsgType@@@ZV?$allocator@P6AXPEAXPEBUSickScanLIDoutputstateMsgType@@@Z@std@@@std@@@std@@PEAX@std@@@1@PEAU?$_Tree_node@U?$pair@QEAXV?$list@P6AXPEAXPEBUSickScanLIDoutputstateMsgType@@@ZV?$allocator@P6AXPEAXPEBUSickScanLIDoutputstateMsgType@@@Z@std@@@std@@@std@@PEAX@1@AEBUpiecewise_construct_t@1@$$QEAV?$tuple@AEBQEAX@1@$$QEAV?$tuple@$$V@1@@Z
	??$?0AEBUpiecewise_construct_t@std@@V?$tuple@AEBQEAX@1@V?$tuple@$$V@1@@?$_Tree_temp_node@V?$allocator@U?$_Tree_node@U?$pair@QEAXV?$list@P6AXPEAXPEBUSickScanLdmrsObjectArrayType@@@ZV?$allocator@P6AXPEAXPEBUSickScanLdmrsObjectArrayType@@@Z@std@@@std@@@std@@PEAX@std@@@std@@@std@@QEAA@AEAV?$allocator@U?$_Tree_node@U?$pair@QEAXV?$list@P6AXPEAXPEBUSickScanLdmrsObjectArrayType@@@ZV?$allocator@P6AXPEAXPEBUSickScanLdmrsObjectArrayType@@@Z@std@@@std@@@std@@PEAX@std@@@1@PEAU?$_Tree_node@U?$pair@QEAXV?$list@P6AXPEAXPEBUSickScanLdmrsObjectArrayType@@@ZV?$allocator@P6AXPEAXPEBUSickScanLdmrsObjectArrayType@@@Z@std@@@std@@@std@@PEAX@1@AEBUpiecewise_construct_t@1@$$QEAV?$tuple@AEBQEAX@1@$$QEAV?$tuple@$$V@1@@Z
	??$?0AEBUpiecewise_construct_t@std@@V?$tuple@AEBQEAX@1@V?$tuple@$$V@1@@?$_Tree_temp_node@V?$allocator@U?$_Tree_node@U?$pair@QEAXV?$list@P6AXPEAXPEBUSickScanLogMsgType@@@ZV?$allocator@P6AXPEAXPEBUSickScanLogMsgType@@@Z@std@@@std@@@std@@PEAX@std@@@std@@@std@@QEAA@AEAV?$allocator@U?$_Tree_node@U?$pair@QEAXV?$list@P6AXPEAXPEBUSickScanLogMsgType@@@ZV?$allocator@P6AXPEAXPEBUSickScanLogMsgType@@@Z@std@@@std@@@std@@PEAX@std@@@1@PEAU?$_Tree_node@U?$pair@QEAXV?$list@P6AXPEAXPEBUSickScanLogMsgType@@@ZV?$allocator@P6AXPEAXPEBUSickScanLogMsgType@@@Z@std@@@std@@@std@@PEAX@1@AEBUpiecewise_construct_t@1@$$QEAV?$tuple@AEBQEAX@1@$$QEAV?$tuple@$$V@1@@Z
	??$?0AEBUpiecewise_construct_t@std@@V?$tuple@AEBQEAX@1@V?$tuple@$$V@1@@?$_Tree_temp_node@V?$allocator@U?$_Tree_node@U?$pair@QEAXV?$list@P6AXPEAXPEBUSickScanNavPoseLandmarkMsgType@@@ZV?$allocator@P6AXPEAXPEBUSickScanNavPoseLandmarkMsgType@@@Z@std@@@std@@@std@@PEAX@std@@@std@@@std@@QEAA@AEAV?$allocator@U?$_Tree_node@U?$pair@QEAXV?$list@P6AXPEAXPEBUSickScanNavPoseLandmarkMsgType@@@ZV?$allocator@P6AXPEAXPEBUSickScanNavPoseLandmarkMsgType@@@Z@std@@@std@@@std@@PEAX@std@@@1@PEAU?$_Tree_node@U?$pair@QEAXV?$list@P6AXPEAXPEBUSickScanNavPoseLandmarkMsgType@@@ZV?$allocator@P6AXPEAXPEBUSickScanNavPoseLandmarkMsgType@@@Z@std@@@std@@@std@@PEAX@1@AEBUpiecewise_construct_t@1@$$QEAV?$tuple@AEBQEAX@1@$$QEAV?$tuple@$$V@1@@Z
	??$?0AEBUpiecewise_construct_t@std@@V?$tuple@AEBQEAX@1@V?$tuple@$$V@1@@?$_Tree_temp_node@V?$allocator@U?$_Tree_node@U?$pair@QEAXV?$list@P6AXPEAXPEBUSickScanPointCloudMsgType@@@ZV?$allocator@P6AXPEAXPEBUSickScanPointCloudMsgType@@@Z@std@@@std@@@std@@PEAX@std@@@std@@@std@@QEAA@AEAV?$allocator@U?$_Tree_node@U?$pair@QEAXV?$list@P6AXPEAXPEBUSickScanPointCloudMsgType@@@ZV?$allocator@P6AXPEAXPEBUSickScanPointCloudMsgType@@@Z@std@@@std@@@std@@PEAX@std@@@1@PEAU?$_Tree_node@U?$pair@QEAXV?$list@P6AXPEAXPEBUSickScanPointCloudMsgType@@@ZV?$allocator@P6AXPEAXPEBUSickScanPointCloudMsgType@@@Z@std@@@std@@@std@@PEAX@1@AEBUpiecewise_construct_t@1@$$QEAV?$tuple@AEBQEAX@1@$$QEAV?$tuple@$$V@1@@Z
	??$?0AEBUpiecewise_construct_t@std@@V?$tuple@AEBQEAX@1@V?$tuple@$$V@1@@?$_Tree_temp_node@V?$allocator@U?$_Tree_node@U?$pair@QEAXV?$list@P6AXPEAXPEBUSickScanRadarScanType@@@ZV?$allocator@P6AXPEAXPEBUSickScanRadarScanType@@@Z@std@@@std@@@std@@PEAX@std@@@std@@@std@@QEAA@AEAV?$allocator@U?$_Tree_node@U?$pair@QEAXV?$list@P6AXPEAXPEBUSickScanRadarScanType@@@ZV?$allocator@P6AXPEAXPEBUSickScanRadarScanType@@@Z@std@@@std@@@std@@PEAX@std@@@1@PEAU?$_Tree_node@U?$pair@QEAXV?$list@P6AXPEAXPEBUSickScanRadarScanType@@@ZV?$allocator@P6AXPEAXPEBUSickScanRadarScanType@@@Z@std@@@std@@@std@@PEAX@1@AEBUpiecewise_construct_t@1@$$QEAV?$tuple@AEBQEAX@1@$$QEAV?$tuple@$$V@1@@Z
	??$?0AEBUpiecewise_construct_t@std@@V?$tuple@AEBQEAX@1@V?$tuple@$$V@1@@?$_Tree_temp_node@V?$allocator@U?$_Tree_node@U?$pair@QEAXV?$list@P6AXPEAXPEBUSickScanVisualizationMarkerMsgType@@@ZV?$allocator@P6AXPEAXPEBUSickScanVisualizationMarkerMsgType@@@Z@std@@@std@@@std@@PEAX@std@@@std@@@std@@QEAA@AEAV?$allocator@U?$_Tree_node@U?$pair@QEAXV?$list@P6AXPEAXPEBUSickScanVisualizationMarkerMsgType@@@ZV?$allocator@P6AXPEAXPEBUSickScanVisualizationMarkerMsgType@@@Z@std@@@std@@@std@@PEAX@std@@@1@PEAU?$_Tree_node@U?$pair@QEAXV?$list@P6AXPEAXPEBUSickScanVisualizationMarkerMsgType@@@ZV?$allocator@P6AXPEAXPEBUSickScanVisualizationMarkerMsgType@@@Z@std@@@std@@@std@@PEAX@1@AEBUpiecewise_construct_t@1@$$QEAV?$tuple@AEBQEAX@1@$$QEAV?$tuple@$$V@1@@Z
	??$?0AEBUpiecewise_construct_t@std@@V?$tuple@AEBV?$basic_string@DU?$char_traits@D@std@@V?$allocator@D@2@@std@@@1@V?$tuple@$$V@1@@?$_Tree_temp_node@V?$allocator@U?$_Tree_node@U?$pair@$$CBV?$basic_string@DU?$char_traits@D@std@@V?$allocator@D@2@@std@@V12@@std@@PEAX@std@@@std@@@std@@QEAA@AEAV?$allocator@U?$_Tree_node@U?$pair@$$CBV?$basic_string@DU?$char_traits@D@std@@V?$allocator@D@2@@std@@V12@@std@@PEAX@std@@@1@PEAU?$_Tree_node@U?$pair@$$CBV?$basic_string@DU?$char_traits@D@std@@V?$allocator@D@2@@std@@V12@@std@@PEAX@1@AEBUpiecewise_construct_t@1@$$QEAV?$tuple@AEBV?$basic_string@DU?$char_traits@D@std@@V?$allocator@D@2@@std@@@1@$$QEAV?$tuple@$$V@1@@Z
	??$?0AEBUpiecewise_construct_t@std@@V?$tuple@AEBV?$basic_string@DU?$char_traits@D@std@@V?$allocator@D@2@@std@@@1@V?$tuple@$$V@1@@?$_Tree_temp_node@V?$allocator@U?$_Tree_node@U?$pair@$$CBV?$basic_string@DU?$char_traits@D@std@@V?$allocator@D@2@@std@@_N@std@@PEAX@std@@@std@@@std@@QEAA@AEAV?$allocator@U?$_Tree_node@U?$pair@$$CBV?$basic_string@DU?$char_traits@D@std@@V?$allocator@D@2@@std@@_N@std@@PEAX@std@@@1@PEAU?$_Tree_node@U?$pair@$$CBV?$basic_string@DU?$char_traits@D@std@@V?$allocator@D@2@@std@@_N@std@@PEAX@1@AEBUpiecewise_construct_t@1@$$QEAV?$tuple@AEBV?$basic_string@DU?$char_traits@D@std@@V?$allocator@D@2@@std@@@1@$$QEAV?$tuple@$$V@1@@Z
	??$?0AEBV?$_Binder@U_Unforced@std@@A6A?AVSerializedMessage@roswrap@@AEBU?$Imu_@V?$allocator@X@std@@@sensor_msgs@@@ZV?$reference_wrapper@$$CBU?$Imu_@V?$allocator@X@std@@@sensor_msgs@@@2@@std@@$0A@@?$_Func_impl_no_alloc@V?$_Binder@U_Unforced@std@@A6A?AVSerializedMessage@roswrap@@AEBU?$Imu_@V?$allocator@X@std@@@sensor_msgs@@@ZV?$reference_wrapper@$$CBU?$Imu_@V?$allocator@X@std@@@sensor_msgs@@@2@@std@@VSerializedMessage@roswrap@@$$V@std@@QEAA@AEBV?$_Binder@U_Unforced@std@@A6A?AVSerializedMessage@roswrap@@AEBU?$Imu_@V?$allocator@X@std@@@sensor_msgs@@@ZV?$reference_wrapper@$$CBU?$Imu_@V?$allocator@X@std@@@sensor_msgs@@@2@@1@@Z
	??$?0AEBV?$_Binder@U_Unforced@std@@A6A?AVSerializedMessage@roswrap@@AEBU?$LFErecMsg_@V?$allocator@X@std@@@sick_scan_xd@@@ZV?$reference_wrapper@$$CBU?$LFErecMsg_@V?$allocator@X@std@@@sick_scan_xd@@@2@@std@@$0A@@?$_Func_impl_no_alloc@V?$_Binder@U_Unforced@std@@A6A?AVSerializedMessage@roswrap@@AEBU?$LFErecMsg_@V?$allocator@X@std@@@sick_scan_xd@@@ZV?$reference_wrapper@$$CBU?$LFErecMsg_@V?$allocator@X@std@@@sick_scan_xd@@@2@@std@@VSerializedMessage@roswrap@@$$V@std@@QEAA@AEBV?$_Binder@U_Unforced@std@@A6A?AVSerializedMessage@roswrap@@AEBU?$LFErecMsg_@V?$allocator@X@std@@@sick_scan_xd@@@ZV?$reference_wrapper@$$CBU?$LFErecMsg_@V?$allocator@X@std@@@sick_scan_xd@@@2@@1@@Z
	??$?0AEBV?$_Binder@U_Unforced@std@@A6A?AVSerializedMessage@roswrap@@AEBU?$LIDinputstateMsg_@V?$allocator@X@std@@@sick_scan_xd@@@ZV?$reference_wrapper@$$CBU?$LIDinputstateMsg_@V?$allocator@X@std@@@sick_scan_xd@@@2@@std@@$0A@@?$_Func_impl_no_alloc@V?$_Binder@U_Unforced@std@@A6A?AVSerializedMessage@roswrap@@AEBU?$LIDinputstateMsg_@V?$allocator@X@std@@@sick_scan_xd@@@ZV?$reference_wrapper@$$CBU?$LIDinputstateMsg_@V?$allocator@X@std@@@sick_scan_xd@@@2@@std@@VSerializedMessage@roswrap@@$$V@std@@QEAA@AEBV?$_Binder@U_Unforced@std@@A6A?AVSerializedMessage@roswrap@@AEBU?$LIDinputstateMsg_@V?$allocator@X@std@@@sick_scan_xd@@@ZV?$reference_wrapper@$$CBU?$LIDinputstateMsg_@V?$allocator@X@std@@@sick_scan_xd@@@2@@1@@Z
	??$?0AEBV?$_Binder@U_Unforced@std@@A6A?AVSerializedMessage@roswrap@@AEBU?$LIDoutputstateMsg_@V?$allocator@X@std@@@sick_scan_xd@@@ZV?$reference_wrapper@$$CBU?$LIDoutputstateMsg_@V?$allocator@X@std@@@sick_scan_xd@@@2@@std@@$0A@@?$_Func_impl_no_alloc@V?$_Binder@U_Unforced@std@@A6A?AVSerializedMessage@roswrap@@AEBU?$LIDoutputstateMsg_@V?$allocator@X@std@@@sick_scan_xd@@@ZV?$reference_wrapper@$$CBU?$LIDoutputstateMsg_@V?$allocator@X@std@@@sick_scan_xd@@@2@@std@@VSerializedMessage@roswrap@@$$V@std@@QEAA@AEBV?$_Binder@U_Unforced@std@@A6A?AVSerializedMessage@roswrap@@AEBU?$LIDoutputstateMsg_@V?$allocator@X@std@@@sick_scan_xd@@@ZV?$reference_wrapper@$$CBU?$LIDoutputstateMsg_@V?$allocator@X@std@@@sick_scan_xd@@@2@@1@@Z
	??$?0AEBV?$_Binder@U_Unforced@std@@A6A?AVSerializedMessage@roswrap@@AEBU?$MarkerArray_@V?$allocator@X@std@@@visualization_msgs@@@ZV?$reference_wrapper@$$CBU?$MarkerArray_@V?$allocator@X@std@@@visualization_msgs@@@2@@std@@$0A@@?$_Func_impl_no_alloc@V?$_Binder@U_Unforced@std@@A6A?AVSerializedMessage@roswrap@@AEBU?$MarkerArray_@V?$allocator@X@std@@@visualization_msgs@@@ZV?$reference_wrapper@$$CBU?$MarkerArray_@V?$allocator@X@std@@@visualization_msgs@@@2@@std@@VSerializedMessage@roswrap@@$$V@std@@QEAA@AEBV?$_Binder@U_Unforced@std@@A6A?AVSerializedMessage@roswrap@@AEBU?$MarkerArray_@V?$allocator@X@std@@@visualization_msgs@@@ZV?$reference_wrapper@$$CBU?$MarkerArray_@V?$allocator@X@std@@@visualization_msgs@@@2@@1@@Z
	??$?0AEBV?$_Binder@U_Unforced@std@@A6A?AVSerializedMessage@roswrap@@AEBU?$NAVLandmarkData_@V?$allocator@X@std@@@sick_scan_xd@@@ZV?$reference_wrapper@$$CBU?$NAVLandmarkData_@V?$allocator@X@std@@@sick_scan_xd@@@2@@std@@$0A@@?$_Func_impl_no_alloc@V?$_Binder@U_Unforced@std@@A6A?AVSerializedMessage@roswrap@@AEBU?$NAVLandmarkData_@V?$allocator@X@std@@@sick_scan_xd@@@ZV?$reference_wrapper@$$CBU?$NAVLandmarkData_@V?$allocator@X@std@@@sick_scan_xd@@@2@@std@@VSerializedMessage@roswrap@@$$V@std@@QEAA@AEBV?$_Binder@U_Unforced@std@@A6A?AVSerializedMessage@roswrap@@AEBU?$NAVLandmarkData_@V?$allocator@X@std@@@sick_scan_xd@@@ZV?$reference_wrapper@$$CBU?$NAVLandmarkData_@V?$allocator@X@std@@@sick_scan_xd@@@2@@1@@Z
	??$?0AEBV?$_Binder@U_Unforced@std@@A6A?AVSerializedMessage@roswrap@@AEBU?$NAVPoseData_@V?$allocator@X@std@@@sick_scan_xd@@@ZV?$reference_wrapper@$$CBU?$NAVPoseData_@V?$allocator@X@std@@@sick_scan_xd@@@2@@std@@$0A@@?$_Func_impl_no_alloc@V?$_Binder@U_Unforced@std@@A6A?AVSerializedMessage@roswrap@@AEBU?$NAVPoseData_@V?$allocator@X@std@@@sick_scan_xd@@@ZV?$reference_wrapper@$$CBU?$NAVPoseData_@V?$allocator@X@std@@@sick_scan_xd@@@2@@std@@VSerializedMessage@roswrap@@$$V@std@@QEAA@AEBV?$_Binder@U_Unforced@std@@A6A?AVSerializedMessage@roswrap@@AEBU?$NAVPoseData_@V?$allocator@X@std@@@sick_scan_xd@@@ZV?$reference_wrapper@$$CBU?$NAVPoseData_@V?$allocator@X@std@@@sick_scan_xd@@@2@@1@@Z
	??$?0AEBV?$_Binder@U_Unforced@std@@A6A?AVSerializedMessage@roswrap@@AEBU?$RadarScan_@V?$allocator@X@std@@@sick_scan_xd@@@ZV?$reference_wrapper@$$CBU?$RadarScan_@V?$allocator@X@std@@@sick_scan_xd@@@2@@std@@$0A@@?$_Func_impl_no_alloc@V?$_Binder@U_Unforced@std@@A6A?AVSerializedMessage@roswrap@@AEBU?$RadarScan_@V?$allocator@X@std@@@sick_scan_xd@@@ZV?$reference_wrapper@$$CBU?$RadarScan_@V?$allocator@X@std@@@sick_scan_xd@@@2@@std@@VSerializedMessage@roswrap@@$$V@std@@QEAA@AEBV?$_Binder@U_Unforced@std@@A6A?AVSerializedMessage@roswrap@@AEBU?$RadarScan_@V?$allocator@X@std@@@sick_scan_xd@@@ZV?$reference_wrapper@$$CBU?$RadarScan_@V?$allocator@X@std@@@sick_scan_xd@@@2@@1@@Z
	??$?0AEBV?$_Binder@U_Unforced@std@@A6A?AVSerializedMessage@roswrap@@AEBU?$String_@V?$allocator@X@std@@@std_msgs@@@ZV?$reference_wrapper@$$CBU?$String_@V?$allocator@X@std@@@std_msgs@@@2@@std@@$0A@@?$_Func_impl_no_alloc@V?$_Binder@U_Unforced@std@@A6A?AVSerializedMessage@roswrap@@AEBU?$String_@V?$allocator@X@std@@@std_msgs@@@ZV?$reference_wrapper@$$CBU?$String_@V?$allocator@X@std@@@std_msgs@@@2@@std@@VSerializedMessage@roswrap@@$$V@std@@QEAA@AEBV?$_Binder@U_Unforced@std@@A6A?AVSerializedMessage@roswrap@@AEBU?$String_@V?$allocator@X@std@@@std_msgs@@@ZV?$reference_wrapper@$$CBU?$String_@V?$allocator@X@std@@@std_msgs@@@2@@1@@Z
	??$?0AEBV?$_Binder@U_Unforced@std@@AEAP8SickScanServices@sick_scan_xd@@EAA_NAEAU?$ColaMsgSrvRequest_@V?$allocator@X@std@@@4@AEAU?$ColaMsgSrvResponse_@V?$allocator@X@std@@@4@@ZAEAPEAV34@AEBU?$_Ph@$00@2@AEBU?$_Ph@$01@2@@std@@$0A@@?$_Func_impl_no_alloc@V?$_Binder@U_Unforced@std@@AEAP8SickScanServices@sick_scan_xd@@EAA_NAEAU?$ColaMsgSrvRequest_@V?$allocator@X@std@@@4@AEAU?$ColaMsgSrvResponse_@V?$allocator@X@std@@@4@@ZAEAPEAV34@AEBU?$_Ph@$00@2@AEBU?$_Ph@$01@2@@std@@_NAEAU?$ColaMsgSrvRequest_@V?$allocator@X@std@@@sick_scan_xd@@AEAU?$ColaMsgSrvResponse_@V?$allocator@X@std@@@4@@std@@QEAA@AEBV?$_Binder@U_Unforced@std@@AEAP8SickScanServices@sick_scan_xd@@EAA_NAEAU?$ColaMsgSrvRequest_@V?$allocator@X@std@@@4@AEAU?$ColaMsgSrvResponse_@V?$allocator@X@std@@@4@@ZAEAPEAV34@AEBU?$_Ph@$00@2@AEBU?$_Ph@$01@2@@1@@Z
	??$?0AEBV?$_Binder@U_Unforced@std@@AEAP8SickScanServices@sick_scan_xd@@EAA_NAEAU?$ECRChangeArrSrvRequest_@V?$allocator@X@std@@@4@AEAU?$ECRChangeArrSrvResponse_@V?$allocator@X@std@@@4@@ZAEAPEAV34@AEBU?$_Ph@$00@2@AEBU?$_Ph@$01@2@@std@@$0A@@?$_Func_impl_no_alloc@V?$_Binder@U_Unforced@std@@AEAP8SickScanServices@sick_scan_xd@@EAA_NAEAU?$ECRChangeArrSrvRequest_@V?$allocator@X@std@@@4@AEAU?$ECRChangeArrSrvResponse_@V?$allocator@X@std@@@4@@ZAEAPEAV34@AEBU?$_Ph@$00@2@AEBU?$_Ph@$01@2@@std@@_NAEAU?$ECRChangeArrSrvRequest_@V?$allocator@X@std@@@sick_scan_xd@@AEAU?$ECRChangeArrSrvResponse_@V?$allocator@X@std@@@4@@std@@QEAA@AEBV?$_Binder@U_Unforced@std@@AEAP8SickScanServices@sick_scan_xd@@EAA_NAEAU?$ECRChangeArrSrvRequest_@V?$allocator@X@std@@@4@AEAU?$ECRChangeArrSrvResponse_@V?$allocator@X@std@@@4@@ZAEAPEAV34@AEBU?$_Ph@$00@2@AEBU?$_Ph@$01@2@@1@@Z
	??$?0AEBV?$_Binder@U_Unforced@std@@AEAP8SickScanServices@sick_scan_xd@@EAA_NAEAU?$GetContaminationResultSrvRequest_@V?$allocator@X@std@@@4@AEAU?$GetContaminationResultSrvResponse_@V?$allocator@X@std@@@4@@ZAEAPEAV34@AEBU?$_Ph@$00@2@AEBU?$_Ph@$01@2@@std@@$0A@@?$_Func_impl_no_alloc@V?$_Binder@U_Unforced@std@@AEAP8SickScanServices@sick_scan_xd@@EAA_NAEAU?$GetContaminationResultSrvRequest_@V?$allocator@X@std@@@4@AEAU?$GetContaminationResultSrvResponse_@V?$allocator@X@std@@@4@@ZAEAPEAV34@AEBU?$_Ph@$00@2@AEBU?$_Ph@$01@2@@std@@_NAEAU?$GetContaminationResultSrvRequest_@V?$allocator@X@std@@@sick_scan_xd@@AEAU?$GetContaminationResultSrvResponse_@V?$allocator@X@std@@@4@@std@@QEAA@AEBV?$_Binder@U_Unforced@std@@AEAP8SickScanServices@sick_scan_xd@@EAA_NAEAU?$GetContaminationResultSrvRequest_@V?$allocator@X@std@@@4@AEAU?$GetContaminationResultSrvResponse_@V?$allocator@X@std@@@4@@ZAEAPEAV34@AEBU?$_Ph@$00@2@AEBU?$_Ph@$01@2@@1@@Z
	??$?0AEBV?$_Binder@U_Unforced@std@@AEAP8SickScanServices@sick_scan_xd@@EAA_NAEAU?$LIDoutputstateSrvRequest_@V?$allocator@X@std@@@4@AEAU?$LIDoutputstateSrvResponse_@V?$allocator@X@std@@@4@@ZAEAPEAV34@AEBU?$_Ph@$00@2@AEBU?$_Ph@$01@2@@std@@$0A@@?$_Func_impl_no_alloc@V?$_Binder@U_Unforced@std@@AEAP8SickScanServices@sick_scan_xd@@EAA_NAEAU?$LIDoutputstateSrvRequest_@V?$allocator@X@std@@@4@AEAU?$LIDoutputstateSrvResponse_@V?$allocator@X@std@@@4@@ZAEAPEAV34@AEBU?$_Ph@$00@2@AEBU?$_Ph@$01@2@@std@@_NAEAU?$LIDoutputstateSrvRequest_@V?$allocator@X@std@@@sick_scan_xd@@AEAU?$LIDoutputstateSrvResponse_@V?$allocator@X@std@@@4@@std@@QEAA@AEBV?$_Binder@U_Unforced@std@@AEAP8SickScanServices@sick_scan_xd@@EAA_NAEAU?$LIDoutputstateSrvRequest_@V?$allocator@X@std@@@4@AEAU?$LIDoutputstateSrvResponse_@V?$allocator@X@std@@@4@@ZAEAPEAV34@AEBU?$_Ph@$00@2@AEBU?$_Ph@$01@2@@1@@Z
	??$?0AEBV?$_Binder@U_Unforced@std@@AEAP8SickScanServices@sick_scan_xd@@EAA_NAEAU?$SCdevicestateSrvRequest_@V?$allocator@X@std@@@4@AEAU?$SCdevicestateSrvResponse_@V?$allocator@X@std@@@4@@ZAEAPEAV34@AEBU?$_Ph@$00@2@AEBU?$_Ph@$01@2@@std@@$0A@@?$_Func_impl_no_alloc@V?$_Binder@U_Unforced@std@@AEAP8SickScanServices@sick_scan_xd@@EAA_NAEAU?$SCdevicestateSrvRequest_@V?$allocator@X@std@@@4@AEAU?$SCdevicestateSrvResponse_@V?$allocator@X@std@@@4@@ZAEAPEAV34@AEBU?$_Ph@$00@2@AEBU?$_Ph@$01@2@@std@@_NAEAU?$SCdevicestateSrvRequest_@V?$allocator@X@std@@@sick_scan_xd@@AEAU?$SCdevicestateSrvResponse_@V?$allocator@X@std@@@4@@std@@QEAA@AEBV?$_Binder@U_Unforced@std@@AEAP8SickScanServices@sick_scan_xd@@EAA_NAEAU?$SCdevicestateSrvRequest_@V?$allocator@X@std@@@4@AEAU?$SCdevicestateSrvResponse_@V?$allocator@X@std@@@4@@ZAEAPEAV34@AEBU?$_Ph@$00@2@AEBU?$_Ph@$01@2@@1@@Z
	??$?0AEBV?$_Binder@U_Unforced@std@@AEAP8SickScanServices@sick_scan_xd@@EAA_NAEAU?$SCrebootSrvRequest_@V?$allocator@X@std@@@4@AEAU?$SCrebootSrvResponse_@V?$allocator@X@std@@@4@@ZAEAPEAV34@AEBU?$_Ph@$00@2@AEBU?$_Ph@$01@2@@std@@$0A@@?$_Func_impl_no_alloc@V?$_Binder@U_Unforced@std@@AEAP8SickScanServices@sick_scan_xd@@EAA_NAEAU?$SCrebootSrvRequest_@V?$allocator@X@std@@@4@AEAU?$SCrebootSrvResponse_@V?$allocator@X@std@@@4@@ZAEAPEAV34@AEBU?$_Ph@$00@2@AEBU?$_Ph@$01@2@@std@@_NAEAU?$SCrebootSrvRequest_@V?$allocator@X@std@@@sick_scan_xd@@AEAU?$SCrebootSrvResponse_@V?$allocator@X@std@@@4@@std@@QEAA@AEBV?$_Binder@U_Unforced@std@@AEAP8SickScanServices@sick_scan_xd@@EAA_NAEAU?$SCrebootSrvRequest_@V?$allocator@X@std@@@4@AEAU?$SCrebootSrvResponse_@V?$allocator@X@std@@@4@@ZAEAPEAV34@AEBU?$_Ph@$00@2@AEBU?$_Ph@$01@2@@1@@Z
	??$?0AEBV?$_Binder@U_Unforced@std@@AEAP8SickScanServices@sick_scan_xd@@EAA_NAEAU?$SCsoftresetSrvRequest_@V?$allocator@X@std@@@4@AEAU?$SCsoftresetSrvResponse_@V?$allocator@X@std@@@4@@ZAEAPEAV34@AEBU?$_Ph@$00@2@AEBU?$_Ph@$01@2@@std@@$0A@@?$_Func_impl_no_alloc@V?$_Binder@U_Unforced@std@@AEAP8SickScanServices@sick_scan_xd@@EAA_NAEAU?$SCsoftresetSrvRequest_@V?$allocator@X@std@@@4@AEAU?$SCsoftresetSrvResponse_@V?$allocator@X@std@@@4@@ZAEAPEAV34@AEBU?$_Ph@$00@2@AEBU?$_Ph@$01@2@@std@@_NAEAU?$SCsoftresetSrvRequest_@V?$allocator@X@std@@@sick_scan_xd@@AEAU?$SCsoftresetSrvResponse_@V?$allocator@X@std@@@4@@std@@QEAA@AEBV?$_Binder@U_Unforced@std@@AEAP8SickScanServices@sick_scan_xd@@EAA_NAEAU?$SCsoftresetSrvRequest_@V?$allocator@X@std@@@4@AEAU?$SCsoftresetSrvResponse_@V?$allocator@X@std@@@4@@ZAEAPEAV34@AEBU?$_Ph@$00@2@AEBU?$_Ph@$01@2@@1@@Z
	??$?0AEBV?$_Binder@U_Unforced@std@@AEAP8SickScanServices@sick_scan_xd@@EAA_NAEAU?$SickScanExitSrvRequest_@V?$allocator@X@std@@@4@AEAU?$SickScanExitSrvResponse_@V?$allocator@X@std@@@4@@ZAEAPEAV34@AEBU?$_Ph@$00@2@AEBU?$_Ph@$01@2@@std@@$0A@@?$_Func_impl_no_alloc@V?$_Binder@U_Unforced@std@@AEAP8SickScanServices@sick_scan_xd@@EAA_NAEAU?$SickScanExitSrvRequest_@V?$allocator@X@std@@@4@AEAU?$SickScanExitSrvResponse_@V?$allocator@X@std@@@4@@ZAEAPEAV34@AEBU?$_Ph@$00@2@AEBU?$_Ph@$01@2@@std@@_NAEAU?$SickScanExitSrvRequest_@V?$allocator@X@std@@@sick_scan_xd@@AEAU?$SickScanExitSrvResponse_@V?$allocator@X@std@@@4@@std@@QEAA@AEBV?$_Binder@U_Unforced@std@@AEAP8SickScanServices@sick_scan_xd@@EAA_NAEAU?$SickScanExitSrvRequest_@V?$allocator@X@std@@@4@AEAU?$SickScanExitSrvResponse_@V?$allocator@X@std@@@4@@ZAEAPEAV34@AEBU?$_Ph@$00@2@AEBU?$_Ph@$01@2@@1@@Z
	??$?0AEBV?$allocator@D@std@@$$V@?$_Compressed_pair@V?$allocator@D@std@@V?$_String_val@U?$_Simple_types@D@std@@@2@$00@std@@QEAA@U_One_then_variadic_args_t@1@AEBV?$allocator@D@1@@Z
	??$?0AEBV?$allocator@E@std@@$$V@?$_Compressed_pair@V?$allocator@E@std@@V?$_Vector_val@U?$_Simple_types@E@std@@@2@$00@std@@QEAA@U_One_then_variadic_args_t@1@AEBV?$allocator@E@1@@Z
	??$?0AEBV?$allocator@G@std@@$$V@?$_Compressed_pair@V?$allocator@G@std@@V?$_Vector_val@U?$_Simple_types@G@std@@@2@$00@std@@QEAA@U_One_then_variadic_args_t@1@AEBV?$allocator@G@1@@Z
	??$?0AEBV?$allocator@H@std@@$$V@?$_Compressed_pair@V?$allocator@H@std@@V?$_Vector_val@U?$_Simple_types@H@std@@@2@$00@std@@QEAA@U_One_then_variadic_args_t@1@AEBV?$allocator@H@1@@Z
	??$?0AEBV?$allocator@I@std@@$$V@?$_Compressed_pair@V?$allocator@I@std@@V?$_Vector_val@U?$_Simple_types@I@std@@@2@$00@std@@QEAA@U_One_then_variadic_args_t@1@AEBV?$allocator@I@1@@Z
	??$?0AEBV?$allocator@M@std@@$$V@?$_Compressed_pair@V?$allocator@M@std@@V?$_Vector_val@U?$_Simple_types@M@std@@@2@$00@std@@QEAA@U_One_then_variadic_args_t@1@AEBV?$allocator@M@1@@Z
	??$?0AEBV?$allocator@U?$ColorRGBA_@V?$allocator@X@std@@@std_msgs@@@std@@$$V@?$_Compressed_pair@V?$allocator@U?$ColorRGBA_@V?$allocator@X@std@@@std_msgs@@@std@@V?$_Vector_val@U?$_Simple_types@U?$ColorRGBA_@V?$allocator@X@std@@@std_msgs@@@std@@@2@$00@std@@QEAA@U_One_then_variadic_args_t@1@AEBV?$allocator@U?$ColorRGBA_@V?$allocator@X@std@@@std_msgs@@@1@@Z
	??$?0AEBV?$allocator@USickScanPointFieldMsgType@@@std@@$$V@?$_Compressed_pair@V?$allocator@USickScanPointFieldMsgType@@@std@@V?$_Vector_val@U?$_Simple_types@USickScanPointFieldMsgType@@@std@@@2@$00@std@@QEAA@U_One_then_variadic_args_t@1@AEBV?$allocator@USickScanPointFieldMsgType@@@1@@Z
	??$?0AEBV?$allocator@V?$basic_string@DU?$char_traits@D@std@@V?$allocator@D@2@@std@@@std@@$$V@?$_Compressed_pair@V?$allocator@V?$basic_string@DU?$char_traits@D@std@@V?$allocator@D@2@@std@@@std@@V?$_Vector_val@U?$_Simple_types@V?$basic_string@DU?$char_traits@D@std@@V?$allocator@D@2@@std@@@std@@@2@$00@std@@QEAA@U_One_then_variadic_args_t@1@AEBV?$allocator@V?$basic_string@DU?$char_traits@D@std@@V?$allocator@D@2@@std@@@1@@Z
	??$?0AEBV?$allocator@V?$vector@EV?$allocator@E@std@@@std@@@std@@$$V@?$_Compressed_pair@V?$allocator@V?$vector@EV?$allocator@E@std@@@std@@@std@@V?$_Vector_val@U?$_Simple_types@V?$vector@EV?$allocator@E@std@@@std@@@std@@@2@$00@std@@QEAA@U_One_then_variadic_args_t@1@AEBV?$allocator@V?$vector@EV?$allocator@E@std@@@std@@@1@@Z
	??$?0AEBV?$allocator@V?$vector@VPointXYZRAEI32f@sick_scansegment_xd@@V?$allocator@VPointXYZRAEI32f@sick_scansegment_xd@@@std@@@std@@@std@@$$V@?$_Compressed_pair@V?$allocator@V?$vector@VPointXYZRAEI32f@sick_scansegment_xd@@V?$allocator@VPointXYZRAEI32f@sick_scansegment_xd@@@std@@@std@@@std@@V?$_Vector_val@U?$_Simple_types@V?$vector@VPointXYZRAEI32f@sick_scansegment_xd@@V?$allocator@VPointXYZRAEI32f@sick_scansegment_xd@@@std@@@std@@@std@@@2@$00@std@@QEAA@U_One_then_variadic_args_t@1@AEBV?$allocator@V?$vector@VPointXYZRAEI32f@sick_scansegment_xd@@V?$allocator@VPointXYZRAEI32f@sick_scansegment_xd@@@std@@@std@@@1@@Z
	??$?0AEBV?$allocator@VFieldInfo@SickScanMarker@sick_scan_xd@@@std@@$$V@?$_Compressed_pair@V?$allocator@VFieldInfo@SickScanMarker@sick_scan_xd@@@std@@V?$_Vector_val@U?$_Simple_types@VFieldInfo@SickScanMarker@sick_scan_xd@@@std@@@2@$00@std@@QEAA@U_One_then_variadic_args_t@1@AEBV?$allocator@VFieldInfo@SickScanMarker@sick_scan_xd@@@1@@Z
	??$?0AEBV?$allocator@VLidarPoint@ScanSegmentParserOutput@sick_scansegment_xd@@@std@@$$V@?$_Compressed_pair@V?$allocator@VLidarPoint@ScanSegmentParserOutput@sick_scansegment_xd@@@std@@V?$_Vector_val@U?$_Simple_types@VLidarPoint@ScanSegmentParserOutput@sick_scansegment_xd@@@std@@@2@$00@std@@QEAA@U_One_then_variadic_args_t@1@AEBV?$allocator@VLidarPoint@ScanSegmentParserOutput@sick_scansegment_xd@@@1@@Z
	??$?0AEBV?$allocator@VMsgPack@msgpack11@@@std@@$$V@?$_Compressed_pair@V?$allocator@VMsgPack@msgpack11@@@std@@V?$_Vector_val@U?$_Simple_types@VMsgPack@msgpack11@@@std@@@2@$00@std@@QEAA@U_One_then_variadic_args_t@1@AEBV?$allocator@VMsgPack@msgpack11@@@1@@Z
	??$?0AEBV?$allocator@VMsgPackElement@@@std@@$$V@?$_Compressed_pair@V?$allocator@VMsgPackElement@@@std@@V?$_Vector_val@U?$_Simple_types@VMsgPackElement@@@std@@@2@$00@std@@QEAA@U_One_then_variadic_args_t@1@AEBV?$allocator@VMsgPackElement@@@1@@Z
	??$?0AEBV?$allocator@VMsgPackToFloat32VectorConverter@@@std@@$$V@?$_Compressed_pair@V?$allocator@VMsgPackToFloat32VectorConverter@@@std@@V?$_Vector_val@U?$_Simple_types@VMsgPackToFloat32VectorConverter@@@std@@@2@$00@std@@QEAA@U_One_then_variadic_args_t@1@AEBV?$allocator@VMsgPackToFloat32VectorConverter@@@1@@Z
	??$?0AEBV?$allocator@VNAV350ImkLandmark@sick_scan_xd@@@std@@$$V@?$_Compressed_pair@V?$allocator@VNAV350ImkLandmark@sick_scan_xd@@@std@@V?$_Vector_val@U?$_Simple_types@VNAV350ImkLandmark@sick_scan_xd@@@std@@@2@$00@std@@QEAA@U_One_then_variadic_args_t@1@AEBV?$allocator@VNAV350ImkLandmark@sick_scan_xd@@@1@@Z
	??$?0AEBV?$allocator@VNAV350ReflectorData@sick_scan_xd@@@std@@$$V@?$_Compressed_pair@V?$allocator@VNAV350ReflectorData@sick_scan_xd@@@std@@V?$_Vector_val@U?$_Simple_types@VNAV350ReflectorData@sick_scan_xd@@@std@@@2@$00@std@@QEAA@U_One_then_variadic_args_t@1@AEBV?$allocator@VNAV350ReflectorData@sick_scan_xd@@@1@@Z
	??$?0AEBV?$allocator@VScanSegmentParserOutput@sick_scansegment_xd@@@std@@$$V@?$_Compressed_pair@V?$allocator@VScanSegmentParserOutput@sick_scansegment_xd@@@std@@V?$_Vector_val@U?$_Simple_types@VScanSegmentParserOutput@sick_scansegment_xd@@@std@@@2@$00@std@@QEAA@U_One_then_variadic_args_t@1@AEBV?$allocator@VScanSegmentParserOutput@sick_scansegment_xd@@@1@@Z
	??$?0AEBV?$allocator@VScangroup@ScanSegmentParserOutput@sick_scansegment_xd@@@std@@$$V@?$_Compressed_pair@V?$allocator@VScangroup@ScanSegmentParserOutput@sick_scansegment_xd@@@std@@V?$_Vector_val@U?$_Simple_types@VScangroup@ScanSegmentParserOutput@sick_scansegment_xd@@@std@@@2@$00@std@@QEAA@U_One_then_variadic_args_t@1@AEBV?$allocator@VScangroup@ScanSegmentParserOutput@sick_scansegment_xd@@@1@@Z
	??$?0AEBV?$allocator@VScanline@ScanSegmentParserOutput@sick_scansegment_xd@@@std@@$$V@?$_Compressed_pair@V?$allocator@VScanline@ScanSegmentParserOutput@sick_scansegment_xd@@@std@@V?$_Vector_val@U?$_Simple_types@VScanline@ScanSegmentParserOutput@sick_scansegment_xd@@@std@@@2@$00@std@@QEAA@U_One_then_variadic_args_t@1@AEBV?$allocator@VScanline@ScanSegmentParserOutput@sick_scansegment_xd@@@1@@Z
	??$?0AEBV?$allocator@_K@std@@$$V@?$_Compressed_pair@V?$allocator@_K@std@@V?$_Vector_val@U?$_Simple_types@_K@std@@@2@$00@std@@QEAA@U_One_then_variadic_args_t@1@AEBV?$allocator@_K@1@@Z
	??$?0AEBV?$basic_string@DU?$char_traits@D@std@@V?$allocator@D@2@@std@@$$Z$$V@?$pair@$$CBV?$basic_string@DU?$char_traits@D@std@@V?$allocator@D@2@@std@@V12@@std@@QEAA@Upiecewise_construct_t@1@V?$tuple@AEBV?$basic_string@DU?$char_traits@D@std@@V?$allocator@D@2@@std@@@1@V?$tuple@$$V@1@@Z
	??$?0AEBV?$basic_string@DU?$char_traits@D@std@@V?$allocator@D@2@@std@@$$Z$$V@?$pair@$$CBV?$basic_string@DU?$char_traits@D@std@@V?$allocator@D@2@@std@@_N@std@@QEAA@Upiecewise_construct_t@1@V?$tuple@AEBV?$basic_string@DU?$char_traits@D@std@@V?$allocator@D@2@@std@@@1@V?$tuple@$$V@1@@Z
	??$?0AEBV?$basic_string@DU?$char_traits@D@std@@V?$allocator@D@2@@std@@$0A@@?$tuple@AEBV?$basic_string@DU?$char_traits@D@std@@V?$allocator@D@2@@std@@@std@@QEAA@AEBV?$basic_string@DU?$char_traits@D@std@@V?$allocator@D@2@@1@@Z
	??$?0AEBV?$basic_string@DU?$char_traits@D@std@@V?$allocator@D@2@@std@@@?$_Ref_count_obj2@VMsgPackString@msgpack11@@@std@@QEAA@AEBV?$basic_string@DU?$char_traits@D@std@@V?$allocator@D@2@@1@@Z
	??$?0AEBV?$basic_string@DU?$char_traits@D@std@@V?$allocator@D@2@@std@@@?$_Tuple_val@AEBV?$basic_string@DU?$char_traits@D@std@@V?$allocator@D@2@@std@@@std@@QEAA@AEBV?$basic_string@DU?$char_traits@D@std@@V?$allocator@D@2@@1@@Z
	??$?0AEBV?$function@$$A6A_NAEAU?$ColaMsgSrvRequest_@V?$allocator@X@std@@@sick_scan_xd@@AEAU?$ColaMsgSrvResponse_@V?$allocator@X@std@@@2@@Z@std@@@?$_Ref_count_obj2@V?$ServiceCallbackHelperT@U?$ServiceSpec@U?$ColaMsgSrvRequest_@V?$allocator@X@std@@@sick_scan_xd@@U?$ColaMsgSrvResponse_@V?$allocator@X@std@@@2@@roswrap@@@roswrap@@@std@@QEAA@AEBV?$function@$$A6A_NAEAU?$ColaMsgSrvRequest_@V?$allocator@X@std@@@sick_scan_xd@@AEAU?$ColaMsgSrvResponse_@V?$allocator@X@std@@@2@@Z@1@@Z
	??$?0AEBV?$function@$$A6A_NAEAU?$ECRChangeArrSrvRequest_@V?$allocator@X@std@@@sick_scan_xd@@AEAU?$ECRChangeArrSrvResponse_@V?$allocator@X@std@@@2@@Z@std@@@?$_Ref_count_obj2@V?$ServiceCallbackHelperT@U?$ServiceSpec@U?$ECRChangeArrSrvRequest_@V?$allocator@X@std@@@sick_scan_xd@@U?$ECRChangeArrSrvResponse_@V?$allocator@X@std@@@2@@roswrap@@@roswrap@@@std@@QEAA@AEBV?$function@$$A6A_NAEAU?$ECRChangeArrSrvRequest_@V?$allocator@X@std@@@sick_scan_xd@@AEAU?$ECRChangeArrSrvResponse_@V?$allocator@X@std@@@2@@Z@1@@Z
	??$?0AEBV?$function@$$A6A_NAEAU?$GetContaminationResultSrvRequest_@V?$allocator@X@std@@@sick_scan_xd@@AEAU?$GetContaminationResultSrvResponse_@V?$allocator@X@std@@@2@@Z@std@@@?$_Ref_count_obj2@V?$ServiceCallbackHelperT@U?$ServiceSpec@U?$GetContaminationResultSrvRequest_@V?$allocator@X@std@@@sick_scan_xd@@U?$GetContaminationResultSrvResponse_@V?$allocator@X@std@@@2@@roswrap@@@roswrap@@@std@@QEAA@AEBV?$function@$$A6A_NAEAU?$GetContaminationResultSrvRequest_@V?$allocator@X@std@@@sick_scan_xd@@AEAU?$GetContaminationResultSrvResponse_@V?$allocator@X@std@@@2@@Z@1@@Z
	??$?0AEBV?$function@$$A6A_NAEAU?$LIDoutputstateSrvRequest_@V?$allocator@X@std@@@sick_scan_xd@@AEAU?$LIDoutputstateSrvResponse_@V?$allocator@X@std@@@2@@Z@std@@@?$_Ref_count_obj2@V?$ServiceCallbackHelperT@U?$ServiceSpec@U?$LIDoutputstateSrvRequest_@V?$allocator@X@std@@@sick_scan_xd@@U?$LIDoutputstateSrvResponse_@V?$allocator@X@std@@@2@@roswrap@@@roswrap@@@std@@QEAA@AEBV?$function@$$A6A_NAEAU?$LIDoutputstateSrvRequest_@V?$allocator@X@std@@@sick_scan_xd@@AEAU?$LIDoutputstateSrvResponse_@V?$allocator@X@std@@@2@@Z@1@@Z
	??$?0AEBV?$function@$$A6A_NAEAU?$SCdevicestateSrvRequest_@V?$allocator@X@std@@@sick_scan_xd@@AEAU?$SCdevicestateSrvResponse_@V?$allocator@X@std@@@2@@Z@std@@@?$_Ref_count_obj2@V?$ServiceCallbackHelperT@U?$ServiceSpec@U?$SCdevicestateSrvRequest_@V?$allocator@X@std@@@sick_scan_xd@@U?$SCdevicestateSrvResponse_@V?$allocator@X@std@@@2@@roswrap@@@roswrap@@@std@@QEAA@AEBV?$function@$$A6A_NAEAU?$SCdevicestateSrvRequest_@V?$allocator@X@std@@@sick_scan_xd@@AEAU?$SCdevicestateSrvResponse_@V?$allocator@X@std@@@2@@Z@1@@Z
	??$?0AEBV?$function@$$A6A_NAEAU?$SCrebootSrvRequest_@V?$allocator@X@std@@@sick_scan_xd@@AEAU?$SCrebootSrvResponse_@V?$allocator@X@std@@@2@@Z@std@@@?$_Ref_count_obj2@V?$ServiceCallbackHelperT@U?$ServiceSpec@U?$SCrebootSrvRequest_@V?$allocator@X@std@@@sick_scan_xd@@U?$SCrebootSrvResponse_@V?$allocator@X@std@@@2@@roswrap@@@roswrap@@@std@@QEAA@AEBV?$function@$$A6A_NAEAU?$SCrebootSrvRequest_@V?$allocator@X@std@@@sick_scan_xd@@AEAU?$SCrebootSrvResponse_@V?$allocator@X@std@@@2@@Z@1@@Z
	??$?0AEBV?$function@$$A6A_NAEAU?$SCsoftresetSrvRequest_@V?$allocator@X@std@@@sick_scan_xd@@AEAU?$SCsoftresetSrvResponse_@V?$allocator@X@std@@@2@@Z@std@@@?$_Ref_count_obj2@V?$ServiceCallbackHelperT@U?$ServiceSpec@U?$SCsoftresetSrvRequest_@V?$allocator@X@std@@@sick_scan_xd@@U?$SCsoftresetSrvResponse_@V?$allocator@X@std@@@2@@roswrap@@@roswrap@@@std@@QEAA@AEBV?$function@$$A6A_NAEAU?$SCsoftresetSrvRequest_@V?$allocator@X@std@@@sick_scan_xd@@AEAU?$SCsoftresetSrvResponse_@V?$allocator@X@std@@@2@@Z@1@@Z
	??$?0AEBV?$function@$$A6A_NAEAU?$SickScanExitSrvRequest_@V?$allocator@X@std@@@sick_scan_xd@@AEAU?$SickScanExitSrvResponse_@V?$allocator@X@std@@@2@@Z@std@@@?$_Ref_count_obj2@V?$ServiceCallbackHelperT@U?$ServiceSpec@U?$SickScanExitSrvRequest_@V?$allocator@X@std@@@sick_scan_xd@@U?$SickScanExitSrvResponse_@V?$allocator@X@std@@@2@@roswrap@@@roswrap@@@std@@QEAA@AEBV?$function@$$A6A_NAEAU?$SickScanExitSrvRequest_@V?$allocator@X@std@@@sick_scan_xd@@AEAU?$SickScanExitSrvResponse_@V?$allocator@X@std@@@2@@Z@1@@Z
	??$?0AEBV?$map@VMsgPack@msgpack11@@V12@U?$less@VMsgPack@msgpack11@@@std@@V?$allocator@U?$pair@$$CBVMsgPack@msgpack11@@V12@@std@@@4@@std@@@?$_Ref_count_obj2@VMsgPackObject@msgpack11@@@std@@QEAA@AEBV?$map@VMsgPack@msgpack11@@V12@U?$less@VMsgPack@msgpack11@@@std@@V?$allocator@U?$pair@$$CBVMsgPack@msgpack11@@V12@@std@@@4@@1@@Z
	??$?0AEBV?$time_point@Usystem_clock@chrono@std@@V?$duration@_JU?$ratio@$00$0JIJGIA@@std@@@23@@chrono@std@@@?$_Tuple_val@V?$time_point@Usystem_clock@chrono@std@@V?$duration@_JU?$ratio@$00$0JIJGIA@@std@@@23@@chrono@std@@@std@@QEAA@AEBV?$time_point@Usystem_clock@chrono@std@@V?$duration@_JU?$ratio@$00$0JIJGIA@@std@@@23@@chrono@1@@Z
	??$?0AEBV?$tuple@CV?$vector@EV?$allocator@E@std@@@std@@@std@@@?$_Ref_count_obj2@VMsgPackExtension@msgpack11@@@std@@QEAA@AEBV?$tuple@CV?$vector@EV?$allocator@E@std@@@std@@@1@@Z
	??$?0AEBV?$vector@EV?$allocator@E@std@@@std@@@?$_Ref_count_obj2@VMsgPackBinary@msgpack11@@@std@@QEAA@AEBV?$vector@EV?$allocator@E@std@@@1@@Z
	??$?0AEBV?$vector@EV?$allocator@E@std@@@std@@@?$_Tuple_val@V?$vector@EV?$allocator@E@std@@@std@@@std@@QEAA@AEBV?$vector@EV?$allocator@E@std@@@1@@Z
	??$?0AEBV?$vector@EV?$allocator@E@std@@@std@@AEBV?$time_point@Usystem_clock@chrono@std@@V?$duration@_JU?$ratio@$00$0JIJGIA@@std@@@23@@chrono@1@AEA_K$0A@@?$tuple@V?$vector@EV?$allocator@E@std@@@std@@V?$time_point@Usystem_clock@chrono@std@@V?$duration@_JU?$ratio@$00$0JIJGIA@@std@@@23@@chrono@2@_K@std@@QEAA@AEBV?$vector@EV?$allocator@E@std@@@1@AEBV?$time_point@Usystem_clock@chrono@std@@V?$duration@_JU?$ratio@$00$0JIJGIA@@std@@@23@@chrono@1@AEA_K@Z
	??$?0AEBV?$vector@VMsgPack@msgpack11@@V?$allocator@VMsgPack@msgpack11@@@std@@@std@@@?$_Ref_count_obj2@VMsgPackArray@msgpack11@@@std@@QEAA@AEBV?$vector@VMsgPack@msgpack11@@V?$allocator@VMsgPack@msgpack11@@@std@@@1@@Z
	??$?0AEBVDatagramWithTimeStamp@sick_scan_xd@@@?$_List_node_emplace_op2@V?$allocator@U?$_List_node@VDatagramWithTimeStamp@sick_scan_xd@@PEAX@std@@@std@@@std@@QEAA@AEAV?$allocator@U?$_List_node@VDatagramWithTimeStamp@sick_scan_xd@@PEAX@std@@@1@AEBVDatagramWithTimeStamp@sick_scan_xd@@@Z
	??$?0AEBVScanSegmentParserOutput@sick_scansegment_xd@@@?$_Tuple_val@VScanSegmentParserOutput@sick_scansegment_xd@@@std@@QEAA@AEBVScanSegmentParserOutput@sick_scansegment_xd@@@Z
	??$?0AEBVScanSegmentParserOutput@sick_scansegment_xd@@AEBV?$time_point@Usystem_clock@chrono@std@@V?$duration@_JU?$ratio@$00$0JIJGIA@@std@@@23@@chrono@std@@AEA_K$0A@@?$tuple@VScanSegmentParserOutput@sick_scansegment_xd@@V?$time_point@Usystem_clock@chrono@std@@V?$duration@_JU?$ratio@$00$0JIJGIA@@std@@@23@@chrono@std@@_K@std@@QEAA@AEBVScanSegmentParserOutput@sick_scansegment_xd@@AEBV?$time_point@Usystem_clock@chrono@std@@V?$duration@_JU?$ratio@$00$0JIJGIA@@std@@@23@@chrono@1@AEA_K@Z
	??$?0C$$V$0A@@?$tuple@$$QEAC@std@@QEAA@$$QEAC@Z
	??$?0C$0A@@?$tuple@CV?$vector@EV?$allocator@E@std@@@std@@@std@@QEAA@XZ
	??$?0C@?$_Tuple_val@$$QEAC@std@@QEAA@$$QEAC@Z
	??$?0D@?$allocator@U_Container_proxy@std@@@std@@QEAA@AEBV?$allocator@D@1@@Z
	??$?0E$0A@@?$tuple@EP6A?AVMsgPack@msgpack11@@AEAV?$basic_istream@DU?$char_traits@D@std@@@std@@EH@Z@std@@QEAA@XZ
	??$?0E@?$_Tuple_val@C@std@@QEAA@$$QEAE@Z
	??$?0E@?$allocator@U_Container_proxy@std@@@std@@QEAA@AEBV?$allocator@E@1@@Z
	??$?0E@?$shared_array@E@boost@@QEAA@PEAE@Z
	??$?0EV?$vector@EV?$allocator@E@std@@@std@@$0A@@?$tuple@CV?$vector@EV?$allocator@E@std@@@std@@@std@@QEAA@$$QEAV?$tuple@EV?$vector@EV?$allocator@E@std@@@std@@@1@@Z
	??$?0G@?$allocator@U_Container_proxy@std@@@std@@QEAA@AEBV?$allocator@G@1@@Z
	??$?0H$$V$0A@@?$tuple@$$QEAH@std@@QEAA@$$QEAH@Z
	??$?0H$0A@@?$duration@_JU?$ratio@$00$00@std@@@chrono@std@@QEAA@AEBH@Z
	??$?0H$0A@@?$duration@_JU?$ratio@$00$0DOI@@std@@@chrono@std@@QEAA@AEBH@Z
	??$?0H$0A@@?$duration@_JU?$ratio@$00$0PECEA@@std@@@chrono@std@@QEAA@AEBH@Z
	??$?0H@?$_Tuple_val@$$QEAH@std@@QEAA@$$QEAH@Z
	??$?0H@?$allocator@U_Container_proxy@std@@@std@@QEAA@AEBV?$allocator@H@1@@Z
	??$?0HAEAY07$$CBD$0A@@?$pair@$$CBEV?$basic_string@DU?$char_traits@D@std@@V?$allocator@D@2@@std@@@std@@QEAA@$$QEAHAEAY07$$CBD@Z
	??$?0HAEAY08$$CBD$0A@@?$pair@$$CBEV?$basic_string@DU?$char_traits@D@std@@V?$allocator@D@2@@std@@@std@@QEAA@$$QEAHAEAY08$$CBD@Z
	??$?0HAEAY0BF@$$CBD$0A@@?$pair@$$CBEV?$basic_string@DU?$char_traits@D@std@@V?$allocator@D@2@@std@@@std@@QEAA@$$QEAHAEAY0BF@$$CBD@Z
	??$?0HAEAY0BG@$$CBD$0A@@?$pair@$$CBEV?$basic_string@DU?$char_traits@D@std@@V?$allocator@D@2@@std@@@std@@QEAA@$$QEAHAEAY0BG@$$CBD@Z
	??$?0HAEAY0BN@$$CBD$0A@@?$pair@$$CBEV?$basic_string@DU?$char_traits@D@std@@V?$allocator@D@2@@std@@@std@@QEAA@$$QEAHAEAY0BN@$$CBD@Z
	??$?0HAEAY0N@$$CBD$0A@@?$pair@$$CBEV?$basic_string@DU?$char_traits@D@std@@V?$allocator@D@2@@std@@@std@@QEAA@$$QEAHAEAY0N@$$CBD@Z
	??$?0HAEAY0O@$$CBD$0A@@?$pair@$$CBEV?$basic_string@DU?$char_traits@D@std@@V?$allocator@D@2@@std@@@std@@QEAA@$$QEAHAEAY0O@$$CBD@Z
	??$?0I@?$_Tuple_val@E@std@@QEAA@$$QEAI@Z
	??$?0I@?$allocator@U_Container_proxy@std@@@std@@QEAA@AEBV?$allocator@I@1@@Z
	??$?0IP6A?AVMsgPack@msgpack11@@AEAV?$basic_istream@DU?$char_traits@D@std@@@std@@EH@Z$0A@@?$tuple@EP6A?AVMsgPack@msgpack11@@AEAV?$basic_istream@DU?$char_traits@D@std@@@std@@EH@Z@std@@QEAA@$$QEAI$$QEAP6A?AVMsgPack@msgpack11@@AEAV?$basic_istream@DU?$char_traits@D@std@@@1@EH@Z@Z
	??$?0M@?$allocator@U_Container_proxy@std@@@std@@QEAA@AEBV?$allocator@M@1@@Z
	??$?0N$0A@@?$duration@NU?$ratio@$00$00@std@@@chrono@std@@QEAA@AEBN@Z
	??$?0N$0A@@?$duration@NU?$ratio@$00$0DLJKMKAA@@std@@@chrono@std@@QEAA@AEBN@Z
	??$?0N$0A@@?$duration@NU?$ratio@$00$0JIJGIA@@std@@@chrono@std@@QEAA@AEBN@Z
	??$?0N@?$allocator@U_Container_proxy@std@@@std@@QEAA@AEBV?$allocator@N@1@@Z
	??$?0NU?$ratio@$00$00@std@@$0A@@?$duration@NU?$ratio@$00$0DLJKMKAA@@std@@@chrono@std@@QEAA@AEBV?$duration@NU?$ratio@$00$00@std@@@12@@Z
	??$?0NU?$ratio@$00$00@std@@$0A@@?$duration@NU?$ratio@$00$0JIJGIA@@std@@@chrono@std@@QEAA@AEBV?$duration@NU?$ratio@$00$00@std@@@12@@Z
	??$?0P6A?AV?$shared_ptr@U?$ColaMsgSrvRequest_@V?$allocator@X@std@@@sick_scan_xd@@@std@@XZ$0A@@?$_Func_impl_no_alloc@P6A?AV?$shared_ptr@U?$ColaMsgSrvRequest_@V?$allocator@X@std@@@sick_scan_xd@@@std@@XZV12@$$V@std@@QEAA@$$QEAP6A?AV?$shared_ptr@U?$ColaMsgSrvRequest_@V?$allocator@X@std@@@sick_scan_xd@@@1@XZ@Z
	??$?0P6A?AV?$shared_ptr@U?$ColaMsgSrvRequest_@V?$allocator@X@std@@@sick_scan_xd@@@std@@XZ$0A@@?$function@$$A6A?AV?$shared_ptr@U?$ColaMsgSrvRequest_@V?$allocator@X@std@@@sick_scan_xd@@@std@@XZ@std@@QEAA@$$QEAP6A?AV?$shared_ptr@U?$ColaMsgSrvRequest_@V?$allocator@X@std@@@sick_scan_xd@@@1@XZ@Z
	??$?0P6A?AV?$shared_ptr@U?$ColaMsgSrvResponse_@V?$allocator@X@std@@@sick_scan_xd@@@std@@XZ$0A@@?$_Func_impl_no_alloc@P6A?AV?$shared_ptr@U?$ColaMsgSrvResponse_@V?$allocator@X@std@@@sick_scan_xd@@@std@@XZV12@$$V@std@@QEAA@$$QEAP6A?AV?$shared_ptr@U?$ColaMsgSrvResponse_@V?$allocator@X@std@@@sick_scan_xd@@@1@XZ@Z
	??$?0P6A?AV?$shared_ptr@U?$ColaMsgSrvResponse_@V?$allocator@X@std@@@sick_scan_xd@@@std@@XZ$0A@@?$function@$$A6A?AV?$shared_ptr@U?$ColaMsgSrvResponse_@V?$allocator@X@std@@@sick_scan_xd@@@std@@XZ@std@@QEAA@$$QEAP6A?AV?$shared_ptr@U?$ColaMsgSrvResponse_@V?$allocator@X@std@@@sick_scan_xd@@@1@XZ@Z
	??$?0P6A?AV?$shared_ptr@U?$ECRChangeArrSrvRequest_@V?$allocator@X@std@@@sick_scan_xd@@@std@@XZ$0A@@?$_Func_impl_no_alloc@P6A?AV?$shared_ptr@U?$ECRChangeArrSrvRequest_@V?$allocator@X@std@@@sick_scan_xd@@@std@@XZV12@$$V@std@@QEAA@$$QEAP6A?AV?$shared_ptr@U?$ECRChangeArrSrvRequest_@V?$allocator@X@std@@@sick_scan_xd@@@1@XZ@Z
	??$?0P6A?AV?$shared_ptr@U?$ECRChangeArrSrvRequest_@V?$allocator@X@std@@@sick_scan_xd@@@std@@XZ$0A@@?$function@$$A6A?AV?$shared_ptr@U?$ECRChangeArrSrvRequest_@V?$allocator@X@std@@@sick_scan_xd@@@std@@XZ@std@@QEAA@$$QEAP6A?AV?$shared_ptr@U?$ECRChangeArrSrvRequest_@V?$allocator@X@std@@@sick_scan_xd@@@1@XZ@Z
	??$?0P6A?AV?$shared_ptr@U?$ECRChangeArrSrvResponse_@V?$allocator@X@std@@@sick_scan_xd@@@std@@XZ$0A@@?$_Func_impl_no_alloc@P6A?AV?$shared_ptr@U?$ECRChangeArrSrvResponse_@V?$allocator@X@std@@@sick_scan_xd@@@std@@XZV12@$$V@std@@QEAA@$$QEAP6A?AV?$shared_ptr@U?$ECRChangeArrSrvResponse_@V?$allocator@X@std@@@sick_scan_xd@@@1@XZ@Z
	??$?0P6A?AV?$shared_ptr@U?$ECRChangeArrSrvResponse_@V?$allocator@X@std@@@sick_scan_xd@@@std@@XZ$0A@@?$function@$$A6A?AV?$shared_ptr@U?$ECRChangeArrSrvResponse_@V?$allocator@X@std@@@sick_scan_xd@@@std@@XZ@std@@QEAA@$$QEAP6A?AV?$shared_ptr@U?$ECRChangeArrSrvResponse_@V?$allocator@X@std@@@sick_scan_xd@@@1@XZ@Z
	??$?0P6A?AV?$shared_ptr@U?$GetContaminationResultSrvRequest_@V?$allocator@X@std@@@sick_scan_xd@@@std@@XZ$0A@@?$_Func_impl_no_alloc@P6A?AV?$shared_ptr@U?$GetContaminationResultSrvRequest_@V?$allocator@X@std@@@sick_scan_xd@@@std@@XZV12@$$V@std@@QEAA@$$QEAP6A?AV?$shared_ptr@U?$GetContaminationResultSrvRequest_@V?$allocator@X@std@@@sick_scan_xd@@@1@XZ@Z
	??$?0P6A?AV?$shared_ptr@U?$GetContaminationResultSrvRequest_@V?$allocator@X@std@@@sick_scan_xd@@@std@@XZ$0A@@?$function@$$A6A?AV?$shared_ptr@U?$GetContaminationResultSrvRequest_@V?$allocator@X@std@@@sick_scan_xd@@@std@@XZ@std@@QEAA@$$QEAP6A?AV?$shared_ptr@U?$GetContaminationResultSrvRequest_@V?$allocator@X@std@@@sick_scan_xd@@@1@XZ@Z
	??$?0P6A?AV?$shared_ptr@U?$GetContaminationResultSrvResponse_@V?$allocator@X@std@@@sick_scan_xd@@@std@@XZ$0A@@?$_Func_impl_no_alloc@P6A?AV?$shared_ptr@U?$GetContaminationResultSrvResponse_@V?$allocator@X@std@@@sick_scan_xd@@@std@@XZV12@$$V@std@@QEAA@$$QEAP6A?AV?$shared_ptr@U?$GetContaminationResultSrvResponse_@V?$allocator@X@std@@@sick_scan_xd@@@1@XZ@Z
	??$?0P6A?AV?$shared_ptr@U?$GetContaminationResultSrvResponse_@V?$allocator@X@std@@@sick_scan_xd@@@std@@XZ$0A@@?$function@$$A6A?AV?$shared_ptr@U?$GetContaminationResultSrvResponse_@V?$allocator@X@std@@@sick_scan_xd@@@std@@XZ@std@@QEAA@$$QEAP6A?AV?$shared_ptr@U?$GetContaminationResultSrvResponse_@V?$allocator@X@std@@@sick_scan_xd@@@1@XZ@Z
	??$?0P6A?AV?$shared_ptr@U?$LIDoutputstateSrvRequest_@V?$allocator@X@std@@@sick_scan_xd@@@std@@XZ$0A@@?$_Func_impl_no_alloc@P6A?AV?$shared_ptr@U?$LIDoutputstateSrvRequest_@V?$allocator@X@std@@@sick_scan_xd@@@std@@XZV12@$$V@std@@QEAA@$$QEAP6A?AV?$shared_ptr@U?$LIDoutputstateSrvRequest_@V?$allocator@X@std@@@sick_scan_xd@@@1@XZ@Z
	??$?0P6A?AV?$shared_ptr@U?$LIDoutputstateSrvRequest_@V?$allocator@X@std@@@sick_scan_xd@@@std@@XZ$0A@@?$function@$$A6A?AV?$shared_ptr@U?$LIDoutputstateSrvRequest_@V?$allocator@X@std@@@sick_scan_xd@@@std@@XZ@std@@QEAA@$$QEAP6A?AV?$shared_ptr@U?$LIDoutputstateSrvRequest_@V?$allocator@X@std@@@sick_scan_xd@@@1@XZ@Z
	??$?0P6A?AV?$shared_ptr@U?$LIDoutputstateSrvResponse_@V?$allocator@X@std@@@sick_scan_xd@@@std@@XZ$0A@@?$_Func_impl_no_alloc@P6A?AV?$shared_ptr@U?$LIDoutputstateSrvResponse_@V?$allocator@X@std@@@sick_scan_xd@@@std@@XZV12@$$V@std@@QEAA@$$QEAP6A?AV?$shared_ptr@U?$LIDoutputstateSrvResponse_@V?$allocator@X@std@@@sick_scan_xd@@@1@XZ@Z
	??$?0P6A?AV?$shared_ptr@U?$LIDoutputstateSrvResponse_@V?$allocator@X@std@@@sick_scan_xd@@@std@@XZ$0A@@?$function@$$A6A?AV?$shared_ptr@U?$LIDoutputstateSrvResponse_@V?$allocator@X@std@@@sick_scan_xd@@@std@@XZ@std@@QEAA@$$QEAP6A?AV?$shared_ptr@U?$LIDoutputstateSrvResponse_@V?$allocator@X@std@@@sick_scan_xd@@@1@XZ@Z
	??$?0P6A?AV?$shared_ptr@U?$SCdevicestateSrvRequest_@V?$allocator@X@std@@@sick_scan_xd@@@std@@XZ$0A@@?$_Func_impl_no_alloc@P6A?AV?$shared_ptr@U?$SCdevicestateSrvRequest_@V?$allocator@X@std@@@sick_scan_xd@@@std@@XZV12@$$V@std@@QEAA@$$QEAP6A?AV?$shared_ptr@U?$SCdevicestateSrvRequest_@V?$allocator@X@std@@@sick_scan_xd@@@1@XZ@Z
	??$?0P6A?AV?$shared_ptr@U?$SCdevicestateSrvRequest_@V?$allocator@X@std@@@sick_scan_xd@@@std@@XZ$0A@@?$function@$$A6A?AV?$shared_ptr@U?$SCdevicestateSrvRequest_@V?$allocator@X@std@@@sick_scan_xd@@@std@@XZ@std@@QEAA@$$QEAP6A?AV?$shared_ptr@U?$SCdevicestateSrvRequest_@V?$allocator@X@std@@@sick_scan_xd@@@1@XZ@Z
	??$?0P6A?AV?$shared_ptr@U?$SCdevicestateSrvResponse_@V?$allocator@X@std@@@sick_scan_xd@@@std@@XZ$0A@@?$_Func_impl_no_alloc@P6A?AV?$shared_ptr@U?$SCdevicestateSrvResponse_@V?$allocator@X@std@@@sick_scan_xd@@@std@@XZV12@$$V@std@@QEAA@$$QEAP6A?AV?$shared_ptr@U?$SCdevicestateSrvResponse_@V?$allocator@X@std@@@sick_scan_xd@@@1@XZ@Z
	??$?0P6A?AV?$shared_ptr@U?$SCdevicestateSrvResponse_@V?$allocator@X@std@@@sick_scan_xd@@@std@@XZ$0A@@?$function@$$A6A?AV?$shared_ptr@U?$SCdevicestateSrvResponse_@V?$allocator@X@std@@@sick_scan_xd@@@std@@XZ@std@@QEAA@$$QEAP6A?AV?$shared_ptr@U?$SCdevicestateSrvResponse_@V?$allocator@X@std@@@sick_scan_xd@@@1@XZ@Z
	??$?0P6A?AV?$shared_ptr@U?$SCrebootSrvRequest_@V?$allocator@X@std@@@sick_scan_xd@@@std@@XZ$0A@@?$_Func_impl_no_alloc@P6A?AV?$shared_ptr@U?$SCrebootSrvRequest_@V?$allocator@X@std@@@sick_scan_xd@@@std@@XZV12@$$V@std@@QEAA@$$QEAP6A?AV?$shared_ptr@U?$SCrebootSrvRequest_@V?$allocator@X@std@@@sick_scan_xd@@@1@XZ@Z
	??$?0P6A?AV?$shared_ptr@U?$SCrebootSrvRequest_@V?$allocator@X@std@@@sick_scan_xd@@@std@@XZ$0A@@?$function@$$A6A?AV?$shared_ptr@U?$SCrebootSrvRequest_@V?$allocator@X@std@@@sick_scan_xd@@@std@@XZ@std@@QEAA@$$QEAP6A?AV?$shared_ptr@U?$SCrebootSrvRequest_@V?$allocator@X@std@@@sick_scan_xd@@@1@XZ@Z
	??$?0P6A?AV?$shared_ptr@U?$SCrebootSrvResponse_@V?$allocator@X@std@@@sick_scan_xd@@@std@@XZ$0A@@?$_Func_impl_no_alloc@P6A?AV?$shared_ptr@U?$SCrebootSrvResponse_@V?$allocator@X@std@@@sick_scan_xd@@@std@@XZV12@$$V@std@@QEAA@$$QEAP6A?AV?$shared_ptr@U?$SCrebootSrvResponse_@V?$allocator@X@std@@@sick_scan_xd@@@1@XZ@Z
	??$?0P6A?AV?$shared_ptr@U?$SCrebootSrvResponse_@V?$allocator@X@std@@@sick_scan_xd@@@std@@XZ$0A@@?$function@$$A6A?AV?$shared_ptr@U?$SCrebootSrvResponse_@V?$allocator@X@std@@@sick_scan_xd@@@std@@XZ@std@@QEAA@$$QEAP6A?AV?$shared_ptr@U?$SCrebootSrvResponse_@V?$allocator@X@std@@@sick_scan_xd@@@1@XZ@Z
	??$?0P6A?AV?$shared_ptr@U?$SCsoftresetSrvRequest_@V?$allocator@X@std@@@sick_scan_xd@@@std@@XZ$0A@@?$_Func_impl_no_alloc@P6A?AV?$shared_ptr@U?$SCsoftresetSrvRequest_@V?$allocator@X@std@@@sick_scan_xd@@@std@@XZV12@$$V@std@@QEAA@$$QEAP6A?AV?$shared_ptr@U?$SCsoftresetSrvRequest_@V?$allocator@X@std@@@sick_scan_xd@@@1@XZ@Z
	??$?0P6A?AV?$shared_ptr@U?$SCsoftresetSrvRequest_@V?$allocator@X@std@@@sick_scan_xd@@@std@@XZ$0A@@?$function@$$A6A?AV?$shared_ptr@U?$SCsoftresetSrvRequest_@V?$allocator@X@std@@@sick_scan_xd@@@std@@XZ@std@@QEAA@$$QEAP6A?AV?$shared_ptr@U?$SCsoftresetSrvRequest_@V?$allocator@X@std@@@sick_scan_xd@@@1@XZ@Z
	??$?0P6A?AV?$shared_ptr@U?$SCsoftresetSrvResponse_@V?$allocator@X@std@@@sick_scan_xd@@@std@@XZ$0A@@?$_Func_impl_no_alloc@P6A?AV?$shared_ptr@U?$SCsoftresetSrvResponse_@V?$allocator@X@std@@@sick_scan_xd@@@std@@XZV12@$$V@std@@QEAA@$$QEAP6A?AV?$shared_ptr@U?$SCsoftresetSrvResponse_@V?$allocator@X@std@@@sick_scan_xd@@@1@XZ@Z
	??$?0P6A?AV?$shared_ptr@U?$SCsoftresetSrvResponse_@V?$allocator@X@std@@@sick_scan_xd@@@std@@XZ$0A@@?$function@$$A6A?AV?$shared_ptr@U?$SCsoftresetSrvResponse_@V?$allocator@X@std@@@sick_scan_xd@@@std@@XZ@std@@QEAA@$$QEAP6A?AV?$shared_ptr@U?$SCsoftresetSrvResponse_@V?$allocator@X@std@@@sick_scan_xd@@@1@XZ@Z
	??$?0P6A?AV?$shared_ptr@U?$SickScanExitSrvRequest_@V?$allocator@X@std@@@sick_scan_xd@@@std@@XZ$0A@@?$_Func_impl_no_alloc@P6A?AV?$shared_ptr@U?$SickScanExitSrvRequest_@V?$allocator@X@std@@@sick_scan_xd@@@std@@XZV12@$$V@std@@QEAA@$$QEAP6A?AV?$shared_ptr@U?$SickScanExitSrvRequest_@V?$allocator@X@std@@@sick_scan_xd@@@1@XZ@Z
	??$?0P6A?AV?$shared_ptr@U?$SickScanExitSrvRequest_@V?$allocator@X@std@@@sick_scan_xd@@@std@@XZ$0A@@?$function@$$A6A?AV?$shared_ptr@U?$SickScanExitSrvRequest_@V?$allocator@X@std@@@sick_scan_xd@@@std@@XZ@std@@QEAA@$$QEAP6A?AV?$shared_ptr@U?$SickScanExitSrvRequest_@V?$allocator@X@std@@@sick_scan_xd@@@1@XZ@Z
	??$?0P6A?AV?$shared_ptr@U?$SickScanExitSrvResponse_@V?$allocator@X@std@@@sick_scan_xd@@@std@@XZ$0A@@?$_Func_impl_no_alloc@P6A?AV?$shared_ptr@U?$SickScanExitSrvResponse_@V?$allocator@X@std@@@sick_scan_xd@@@std@@XZV12@$$V@std@@QEAA@$$QEAP6A?AV?$shared_ptr@U?$SickScanExitSrvResponse_@V?$allocator@X@std@@@sick_scan_xd@@@1@XZ@Z
	??$?0P6A?AV?$shared_ptr@U?$SickScanExitSrvResponse_@V?$allocator@X@std@@@sick_scan_xd@@@std@@XZ$0A@@?$function@$$A6A?AV?$shared_ptr@U?$SickScanExitSrvResponse_@V?$allocator@X@std@@@sick_scan_xd@@@std@@XZ@std@@QEAA@$$QEAP6A?AV?$shared_ptr@U?$SickScanExitSrvResponse_@V?$allocator@X@std@@@sick_scan_xd@@@1@XZ@Z
	??$?0P6A?AVMsgPack@msgpack11@@AEAV?$basic_istream@DU?$char_traits@D@std@@@std@@EH@Z$0A@@?$tuple@P6A?AVMsgPack@msgpack11@@AEAV?$basic_istream@DU?$char_traits@D@std@@@std@@EH@Z@std@@QEAA@XZ
	??$?0P6A?AVMsgPack@msgpack11@@AEAV?$basic_istream@DU?$char_traits@D@std@@@std@@EH@Z@?$_Tuple_val@P6A?AVMsgPack@msgpack11@@AEAV?$basic_istream@DU?$char_traits@D@std@@@std@@EH@Z@std@@QEAA@$$QEAP6A?AVMsgPack@msgpack11@@AEAV?$basic_istream@DU?$char_traits@D@std@@@1@EH@Z@Z
	??$?0P6APEAXPEAX@Z@?$_Tuple_val@P6APEAXPEAX@Z@std@@QEAA@$$QEAP6APEAXPEAX@Z@Z
	??$?0P6APEAXPEAX@ZPEAVThreadWrapperBase@@$0A@@?$tuple@P6APEAXPEAX@ZPEAVThreadWrapperBase@@@std@@QEAA@$$QEAP6APEAXPEAX@Z$$QEAPEAVThreadWrapperBase@@@Z
	??$?0P6APEAXPEAX@ZPEAVThreadWrapperBase@@$0A@@thread@std@@QEAA@$$QEAP6APEAXPEAX@Z$$QEAPEAVThreadWrapperBase@@@Z
	??$?0P8GenericLaserCallable@@EAAXXZ@?$_Tuple_val@P8GenericLaserCallable@@EAAXXZ@std@@QEAA@$$QEAP8GenericLaserCallable@@EAAXXZ@Z
	??$?0P8GenericLaserCallable@@EAAXXZPEAV0@$0A@@?$tuple@P8GenericLaserCallable@@EAAXXZPEAV1@@std@@QEAA@$$QEAP8GenericLaserCallable@@EAAXXZ$$QEAPEAV2@@Z
	??$?0P8GenericLaserCallable@@EAAXXZPEAV0@$0A@@thread@std@@QEAA@$$QEAP8GenericLaserCallable@@EAAXXZ$$QEAPEAV2@@Z
	??$?0P8MsgPackConverter@sick_scansegment_xd@@EAA_NXZ@?$_Tuple_val@P8MsgPackConverter@sick_scansegment_xd@@EAA_NXZ@std@@QEAA@$$QEAP8MsgPackConverter@sick_scansegment_xd@@EAA_NXZ@Z
	??$?0P8MsgPackConverter@sick_scansegment_xd@@EAA_NXZPEAV01@$0A@@?$tuple@P8MsgPackConverter@sick_scansegment_xd@@EAA_NXZPEAV12@@std@@QEAA@$$QEAP8MsgPackConverter@sick_scansegment_xd@@EAA_NXZ$$QEAPEAV23@@Z
	??$?0P8MsgPackConverter@sick_scansegment_xd@@EAA_NXZPEAV01@$0A@@thread@std@@QEAA@$$QEAP8MsgPackConverter@sick_scansegment_xd@@EAA_NXZ$$QEAPEAV23@@Z
	??$?0P8MsgPackExporter@sick_scansegment_xd@@EAA_NXZ@?$_Tuple_val@P8MsgPackExporter@sick_scansegment_xd@@EAA_NXZ@std@@QEAA@$$QEAP8MsgPackExporter@sick_scansegment_xd@@EAA_NXZ@Z
	??$?0P8MsgPackExporter@sick_scansegment_xd@@EAA_NXZPEAV01@$0A@@?$tuple@P8MsgPackExporter@sick_scansegment_xd@@EAA_NXZPEAV12@@std@@QEAA@$$QEAP8MsgPackExporter@sick_scansegment_xd@@EAA_NXZ$$QEAPEAV23@@Z
	??$?0P8MsgPackExporter@sick_scansegment_xd@@EAA_NXZPEAV01@$0A@@thread@std@@QEAA@$$QEAP8MsgPackExporter@sick_scansegment_xd@@EAA_NXZ$$QEAPEAV23@@Z
	??$?0P8MsgPackThreads@sick_scansegment_xd@@EAA_NXZ@?$_Tuple_val@P8MsgPackThreads@sick_scansegment_xd@@EAA_NXZ@std@@QEAA@$$QEAP8MsgPackThreads@sick_scansegment_xd@@EAA_NXZ@Z
	??$?0P8MsgPackThreads@sick_scansegment_xd@@EAA_NXZPEAV01@$0A@@?$tuple@P8MsgPackThreads@sick_scansegment_xd@@EAA_NXZPEAV12@@std@@QEAA@$$QEAP8MsgPackThreads@sick_scansegment_xd@@EAA_NXZ$$QEAPEAV23@@Z
	??$?0P8MsgPackThreads@sick_scansegment_xd@@EAA_NXZPEAV01@$0A@@thread@std@@QEAA@$$QEAP8MsgPackThreads@sick_scansegment_xd@@EAA_NXZ$$QEAPEAV23@@Z
	??$?0P8UdpReceiver@sick_scansegment_xd@@EAA_NXZ@?$_Tuple_val@P8UdpReceiver@sick_scansegment_xd@@EAA_NXZ@std@@QEAA@$$QEAP8UdpReceiver@sick_scansegment_xd@@EAA_NXZ@Z
	??$?0P8UdpReceiver@sick_scansegment_xd@@EAA_NXZPEAV01@$0A@@?$tuple@P8UdpReceiver@sick_scansegment_xd@@EAA_NXZPEAV12@@std@@QEAA@$$QEAP8UdpReceiver@sick_scansegment_xd@@EAA_NXZ$$QEAPEAV23@@Z
	??$?0P8UdpReceiver@sick_scansegment_xd@@EAA_NXZPEAV01@$0A@@thread@std@@QEAA@$$QEAP8UdpReceiver@sick_scansegment_xd@@EAA_NXZ$$QEAPEAV23@@Z
	??$?0PEAD$0A@@?$basic_string@DU?$char_traits@D@std@@V?$allocator@D@2@@std@@QEAA@PEAD0AEBV?$allocator@D@1@@Z
	??$?0PEAD@?$allocator@U_Container_proxy@std@@@std@@QEAA@AEBV?$allocator@PEAD@1@@Z
	??$?0PEAE$0A@@?$vector@EV?$allocator@E@std@@@std@@QEAA@PEAE0AEBV?$allocator@E@1@@Z
	??$?0PEAEU?$checked_array_deleter@E@boost@@@shared_count@detail@boost@@QEAA@PEAEU?$checked_array_deleter@E@2@@Z
	??$?0PEAU?$_Tree_node@U?$pair@$$CBC_N@std@@PEAX@std@@_N$0A@@?$pair@PEAU?$_Tree_node@U?$pair@$$CBC_N@std@@PEAX@std@@_N@std@@QEAA@$$QEAPEAU?$_Tree_node@U?$pair@$$CBC_N@std@@PEAX@1@$$QEA_N@Z
	??$?0PEAU?$_Tree_node@U?$pair@$$CBEV?$basic_string@DU?$char_traits@D@std@@V?$allocator@D@2@@std@@@std@@PEAX@std@@_N$0A@@?$pair@PEAU?$_Tree_node@U?$pair@$$CBEV?$basic_string@DU?$char_traits@D@std@@V?$allocator@D@2@@std@@@std@@PEAX@std@@_N@std@@QEAA@$$QEAPEAU?$_Tree_node@U?$pair@$$CBEV?$basic_string@DU?$char_traits@D@std@@V?$allocator@D@2@@std@@@std@@PEAX@1@$$QEA_N@Z
	??$?0PEAU?$_Tree_node@U?$pair@$$CBHH@std@@PEAX@std@@_N$0A@@?$pair@PEAU?$_Tree_node@U?$pair@$$CBHH@std@@PEAX@std@@_N@std@@QEAA@$$QEAPEAU?$_Tree_node@U?$pair@$$CBHH@std@@PEAX@1@$$QEA_N@Z
	??$?0PEAU?$_Tree_node@U?$pair@$$CBHU?$LaserScan_@V?$allocator@X@std@@@sensor_msgs@@@std@@PEAX@std@@_N$0A@@?$pair@PEAU?$_Tree_node@U?$pair@$$CBHU?$LaserScan_@V?$allocator@X@std@@@sensor_msgs@@@std@@PEAX@std@@_N@std@@QEAA@$$QEAPEAU?$_Tree_node@U?$pair@$$CBHU?$LaserScan_@V?$allocator@X@std@@@sensor_msgs@@@std@@PEAX@1@$$QEA_N@Z
	??$?0PEAU?$_Tree_node@U?$pair@$$CBHV?$map@HHU?$less@H@std@@V?$allocator@U?$pair@$$CBHH@std@@@2@@std@@@std@@PEAX@std@@_N$0A@@?$pair@PEAU?$_Tree_node@U?$pair@$$CBHV?$map@HHU?$less@H@std@@V?$allocator@U?$pair@$$CBHH@std@@@2@@std@@@std@@PEAX@std@@_N@std@@QEAA@$$QEAPEAU?$_Tree_node@U?$pair@$$CBHV?$map@HHU?$less@H@std@@V?$allocator@U?$pair@$$CBHH@std@@@2@@std@@@std@@PEAX@1@$$QEA_N@Z
	??$?0PEAU?$_Tree_node@U?$pair@$$CBHV?$map@HU?$LaserScan_@V?$allocator@X@std@@@sensor_msgs@@U?$less@H@std@@V?$allocator@U?$pair@$$CBHU?$LaserScan_@V?$allocator@X@std@@@sensor_msgs@@@std@@@4@@std@@@std@@PEAX@std@@_N$0A@@?$pair@PEAU?$_Tree_node@U?$pair@$$CBHV?$map@HU?$LaserScan_@V?$allocator@X@std@@@sensor_msgs@@U?$less@H@std@@V?$allocator@U?$pair@$$CBHU?$LaserScan_@V?$allocator@X@std@@@sensor_msgs@@@std@@@4@@std@@@std@@PEAX@std@@_N@std@@QEAA@$$QEAPEAU?$_Tree_node@U?$pair@$$CBHV?$map@HU?$LaserScan_@V?$allocator@X@std@@@sensor_msgs@@U?$less@H@std@@V?$allocator@U?$pair@$$CBHU?$LaserScan_@V?$allocator@X@std@@@sensor_msgs@@@std@@@4@@std@@@std@@PEAX@1@$$QEA_N@Z
	??$?0PEAU?$_Tree_node@U?$pair@$$CBHV?$map@HV?$map@HHU?$less@H@std@@V?$allocator@U?$pair@$$CBHH@std@@@2@@std@@U?$less@H@2@V?$allocator@U?$pair@$$CBHV?$map@HHU?$less@H@std@@V?$allocator@U?$pair@$$CBHH@std@@@2@@std@@@std@@@2@@std@@@std@@PEAX@std@@_N$0A@@?$pair@PEAU?$_Tree_node@U?$pair@$$CBHV?$map@HV?$map@HHU?$less@H@std@@V?$allocator@U?$pair@$$CBHH@std@@@2@@std@@U?$less@H@2@V?$allocator@U?$pair@$$CBHV?$map@HHU?$less@H@std@@V?$allocator@U?$pair@$$CBHH@std@@@2@@std@@@std@@@2@@std@@@std@@PEAX@std@@_N@std@@QEAA@$$QEAPEAU?$_Tree_node@U?$pair@$$CBHV?$map@HV?$map@HHU?$less@H@std@@V?$allocator@U?$pair@$$CBHH@std@@@2@@std@@U?$less@H@2@V?$allocator@U?$pair@$$CBHV?$map@HHU?$less@H@std@@V?$allocator@U?$pair@$$CBHH@std@@@2@@std@@@std@@@2@@std@@@std@@PEAX@1@$$QEA_N@Z
	??$?0PEAU?$_Tree_node@U?$pair@$$CBHV?$map@HV?$map@HV?$map@HHU?$less@H@std@@V?$allocator@U?$pair@$$CBHH@std@@@2@@std@@U?$less@H@2@V?$allocator@U?$pair@$$CBHV?$map@HHU?$less@H@std@@V?$allocator@U?$pair@$$CBHH@std@@@2@@std@@@std@@@2@@std@@U?$less@H@2@V?$allocator@U?$pair@$$CBHV?$map@HV?$map@HHU?$less@H@std@@V?$allocator@U?$pair@$$CBHH@std@@@2@@std@@U?$less@H@2@V?$allocator@U?$pair@$$CBHV?$map@HHU?$less@H@std@@V?$allocator@U?$pair@$$CBHH@std@@@2@@std@@@std@@@2@@std@@@std@@@2@@std@@@std@@PEAX@std@@_N$0A@@?$pair@PEAU?$_Tree_node@U?$pair@$$CBHV?$map@HV?$map@HV?$map@HHU?$less@H@std@@V?$allocator@U?$pair@$$CBHH@std@@@2@@std@@U?$less@H@2@V?$allocator@U?$pair@$$CBHV?$map@HHU?$less@H@std@@V?$allocator@U?$pair@$$CBHH@std@@@2@@std@@@std@@@2@@std@@U?$less@H@2@V?$allocator@U?$pair@$$CBHV?$map@HV?$map@HHU?$less@H@std@@V?$allocator@U?$pair@$$CBHH@std@@@2@@std@@U?$less@H@2@V?$allocator@U?$pair@$$CBHV?$map@HHU?$less@H@std@@V?$allocator@U?$pair@$$CBHH@std@@@2@@std@@@std@@@2@@std@@@std@@@2@@std@@@std@@PEAX@std@@_N@std@@QEAA@$$QEAPEAU?$_Tree_node@U?$pair@$$CBHV?$map@HV?$map@HV?$map@HHU?$less@H@std@@V?$allocator@U?$pair@$$CBHH@std@@@2@@std@@U?$less@H@2@V?$allocator@U?$pair@$$CBHV?$map@HHU?$less@H@std@@V?$allocator@U?$pair@$$CBHH@std@@@2@@std@@@std@@@2@@std@@U?$less@H@2@V?$allocator@U?$pair@$$CBHV?$map@HV?$map@HHU?$less@H@std@@V?$allocator@U?$pair@$$CBHH@std@@@2@@std@@U?$less@H@2@V?$allocator@U?$pair@$$CBHV?$map@HHU?$less@H@std@@V?$allocator@U?$pair@$$CBHH@std@@@2@@std@@@std@@@2@@std@@@std@@@2@@std@@@std@@PEAX@1@$$QEA_N@Z
	??$?0PEAU?$_Tree_node@U?$pair@$$CBHV?$time_point@Usystem_clock@chrono@std@@V?$duration@_JU?$ratio@$00$0JIJGIA@@std@@@23@@chrono@std@@@std@@PEAX@std@@_N$0A@@?$pair@PEAU?$_Tree_node@U?$pair@$$CBHV?$time_point@Usystem_clock@chrono@std@@V?$duration@_JU?$ratio@$00$0JIJGIA@@std@@@23@@chrono@std@@@std@@PEAX@std@@_N@std@@QEAA@$$QEAPEAU?$_Tree_node@U?$pair@$$CBHV?$time_point@Usystem_clock@chrono@std@@V?$duration@_JU?$ratio@$00$0JIJGIA@@std@@@23@@chrono@std@@@std@@PEAX@1@$$QEA_N@Z
	??$?0PEAU?$_Tree_node@U?$pair@$$CBH_K@std@@PEAX@std@@_N$0A@@?$pair@PEAU?$_Tree_node@U?$pair@$$CBH_K@std@@PEAX@std@@_N@std@@QEAA@$$QEAPEAU?$_Tree_node@U?$pair@$$CBH_K@std@@PEAX@1@$$QEA_N@Z
	??$?0PEAU?$_Tree_node@U?$pair@$$CBV?$basic_string@DU?$char_traits@D@std@@V?$allocator@D@2@@std@@H@std@@PEAX@std@@_N$0A@@?$pair@PEAU?$_Tree_node@U?$pair@$$CBV?$basic_string@DU?$char_traits@D@std@@V?$allocator@D@2@@std@@H@std@@PEAX@std@@_N@std@@QEAA@$$QEAPEAU?$_Tree_node@U?$pair@$$CBV?$basic_string@DU?$char_traits@D@std@@V?$allocator@D@2@@std@@H@std@@PEAX@1@$$QEA_N@Z
	??$?0PEAU?$_Tree_node@U?$pair@$$CBV?$basic_string@DU?$char_traits@D@std@@V?$allocator@D@2@@std@@V12@@std@@PEAX@std@@_N$0A@@?$pair@PEAU?$_Tree_node@U?$pair@$$CBV?$basic_string@DU?$char_traits@D@std@@V?$allocator@D@2@@std@@V12@@std@@PEAX@std@@_N@std@@QEAA@$$QEAPEAU?$_Tree_node@U?$pair@$$CBV?$basic_string@DU?$char_traits@D@std@@V?$allocator@D@2@@std@@V12@@std@@PEAX@1@$$QEA_N@Z
	??$?0PEAU?$_Tree_node@U?$pair@$$CBV?$basic_string@DU?$char_traits@D@std@@V?$allocator@D@2@@std@@V?$vector@V?$basic_string@DU?$char_traits@D@std@@V?$allocator@D@2@@std@@V?$allocator@V?$basic_string@DU?$char_traits@D@std@@V?$allocator@D@2@@std@@@2@@2@@std@@PEAX@std@@_N$0A@@?$pair@PEAU?$_Tree_node@U?$pair@$$CBV?$basic_string@DU?$char_traits@D@std@@V?$allocator@D@2@@std@@V?$vector@V?$basic_string@DU?$char_traits@D@std@@V?$allocator@D@2@@std@@V?$allocator@V?$basic_string@DU?$char_traits@D@std@@V?$allocator@D@2@@std@@@2@@2@@std@@PEAX@std@@_N@std@@QEAA@$$QEAPEAU?$_Tree_node@U?$pair@$$CBV?$basic_string@DU?$char_traits@D@std@@V?$allocator@D@2@@std@@V?$vector@V?$basic_string@DU?$char_traits@D@std@@V?$allocator@D@2@@std@@V?$allocator@V?$basic_string@DU?$char_traits@D@std@@V?$allocator@D@2@@std@@@2@@2@@std@@PEAX@1@$$QEA_N@Z
	??$?0PEAU?$_Tree_node@U?$pair@$$CBV?$basic_string@DU?$char_traits@D@std@@V?$allocator@D@2@@std@@_N@std@@PEAX@std@@_N$0A@@?$pair@PEAU?$_Tree_node@U?$pair@$$CBV?$basic_string@DU?$char_traits@D@std@@V?$allocator@D@2@@std@@_N@std@@PEAX@std@@_N@std@@QEAA@$$QEAPEAU?$_Tree_node@U?$pair@$$CBV?$basic_string@DU?$char_traits@D@std@@V?$allocator@D@2@@std@@_N@std@@PEAX@1@$$QEA_N@Z
	??$?0PEAU?$_Tree_node@U?$pair@$$CBVMsgPack@msgpack11@@V12@@std@@PEAX@std@@_N$0A@@?$pair@PEAU?$_Tree_node@U?$pair@$$CBVMsgPack@msgpack11@@V12@@std@@PEAX@std@@_N@std@@QEAA@$$QEAPEAU?$_Tree_node@U?$pair@$$CBVMsgPack@msgpack11@@V12@@std@@PEAX@1@$$QEA_N@Z
	??$?0PEAU?$_Tree_node@U?$pair@QEAVNodeHandle@roswrap@@V?$list@P6AXPEAVNodeHandle@roswrap@@PEBU?$Imu_@V?$allocator@X@std@@@sensor_msgs@@@ZV?$allocator@P6AXPEAVNodeHandle@roswrap@@PEBU?$Imu_@V?$allocator@X@std@@@sensor_msgs@@@Z@std@@@std@@@std@@PEAX@std@@_N$0A@@?$pair@PEAU?$_Tree_node@U?$pair@QEAVNodeHandle@roswrap@@V?$list@P6AXPEAVNodeHandle@roswrap@@PEBU?$Imu_@V?$allocator@X@std@@@sensor_msgs@@@ZV?$allocator@P6AXPEAVNodeHandle@roswrap@@PEBU?$Imu_@V?$allocator@X@std@@@sensor_msgs@@@Z@std@@@std@@@std@@PEAX@std@@_N@std@@QEAA@$$QEAPEAU?$_Tree_node@U?$pair@QEAVNodeHandle@roswrap@@V?$list@P6AXPEAVNodeHandle@roswrap@@PEBU?$Imu_@V?$allocator@X@std@@@sensor_msgs@@@ZV?$allocator@P6AXPEAVNodeHandle@roswrap@@PEBU?$Imu_@V?$allocator@X@std@@@sensor_msgs@@@Z@std@@@std@@@std@@PEAX@1@$$QEA_N@Z
	??$?0PEAU?$_Tree_node@U?$pair@QEAVNodeHandle@roswrap@@V?$list@P6AXPEAVNodeHandle@roswrap@@PEBU?$LFErecMsg_@V?$allocator@X@std@@@sick_scan_xd@@@ZV?$allocator@P6AXPEAVNodeHandle@roswrap@@PEBU?$LFErecMsg_@V?$allocator@X@std@@@sick_scan_xd@@@Z@std@@@std@@@std@@PEAX@std@@_N$0A@@?$pair@PEAU?$_Tree_node@U?$pair@QEAVNodeHandle@roswrap@@V?$list@P6AXPEAVNodeHandle@roswrap@@PEBU?$LFErecMsg_@V?$allocator@X@std@@@sick_scan_xd@@@ZV?$allocator@P6AXPEAVNodeHandle@roswrap@@PEBU?$LFErecMsg_@V?$allocator@X@std@@@sick_scan_xd@@@Z@std@@@std@@@std@@PEAX@std@@_N@std@@QEAA@$$QEAPEAU?$_Tree_node@U?$pair@QEAVNodeHandle@roswrap@@V?$list@P6AXPEAVNodeHandle@roswrap@@PEBU?$LFErecMsg_@V?$allocator@X@std@@@sick_scan_xd@@@ZV?$allocator@P6AXPEAVNodeHandle@roswrap@@PEBU?$LFErecMsg_@V?$allocator@X@std@@@sick_scan_xd@@@Z@std@@@std@@@std@@PEAX@1@$$QEA_N@Z
	??$?0PEAU?$_Tree_node@U?$pair@QEAVNodeHandle@roswrap@@V?$list@P6AXPEAVNodeHandle@roswrap@@PEBU?$LIDoutputstateMsg_@V?$allocator@X@std@@@sick_scan_xd@@@ZV?$allocator@P6AXPEAVNodeHandle@roswrap@@PEBU?$LIDoutputstateMsg_@V?$allocator@X@std@@@sick_scan_xd@@@Z@std@@@std@@@std@@PEAX@std@@_N$0A@@?$pair@PEAU?$_Tree_node@U?$pair@QEAVNodeHandle@roswrap@@V?$list@P6AXPEAVNodeHandle@roswrap@@PEBU?$LIDoutputstateMsg_@V?$allocator@X@std@@@sick_scan_xd@@@ZV?$allocator@P6AXPEAVNodeHandle@roswrap@@PEBU?$LIDoutputstateMsg_@V?$allocator@X@std@@@sick_scan_xd@@@Z@std@@@std@@@std@@PEAX@std@@_N@std@@QEAA@$$QEAPEAU?$_Tree_node@U?$pair@QEAVNodeHandle@roswrap@@V?$list@P6AXPEAVNodeHandle@roswrap@@PEBU?$LIDoutputstateMsg_@V?$allocator@X@std@@@sick_scan_xd@@@ZV?$allocator@P6AXPEAVNodeHandle@roswrap@@PEBU?$LIDoutputstateMsg_@V?$allocator@X@std@@@sick_scan_xd@@@Z@std@@@std@@@std@@PEAX@1@$$QEA_N@Z
	??$?0PEAU?$_Tree_node@U?$pair@QEAVNodeHandle@roswrap@@V?$list@P6AXPEAVNodeHandle@roswrap@@PEBU?$MarkerArray_@V?$allocator@X@std@@@visualization_msgs@@@ZV?$allocator@P6AXPEAVNodeHandle@roswrap@@PEBU?$MarkerArray_@V?$allocator@X@std@@@visualization_msgs@@@Z@std@@@std@@@std@@PEAX@std@@_N$0A@@?$pair@PEAU?$_Tree_node@U?$pair@QEAVNodeHandle@roswrap@@V?$list@P6AXPEAVNodeHandle@roswrap@@PEBU?$MarkerArray_@V?$allocator@X@std@@@visualization_msgs@@@ZV?$allocator@P6AXPEAVNodeHandle@roswrap@@PEBU?$MarkerArray_@V?$allocator@X@std@@@visualization_msgs@@@Z@std@@@std@@@std@@PEAX@std@@_N@std@@QEAA@$$QEAPEAU?$_Tree_node@U?$pair@QEAVNodeHandle@roswrap@@V?$list@P6AXPEAVNodeHandle@roswrap@@PEBU?$MarkerArray_@V?$allocator@X@std@@@visualization_msgs@@@ZV?$allocator@P6AXPEAVNodeHandle@roswrap@@PEBU?$MarkerArray_@V?$allocator@X@std@@@visualization_msgs@@@Z@std@@@std@@@std@@PEAX@1@$$QEA_N@Z
	??$?0PEAU?$_Tree_node@U?$pair@QEAVNodeHandle@roswrap@@V?$list@P6AXPEAVNodeHandle@roswrap@@PEBU?$RadarScan_@V?$allocator@X@std@@@sick_scan_xd@@@ZV?$allocator@P6AXPEAVNodeHandle@roswrap@@PEBU?$RadarScan_@V?$allocator@X@std@@@sick_scan_xd@@@Z@std@@@std@@@std@@PEAX@std@@_N$0A@@?$pair@PEAU?$_Tree_node@U?$pair@QEAVNodeHandle@roswrap@@V?$list@P6AXPEAVNodeHandle@roswrap@@PEBU?$RadarScan_@V?$allocator@X@std@@@sick_scan_xd@@@ZV?$allocator@P6AXPEAVNodeHandle@roswrap@@PEBU?$RadarScan_@V?$allocator@X@std@@@sick_scan_xd@@@Z@std@@@std@@@std@@PEAX@std@@_N@std@@QEAA@$$QEAPEAU?$_Tree_node@U?$pair@QEAVNodeHandle@roswrap@@V?$list@P6AXPEAVNodeHandle@roswrap@@PEBU?$RadarScan_@V?$allocator@X@std@@@sick_scan_xd@@@ZV?$allocator@P6AXPEAVNodeHandle@roswrap@@PEBU?$RadarScan_@V?$allocator@X@std@@@sick_scan_xd@@@Z@std@@@std@@@std@@PEAX@1@$$QEA_N@Z
	??$?0PEAU?$_Tree_node@U?$pair@QEAVNodeHandle@roswrap@@V?$list@P6AXPEAVNodeHandle@roswrap@@PEBU?$SickLdmrsObjectArray_@V?$allocator@X@std@@@sick_scan_xd@@@ZV?$allocator@P6AXPEAVNodeHandle@roswrap@@PEBU?$SickLdmrsObjectArray_@V?$allocator@X@std@@@sick_scan_xd@@@Z@std@@@std@@@std@@PEAX@std@@_N$0A@@?$pair@PEAU?$_Tree_node@U?$pair@QEAVNodeHandle@roswrap@@V?$list@P6AXPEAVNodeHandle@roswrap@@PEBU?$SickLdmrsObjectArray_@V?$allocator@X@std@@@sick_scan_xd@@@ZV?$allocator@P6AXPEAVNodeHandle@roswrap@@PEBU?$SickLdmrsObjectArray_@V?$allocator@X@std@@@sick_scan_xd@@@Z@std@@@std@@@std@@PEAX@std@@_N@std@@QEAA@$$QEAPEAU?$_Tree_node@U?$pair@QEAVNodeHandle@roswrap@@V?$list@P6AXPEAVNodeHandle@roswrap@@PEBU?$SickLdmrsObjectArray_@V?$allocator@X@std@@@sick_scan_xd@@@ZV?$allocator@P6AXPEAVNodeHandle@roswrap@@PEBU?$SickLdmrsObjectArray_@V?$allocator@X@std@@@sick_scan_xd@@@Z@std@@@std@@@std@@PEAX@1@$$QEA_N@Z
	??$?0PEAU?$_Tree_node@U?$pair@QEAVNodeHandle@roswrap@@V?$list@P6AXPEAVNodeHandle@roswrap@@PEBUPointCloud2withEcho@sick_scan_xd@@@ZV?$allocator@P6AXPEAVNodeHandle@roswrap@@PEBUPointCloud2withEcho@sick_scan_xd@@@Z@std@@@std@@@std@@PEAX@std@@_N$0A@@?$pair@PEAU?$_Tree_node@U?$pair@QEAVNodeHandle@roswrap@@V?$list@P6AXPEAVNodeHandle@roswrap@@PEBUPointCloud2withEcho@sick_scan_xd@@@ZV?$allocator@P6AXPEAVNodeHandle@roswrap@@PEBUPointCloud2withEcho@sick_scan_xd@@@Z@std@@@std@@@std@@PEAX@std@@_N@std@@QEAA@$$QEAPEAU?$_Tree_node@U?$pair@QEAVNodeHandle@roswrap@@V?$list@P6AXPEAVNodeHandle@roswrap@@PEBUPointCloud2withEcho@sick_scan_xd@@@ZV?$allocator@P6AXPEAVNodeHandle@roswrap@@PEBUPointCloud2withEcho@sick_scan_xd@@@Z@std@@@std@@@std@@PEAX@1@$$QEA_N@Z
	??$?0PEAU?$_Tree_node@U?$pair@QEAVNodeHandle@roswrap@@V?$list@P6AXPEAVNodeHandle@roswrap@@PEBVNAV350mNPOSData@sick_scan_xd@@@ZV?$allocator@P6AXPEAVNodeHandle@roswrap@@PEBVNAV350mNPOSData@sick_scan_xd@@@Z@std@@@std@@@std@@PEAX@std@@_N$0A@@?$pair@PEAU?$_Tree_node@U?$pair@QEAVNodeHandle@roswrap@@V?$list@P6AXPEAVNodeHandle@roswrap@@PEBVNAV350mNPOSData@sick_scan_xd@@@ZV?$allocator@P6AXPEAVNodeHandle@roswrap@@PEBVNAV350mNPOSData@sick_scan_xd@@@Z@std@@@std@@@std@@PEAX@std@@_N@std@@QEAA@$$QEAPEAU?$_Tree_node@U?$pair@QEAVNodeHandle@roswrap@@V?$list@P6AXPEAVNodeHandle@roswrap@@PEBVNAV350mNPOSData@sick_scan_xd@@@ZV?$allocator@P6AXPEAVNodeHandle@roswrap@@PEBVNAV350mNPOSData@sick_scan_xd@@@Z@std@@@std@@@std@@PEAX@1@$$QEA_N@Z
	??$?0PEAU?$_Tree_node@U?$pair@QEAXV?$basic_string@DU?$char_traits@D@std@@V?$allocator@D@2@@std@@@std@@PEAX@std@@_N$0A@@?$pair@PEAU?$_Tree_node@U?$pair@QEAXV?$basic_string@DU?$char_traits@D@std@@V?$allocator@D@2@@std@@@std@@PEAX@std@@_N@std@@QEAA@$$QEAPEAU?$_Tree_node@U?$pair@QEAXV?$basic_string@DU?$char_traits@D@std@@V?$allocator@D@2@@std@@@std@@PEAX@1@$$QEA_N@Z
	??$?0PEAU?$_Tree_node@U?$pair@QEAXV?$list@P6AXPEAXPEBUSickScanDiagnosticMsgType@@@ZV?$allocator@P6AXPEAXPEBUSickScanDiagnosticMsgType@@@Z@std@@@std@@@std@@PEAX@std@@_N$0A@@?$pair@PEAU?$_Tree_node@U?$pair@QEAXV?$list@P6AXPEAXPEBUSickScanDiagnosticMsgType@@@ZV?$allocator@P6AXPEAXPEBUSickScanDiagnosticMsgType@@@Z@std@@@std@@@std@@PEAX@std@@_N@std@@QEAA@$$QEAPEAU?$_Tree_node@U?$pair@QEAXV?$list@P6AXPEAXPEBUSickScanDiagnosticMsgType@@@ZV?$allocator@P6AXPEAXPEBUSickScanDiagnosticMsgType@@@Z@std@@@std@@@std@@PEAX@1@$$QEA_N@Z
	??$?0PEAU?$_Tree_node@U?$pair@QEAXV?$list@P6AXPEAXPEBUSickScanImuMsgType@@@ZV?$allocator@P6AXPEAXPEBUSickScanImuMsgType@@@Z@std@@@std@@@std@@PEAX@std@@_N$0A@@?$pair@PEAU?$_Tree_node@U?$pair@QEAXV?$list@P6AXPEAXPEBUSickScanImuMsgType@@@ZV?$allocator@P6AXPEAXPEBUSickScanImuMsgType@@@Z@std@@@std@@@std@@PEAX@std@@_N@std@@QEAA@$$QEAPEAU?$_Tree_node@U?$pair@QEAXV?$list@P6AXPEAXPEBUSickScanImuMsgType@@@ZV?$allocator@P6AXPEAXPEBUSickScanImuMsgType@@@Z@std@@@std@@@std@@PEAX@1@$$QEA_N@Z
	??$?0PEAU?$_Tree_node@U?$pair@QEAXV?$list@P6AXPEAXPEBUSickScanLFErecMsgType@@@ZV?$allocator@P6AXPEAXPEBUSickScanLFErecMsgType@@@Z@std@@@std@@@std@@PEAX@std@@_N$0A@@?$pair@PEAU?$_Tree_node@U?$pair@QEAXV?$list@P6AXPEAXPEBUSickScanLFErecMsgType@@@ZV?$allocator@P6AXPEAXPEBUSickScanLFErecMsgType@@@Z@std@@@std@@@std@@PEAX@std@@_N@std@@QEAA@$$QEAPEAU?$_Tree_node@U?$pair@QEAXV?$list@P6AXPEAXPEBUSickScanLFErecMsgType@@@ZV?$allocator@P6AXPEAXPEBUSickScanLFErecMsgType@@@Z@std@@@std@@@std@@PEAX@1@$$QEA_N@Z
	??$?0PEAU?$_Tree_node@U?$pair@QEAXV?$list@P6AXPEAXPEBUSickScanLIDoutputstateMsgType@@@ZV?$allocator@P6AXPEAXPEBUSickScanLIDoutputstateMsgType@@@Z@std@@@std@@@std@@PEAX@std@@_N$0A@@?$pair@PEAU?$_Tree_node@U?$pair@QEAXV?$list@P6AXPEAXPEBUSickScanLIDoutputstateMsgType@@@ZV?$allocator@P6AXPEAXPEBUSickScanLIDoutputstateMsgType@@@Z@std@@@std@@@std@@PEAX@std@@_N@std@@QEAA@$$QEAPEAU?$_Tree_node@U?$pair@QEAXV?$list@P6AXPEAXPEBUSickScanLIDoutputstateMsgType@@@ZV?$allocator@P6AXPEAXPEBUSickScanLIDoutputstateMsgType@@@Z@std@@@std@@@std@@PEAX@1@$$QEA_N@Z
	??$?0PEAU?$_Tree_node@U?$pair@QEAXV?$list@P6AXPEAXPEBUSickScanLdmrsObjectArrayType@@@ZV?$allocator@P6AXPEAXPEBUSickScanLdmrsObjectArrayType@@@Z@std@@@std@@@std@@PEAX@std@@_N$0A@@?$pair@PEAU?$_Tree_node@U?$pair@QEAXV?$list@P6AXPEAXPEBUSickScanLdmrsObjectArrayType@@@ZV?$allocator@P6AXPEAXPEBUSickScanLdmrsObjectArrayType@@@Z@std@@@std@@@std@@PEAX@std@@_N@std@@QEAA@$$QEAPEAU?$_Tree_node@U?$pair@QEAXV?$list@P6AXPEAXPEBUSickScanLdmrsObjectArrayType@@@ZV?$allocator@P6AXPEAXPEBUSickScanLdmrsObjectArrayType@@@Z@std@@@std@@@std@@PEAX@1@$$QEA_N@Z
	??$?0PEAU?$_Tree_node@U?$pair@QEAXV?$list@P6AXPEAXPEBUSickScanLogMsgType@@@ZV?$allocator@P6AXPEAXPEBUSickScanLogMsgType@@@Z@std@@@std@@@std@@PEAX@std@@_N$0A@@?$pair@PEAU?$_Tree_node@U?$pair@QEAXV?$list@P6AXPEAXPEBUSickScanLogMsgType@@@ZV?$allocator@P6AXPEAXPEBUSickScanLogMsgType@@@Z@std@@@std@@@std@@PEAX@std@@_N@std@@QEAA@$$QEAPEAU?$_Tree_node@U?$pair@QEAXV?$list@P6AXPEAXPEBUSickScanLogMsgType@@@ZV?$allocator@P6AXPEAXPEBUSickScanLogMsgType@@@Z@std@@@std@@@std@@PEAX@1@$$QEA_N@Z
	??$?0PEAU?$_Tree_node@U?$pair@QEAXV?$list@P6AXPEAXPEBUSickScanNavPoseLandmarkMsgType@@@ZV?$allocator@P6AXPEAXPEBUSickScanNavPoseLandmarkMsgType@@@Z@std@@@std@@@std@@PEAX@std@@_N$0A@@?$pair@PEAU?$_Tree_node@U?$pair@QEAXV?$list@P6AXPEAXPEBUSickScanNavPoseLandmarkMsgType@@@ZV?$allocator@P6AXPEAXPEBUSickScanNavPoseLandmarkMsgType@@@Z@std@@@std@@@std@@PEAX@std@@_N@std@@QEAA@$$QEAPEAU?$_Tree_node@U?$pair@QEAXV?$list@P6AXPEAXPEBUSickScanNavPoseLandmarkMsgType@@@ZV?$allocator@P6AXPEAXPEBUSickScanNavPoseLandmarkMsgType@@@Z@std@@@std@@@std@@PEAX@1@$$QEA_N@Z
	??$?0PEAU?$_Tree_node@U?$pair@QEAXV?$list@P6AXPEAXPEBUSickScanPointCloudMsgType@@@ZV?$allocator@P6AXPEAXPEBUSickScanPointCloudMsgType@@@Z@std@@@std@@@std@@PEAX@std@@_N$0A@@?$pair@PEAU?$_Tree_node@U?$pair@QEAXV?$list@P6AXPEAXPEBUSickScanPointCloudMsgType@@@ZV?$allocator@P6AXPEAXPEBUSickScanPointCloudMsgType@@@Z@std@@@std@@@std@@PEAX@std@@_N@std@@QEAA@$$QEAPEAU?$_Tree_node@U?$pair@QEAXV?$list@P6AXPEAXPEBUSickScanPointCloudMsgType@@@ZV?$allocator@P6AXPEAXPEBUSickScanPointCloudMsgType@@@Z@std@@@std@@@std@@PEAX@1@$$QEA_N@Z
	??$?0PEAU?$_Tree_node@U?$pair@QEAXV?$list@P6AXPEAXPEBUSickScanRadarScanType@@@ZV?$allocator@P6AXPEAXPEBUSickScanRadarScanType@@@Z@std@@@std@@@std@@PEAX@std@@_N$0A@@?$pair@PEAU?$_Tree_node@U?$pair@QEAXV?$list@P6AXPEAXPEBUSickScanRadarScanType@@@ZV?$allocator@P6AXPEAXPEBUSickScanRadarScanType@@@Z@std@@@std@@@std@@PEAX@std@@_N@std@@QEAA@$$QEAPEAU?$_Tree_node@U?$pair@QEAXV?$list@P6AXPEAXPEBUSickScanRadarScanType@@@ZV?$allocator@P6AXPEAXPEBUSickScanRadarScanType@@@Z@std@@@std@@@std@@PEAX@1@$$QEA_N@Z
	??$?0PEAU?$_Tree_node@U?$pair@QEAXV?$list@P6AXPEAXPEBUSickScanVisualizationMarkerMsgType@@@ZV?$allocator@P6AXPEAXPEBUSickScanVisualizationMarkerMsgType@@@Z@std@@@std@@@std@@PEAX@std@@_N$0A@@?$pair@PEAU?$_Tree_node@U?$pair@QEAXV?$list@P6AXPEAXPEBUSickScanVisualizationMarkerMsgType@@@ZV?$allocator@P6AXPEAXPEBUSickScanVisualizationMarkerMsgType@@@Z@std@@@std@@@std@@PEAX@std@@_N@std@@QEAA@$$QEAPEAU?$_Tree_node@U?$pair@QEAXV?$list@P6AXPEAXPEBUSickScanVisualizationMarkerMsgType@@@ZV?$allocator@P6AXPEAXPEBUSickScanVisualizationMarkerMsgType@@@Z@std@@@std@@@std@@PEAX@1@$$QEA_N@Z
	??$?0PEAVGenericLaserCallable@@@?$_Tuple_val@PEAVGenericLaserCallable@@@std@@QEAA@$$QEAPEAVGenericLaserCallable@@@Z
	??$?0PEAVMsgPackConverter@sick_scansegment_xd@@@?$_Tuple_val@PEAVMsgPackConverter@sick_scansegment_xd@@@std@@QEAA@$$QEAPEAVMsgPackConverter@sick_scansegment_xd@@@Z
	??$?0PEAVMsgPackExporter@sick_scansegment_xd@@@?$_Tuple_val@PEAVMsgPackExporter@sick_scansegment_xd@@@std@@QEAA@$$QEAPEAVMsgPackExporter@sick_scansegment_xd@@@Z
	??$?0PEAVMsgPackThreads@sick_scansegment_xd@@@?$_Tuple_val@PEAVMsgPackThreads@sick_scansegment_xd@@@std@@QEAA@$$QEAPEAVMsgPackThreads@sick_scansegment_xd@@@Z
	??$?0PEAVThreadWrapperBase@@@?$_Tuple_val@PEAVThreadWrapperBase@@@std@@QEAA@$$QEAPEAVThreadWrapperBase@@@Z
	??$?0PEAVUdpReceiver@sick_scansegment_xd@@@?$_Tuple_val@PEAVUdpReceiver@sick_scansegment_xd@@@std@@QEAA@$$QEAPEAVUdpReceiver@sick_scansegment_xd@@@Z
	??$?0PEAX@?$allocator@U_Container_proxy@std@@@std@@QEAA@AEBV?$allocator@PEAX@1@@Z
	??$?0U?$ColorRGBA_@V?$allocator@X@std@@@std_msgs@@@?$allocator@U_Container_proxy@std@@@std@@QEAA@AEBV?$allocator@U?$ColorRGBA_@V?$allocator@X@std@@@std_msgs@@@1@@Z
	??$?0U?$LFErecFieldMsg_@V?$allocator@X@std@@@sick_scan_xd@@@?$allocator@U_Container_proxy@std@@@std@@QEAA@AEBV?$allocator@U?$LFErecFieldMsg_@V?$allocator@X@std@@@sick_scan_xd@@@1@@Z
	??$?0U?$Marker_@V?$allocator@X@std@@@visualization_msgs@@@?$allocator@U_Container_proxy@std@@@std@@QEAA@AEBV?$allocator@U?$Marker_@V?$allocator@X@std@@@visualization_msgs@@@1@@Z
	??$?0U?$NAVReflectorData_@V?$allocator@X@std@@@sick_scan_xd@@@?$allocator@U_Container_proxy@std@@@std@@QEAA@AEBV?$allocator@U?$NAVReflectorData_@V?$allocator@X@std@@@sick_scan_xd@@@1@@Z
	??$?0U?$PointField_@V?$allocator@X@std@@@sensor_msgs@@@?$allocator@U_Container_proxy@std@@@std@@QEAA@AEBV?$allocator@U?$PointField_@V?$allocator@X@std@@@sensor_msgs@@@1@@Z
	??$?0U?$Point_@V?$allocator@X@std@@@geometry_msgs@@@?$allocator@U_Container_proxy@std@@@std@@QEAA@AEBV?$allocator@U?$Point_@V?$allocator@X@std@@@geometry_msgs@@@1@@Z
	??$?0U?$RadarObject_@V?$allocator@X@std@@@sick_scan_xd@@@?$allocator@U_Container_proxy@std@@@std@@QEAA@AEBV?$allocator@U?$RadarObject_@V?$allocator@X@std@@@sick_scan_xd@@@1@@Z
	??$?0U?$RadarPreHeaderEncoderBlock_@V?$allocator@X@std@@@sick_scan_xd@@@?$allocator@U_Container_proxy@std@@@std@@QEAA@AEBV?$allocator@U?$RadarPreHeaderEncoderBlock_@V?$allocator@X@std@@@sick_scan_xd@@@1@@Z
	??$?0U?$SickLdmrsObject_@V?$allocator@X@std@@@sick_scan_xd@@@?$allocator@U_Container_proxy@std@@@std@@QEAA@AEBV?$allocator@U?$SickLdmrsObject_@V?$allocator@X@std@@@sick_scan_xd@@@1@@Z
	??$?0U?$_List_node@EPEAX@std@@@?$allocator@U_Container_proxy@std@@@std@@QEAA@AEBV?$allocator@U?$_List_node@EPEAX@std@@@1@@Z
	??$?0U?$_List_node@P6AXPEAVNodeHandle@roswrap@@PEBU?$Imu_@V?$allocator@X@std@@@sensor_msgs@@@ZPEAX@std@@@?$allocator@U_Container_proxy@std@@@std@@QEAA@AEBV?$allocator@U?$_List_node@P6AXPEAVNodeHandle@roswrap@@PEBU?$Imu_@V?$allocator@X@std@@@sensor_msgs@@@ZPEAX@std@@@1@@Z
	??$?0U?$_List_node@P6AXPEAVNodeHandle@roswrap@@PEBU?$LFErecMsg_@V?$allocator@X@std@@@sick_scan_xd@@@ZPEAX@std@@@?$allocator@U_Container_proxy@std@@@std@@QEAA@AEBV?$allocator@U?$_List_node@P6AXPEAVNodeHandle@roswrap@@PEBU?$LFErecMsg_@V?$allocator@X@std@@@sick_scan_xd@@@ZPEAX@std@@@1@@Z
	??$?0U?$_List_node@P6AXPEAVNodeHandle@roswrap@@PEBU?$LIDoutputstateMsg_@V?$allocator@X@std@@@sick_scan_xd@@@ZPEAX@std@@@?$allocator@U_Container_proxy@std@@@std@@QEAA@AEBV?$allocator@U?$_List_node@P6AXPEAVNodeHandle@roswrap@@PEBU?$LIDoutputstateMsg_@V?$allocator@X@std@@@sick_scan_xd@@@ZPEAX@std@@@1@@Z
	??$?0U?$_List_node@P6AXPEAVNodeHandle@roswrap@@PEBU?$MarkerArray_@V?$allocator@X@std@@@visualization_msgs@@@ZPEAX@std@@@?$allocator@U_Container_proxy@std@@@std@@QEAA@AEBV?$allocator@U?$_List_node@P6AXPEAVNodeHandle@roswrap@@PEBU?$MarkerArray_@V?$allocator@X@std@@@visualization_msgs@@@ZPEAX@std@@@1@@Z
	??$?0U?$_List_node@P6AXPEAVNodeHandle@roswrap@@PEBU?$RadarScan_@V?$allocator@X@std@@@sick_scan_xd@@@ZPEAX@std@@@?$allocator@U_Container_proxy@std@@@std@@QEAA@AEBV?$allocator@U?$_List_node@P6AXPEAVNodeHandle@roswrap@@PEBU?$RadarScan_@V?$allocator@X@std@@@sick_scan_xd@@@ZPEAX@std@@@1@@Z
	??$?0U?$_List_node@P6AXPEAVNodeHandle@roswrap@@PEBU?$SickLdmrsObjectArray_@V?$allocator@X@std@@@sick_scan_xd@@@ZPEAX@std@@@?$allocator@U_Container_proxy@std@@@std@@QEAA@AEBV?$allocator@U?$_List_node@P6AXPEAVNodeHandle@roswrap@@PEBU?$SickLdmrsObjectArray_@V?$allocator@X@std@@@sick_scan_xd@@@ZPEAX@std@@@1@@Z
	??$?0U?$_List_node@P6AXPEAVNodeHandle@roswrap@@PEBUPointCloud2withEcho@sick_scan_xd@@@ZPEAX@std@@@?$allocator@U_Container_proxy@std@@@std@@QEAA@AEBV?$allocator@U?$_List_node@P6AXPEAVNodeHandle@roswrap@@PEBUPointCloud2withEcho@sick_scan_xd@@@ZPEAX@std@@@1@@Z
	??$?0U?$_List_node@P6AXPEAVNodeHandle@roswrap@@PEBVNAV350mNPOSData@sick_scan_xd@@@ZPEAX@std@@@?$allocator@U_Container_proxy@std@@@std@@QEAA@AEBV?$allocator@U?$_List_node@P6AXPEAVNodeHandle@roswrap@@PEBVNAV350mNPOSData@sick_scan_xd@@@ZPEAX@std@@@1@@Z
	??$?0U?$_List_node@P6AXPEAXPEBUSickScanDiagnosticMsgType@@@ZPEAX@std@@@?$allocator@U_Container_proxy@std@@@std@@QEAA@AEBV?$allocator@U?$_List_node@P6AXPEAXPEBUSickScanDiagnosticMsgType@@@ZPEAX@std@@@1@@Z
	??$?0U?$_List_node@P6AXPEAXPEBUSickScanImuMsgType@@@ZPEAX@std@@@?$allocator@U_Container_proxy@std@@@std@@QEAA@AEBV?$allocator@U?$_List_node@P6AXPEAXPEBUSickScanImuMsgType@@@ZPEAX@std@@@1@@Z
	??$?0U?$_List_node@P6AXPEAXPEBUSickScanLFErecMsgType@@@ZPEAX@std@@@?$allocator@U_Container_proxy@std@@@std@@QEAA@AEBV?$allocator@U?$_List_node@P6AXPEAXPEBUSickScanLFErecMsgType@@@ZPEAX@std@@@1@@Z
	??$?0U?$_List_node@P6AXPEAXPEBUSickScanLIDoutputstateMsgType@@@ZPEAX@std@@@?$allocator@U_Container_proxy@std@@@std@@QEAA@AEBV?$allocator@U?$_List_node@P6AXPEAXPEBUSickScanLIDoutputstateMsgType@@@ZPEAX@std@@@1@@Z
	??$?0U?$_List_node@P6AXPEAXPEBUSickScanLdmrsObjectArrayType@@@ZPEAX@std@@@?$allocator@U_Container_proxy@std@@@std@@QEAA@AEBV?$allocator@U?$_List_node@P6AXPEAXPEBUSickScanLdmrsObjectArrayType@@@ZPEAX@std@@@1@@Z
	??$?0U?$_List_node@P6AXPEAXPEBUSickScanLogMsgType@@@ZPEAX@std@@@?$allocator@U_Container_proxy@std@@@std@@QEAA@AEBV?$allocator@U?$_List_node@P6AXPEAXPEBUSickScanLogMsgType@@@ZPEAX@std@@@1@@Z
	??$?0U?$_List_node@P6AXPEAXPEBUSickScanNavPoseLandmarkMsgType@@@ZPEAX@std@@@?$allocator@U_Container_proxy@std@@@std@@QEAA@AEBV?$allocator@U?$_List_node@P6AXPEAXPEBUSickScanNavPoseLandmarkMsgType@@@ZPEAX@std@@@1@@Z
	??$?0U?$_List_node@P6AXPEAXPEBUSickScanPointCloudMsgType@@@ZPEAX@std@@@?$allocator@U_Container_proxy@std@@@std@@QEAA@AEBV?$allocator@U?$_List_node@P6AXPEAXPEBUSickScanPointCloudMsgType@@@ZPEAX@std@@@1@@Z
	??$?0U?$_List_node@P6AXPEAXPEBUSickScanRadarScanType@@@ZPEAX@std@@@?$allocator@U_Container_proxy@std@@@std@@QEAA@AEBV?$allocator@U?$_List_node@P6AXPEAXPEBUSickScanRadarScanType@@@ZPEAX@std@@@1@@Z
	??$?0U?$_List_node@P6AXPEAXPEBUSickScanVisualizationMarkerMsgType@@@ZPEAX@std@@@?$allocator@U_Container_proxy@std@@@std@@QEAA@AEBV?$allocator@U?$_List_node@P6AXPEAXPEBUSickScanVisualizationMarkerMsgType@@@ZPEAX@std@@@1@@Z
	??$?0U?$_List_node@PEAV?$SickWaitForMessageHandler@PEAVNodeHandle@roswrap@@U?$Imu_@V?$allocator@X@std@@@sensor_msgs@@@sick_scan_xd@@PEAX@std@@@?$allocator@U_Container_proxy@std@@@std@@QEAA@AEBV?$allocator@U?$_List_node@PEAV?$SickWaitForMessageHandler@PEAVNodeHandle@roswrap@@U?$Imu_@V?$allocator@X@std@@@sensor_msgs@@@sick_scan_xd@@PEAX@std@@@1@@Z
	??$?0U?$_List_node@PEAV?$SickWaitForMessageHandler@PEAVNodeHandle@roswrap@@U?$LFErecMsg_@V?$allocator@X@std@@@sick_scan_xd@@@sick_scan_xd@@PEAX@std@@@?$allocator@U_Container_proxy@std@@@std@@QEAA@AEBV?$allocator@U?$_List_node@PEAV?$SickWaitForMessageHandler@PEAVNodeHandle@roswrap@@U?$LFErecMsg_@V?$allocator@X@std@@@sick_scan_xd@@@sick_scan_xd@@PEAX@std@@@1@@Z
	??$?0U?$_List_node@PEAV?$SickWaitForMessageHandler@PEAVNodeHandle@roswrap@@U?$LIDoutputstateMsg_@V?$allocator@X@std@@@sick_scan_xd@@@sick_scan_xd@@PEAX@std@@@?$allocator@U_Container_proxy@std@@@std@@QEAA@AEBV?$allocator@U?$_List_node@PEAV?$SickWaitForMessageHandler@PEAVNodeHandle@roswrap@@U?$LIDoutputstateMsg_@V?$allocator@X@std@@@sick_scan_xd@@@sick_scan_xd@@PEAX@std@@@1@@Z
	??$?0U?$_List_node@PEAV?$SickWaitForMessageHandler@PEAVNodeHandle@roswrap@@U?$MarkerArray_@V?$allocator@X@std@@@visualization_msgs@@@sick_scan_xd@@PEAX@std@@@?$allocator@U_Container_proxy@std@@@std@@QEAA@AEBV?$allocator@U?$_List_node@PEAV?$SickWaitForMessageHandler@PEAVNodeHandle@roswrap@@U?$MarkerArray_@V?$allocator@X@std@@@visualization_msgs@@@sick_scan_xd@@PEAX@std@@@1@@Z
	??$?0U?$_List_node@PEAV?$SickWaitForMessageHandler@PEAVNodeHandle@roswrap@@U?$RadarScan_@V?$allocator@X@std@@@sick_scan_xd@@@sick_scan_xd@@PEAX@std@@@?$allocator@U_Container_proxy@std@@@std@@QEAA@AEBV?$allocator@U?$_List_node@PEAV?$SickWaitForMessageHandler@PEAVNodeHandle@roswrap@@U?$RadarScan_@V?$allocator@X@std@@@sick_scan_xd@@@sick_scan_xd@@PEAX@std@@@1@@Z
	??$?0U?$_List_node@PEAV?$SickWaitForMessageHandler@PEAVNodeHandle@roswrap@@U?$SickLdmrsObjectArray_@V?$allocator@X@std@@@sick_scan_xd@@@sick_scan_xd@@PEAX@std@@@?$allocator@U_Container_proxy@std@@@std@@QEAA@AEBV?$allocator@U?$_List_node@PEAV?$SickWaitForMessageHandler@PEAVNodeHandle@roswrap@@U?$SickLdmrsObjectArray_@V?$allocator@X@std@@@sick_scan_xd@@@sick_scan_xd@@PEAX@std@@@1@@Z
	??$?0U?$_List_node@PEAV?$SickWaitForMessageHandler@PEAVNodeHandle@roswrap@@UPointCloud2withEcho@sick_scan_xd@@@sick_scan_xd@@PEAX@std@@@?$allocator@U_Container_proxy@std@@@std@@QEAA@AEBV?$allocator@U?$_List_node@PEAV?$SickWaitForMessageHandler@PEAVNodeHandle@roswrap@@UPointCloud2withEcho@sick_scan_xd@@@sick_scan_xd@@PEAX@std@@@1@@Z
	??$?0U?$_List_node@PEAV?$SickWaitForMessageHandler@PEAVNodeHandle@roswrap@@VNAV350mNPOSData@sick_scan_xd@@@sick_scan_xd@@PEAX@std@@@?$allocator@U_Container_proxy@std@@@std@@QEAA@AEBV?$allocator@U?$_List_node@PEAV?$SickWaitForMessageHandler@PEAVNodeHandle@roswrap@@VNAV350mNPOSData@sick_scan_xd@@@sick_scan_xd@@PEAX@std@@@1@@Z
	??$?0U?$_List_node@PEAVMsgPackExportListenerIF@sick_scansegment_xd@@PEAX@std@@@?$allocator@U_Container_proxy@std@@@std@@QEAA@AEBV?$allocator@U?$_List_node@PEAVMsgPackExportListenerIF@sick_scansegment_xd@@PEAX@std@@@1@@Z
	??$?0U?$_List_node@VDatagramWithTimeStamp@sick_scan_xd@@PEAX@std@@@?$allocator@U_Container_proxy@std@@@std@@QEAA@AEBV?$allocator@U?$_List_node@VDatagramWithTimeStamp@sick_scan_xd@@PEAX@std@@@1@@Z
	??$?0U?$_Tree_node@U?$pair@$$CBC_N@std@@PEAX@std@@@?$allocator@U_Container_proxy@std@@@std@@QEAA@AEBV?$allocator@U?$_Tree_node@U?$pair@$$CBC_N@std@@PEAX@std@@@1@@Z
	??$?0U?$_Tree_node@U?$pair@$$CBEV?$basic_string@DU?$char_traits@D@std@@V?$allocator@D@2@@std@@@std@@PEAX@std@@@?$allocator@U_Container_proxy@std@@@std@@QEAA@AEBV?$allocator@U?$_Tree_node@U?$pair@$$CBEV?$basic_string@DU?$char_traits@D@std@@V?$allocator@D@2@@std@@@std@@PEAX@std@@@1@@Z
	??$?0U?$_Tree_node@U?$pair@$$CBHH@std@@PEAX@std@@@?$allocator@U_Container_proxy@std@@@std@@QEAA@AEBV?$allocator@U?$_Tree_node@U?$pair@$$CBHH@std@@PEAX@std@@@1@@Z
	??$?0U?$_Tree_node@U?$pair@$$CBHU?$LaserScan_@V?$allocator@X@std@@@sensor_msgs@@@std@@PEAX@std@@@?$allocator@U_Container_proxy@std@@@std@@QEAA@AEBV?$allocator@U?$_Tree_node@U?$pair@$$CBHU?$LaserScan_@V?$allocator@X@std@@@sensor_msgs@@@std@@PEAX@std@@@1@@Z
	??$?0U?$_Tree_node@U?$pair@$$CBHV?$map@HHU?$less@H@std@@V?$allocator@U?$pair@$$CBHH@std@@@2@@std@@@std@@PEAX@std@@@?$allocator@U_Container_proxy@std@@@std@@QEAA@AEBV?$allocator@U?$_Tree_node@U?$pair@$$CBHV?$map@HHU?$less@H@std@@V?$allocator@U?$pair@$$CBHH@std@@@2@@std@@@std@@PEAX@std@@@1@@Z
	??$?0U?$_Tree_node@U?$pair@$$CBHV?$map@HU?$LaserScan_@V?$allocator@X@std@@@sensor_msgs@@U?$less@H@std@@V?$allocator@U?$pair@$$CBHU?$LaserScan_@V?$allocator@X@std@@@sensor_msgs@@@std@@@4@@std@@@std@@PEAX@std@@@?$allocator@U_Container_proxy@std@@@std@@QEAA@AEBV?$allocator@U?$_Tree_node@U?$pair@$$CBHV?$map@HU?$LaserScan_@V?$allocator@X@std@@@sensor_msgs@@U?$less@H@std@@V?$allocator@U?$pair@$$CBHU?$LaserScan_@V?$allocator@X@std@@@sensor_msgs@@@std@@@4@@std@@@std@@PEAX@std@@@1@@Z
	??$?0U?$_Tree_node@U?$pair@$$CBHV?$map@HV?$map@HHU?$less@H@std@@V?$allocator@U?$pair@$$CBHH@std@@@2@@std@@U?$less@H@2@V?$allocator@U?$pair@$$CBHV?$map@HHU?$less@H@std@@V?$allocator@U?$pair@$$CBHH@std@@@2@@std@@@std@@@2@@std@@@std@@PEAX@std@@@?$allocator@U_Container_proxy@std@@@std@@QEAA@AEBV?$allocator@U?$_Tree_node@U?$pair@$$CBHV?$map@HV?$map@HHU?$less@H@std@@V?$allocator@U?$pair@$$CBHH@std@@@2@@std@@U?$less@H@2@V?$allocator@U?$pair@$$CBHV?$map@HHU?$less@H@std@@V?$allocator@U?$pair@$$CBHH@std@@@2@@std@@@std@@@2@@std@@@std@@PEAX@std@@@1@@Z
	??$?0U?$_Tree_node@U?$pair@$$CBHV?$map@HV?$map@HV?$map@HHU?$less@H@std@@V?$allocator@U?$pair@$$CBHH@std@@@2@@std@@U?$less@H@2@V?$allocator@U?$pair@$$CBHV?$map@HHU?$less@H@std@@V?$allocator@U?$pair@$$CBHH@std@@@2@@std@@@std@@@2@@std@@U?$less@H@2@V?$allocator@U?$pair@$$CBHV?$map@HV?$map@HHU?$less@H@std@@V?$allocator@U?$pair@$$CBHH@std@@@2@@std@@U?$less@H@2@V?$allocator@U?$pair@$$CBHV?$map@HHU?$less@H@std@@V?$allocator@U?$pair@$$CBHH@std@@@2@@std@@@std@@@2@@std@@@std@@@2@@std@@@std@@PEAX@std@@@?$allocator@U_Container_proxy@std@@@std@@QEAA@AEBV?$allocator@U?$_Tree_node@U?$pair@$$CBHV?$map@HV?$map@HV?$map@HHU?$less@H@std@@V?$allocator@U?$pair@$$CBHH@std@@@2@@std@@U?$less@H@2@V?$allocator@U?$pair@$$CBHV?$map@HHU?$less@H@std@@V?$allocator@U?$pair@$$CBHH@std@@@2@@std@@@std@@@2@@std@@U?$less@H@2@V?$allocator@U?$pair@$$CBHV?$map@HV?$map@HHU?$less@H@std@@V?$allocator@U?$pair@$$CBHH@std@@@2@@std@@U?$less@H@2@V?$allocator@U?$pair@$$CBHV?$map@HHU?$less@H@std@@V?$allocator@U?$pair@$$CBHH@std@@@2@@std@@@std@@@2@@std@@@std@@@2@@std@@@std@@PEAX@std@@@1@@Z
	??$?0U?$_Tree_node@U?$pair@$$CBHV?$time_point@Usystem_clock@chrono@std@@V?$duration@_JU?$ratio@$00$0JIJGIA@@std@@@23@@chrono@std@@@std@@PEAX@std@@@?$allocator@U_Container_proxy@std@@@std@@QEAA@AEBV?$allocator@U?$_Tree_node@U?$pair@$$CBHV?$time_point@Usystem_clock@chrono@std@@V?$duration@_JU?$ratio@$00$0JIJGIA@@std@@@23@@chrono@std@@@std@@PEAX@std@@@1@@Z
	??$?0U?$_Tree_node@U?$pair@$$CBH_K@std@@PEAX@std@@@?$allocator@U_Container_proxy@std@@@std@@QEAA@AEBV?$allocator@U?$_Tree_node@U?$pair@$$CBH_K@std@@PEAX@std@@@1@@Z
	??$?0U?$_Tree_node@U?$pair@$$CBV?$basic_string@DU?$char_traits@D@std@@V?$allocator@D@2@@std@@H@std@@PEAX@std@@@?$allocator@U_Container_proxy@std@@@std@@QEAA@AEBV?$allocator@U?$_Tree_node@U?$pair@$$CBV?$basic_string@DU?$char_traits@D@std@@V?$allocator@D@2@@std@@H@std@@PEAX@std@@@1@@Z
	??$?0U?$_Tree_node@U?$pair@$$CBV?$basic_string@DU?$char_traits@D@std@@V?$allocator@D@2@@std@@V12@@std@@PEAX@std@@@?$allocator@U_Container_proxy@std@@@std@@QEAA@AEBV?$allocator@U?$_Tree_node@U?$pair@$$CBV?$basic_string@DU?$char_traits@D@std@@V?$allocator@D@2@@std@@V12@@std@@PEAX@std@@@1@@Z
	??$?0U?$_Tree_node@U?$pair@$$CBV?$basic_string@DU?$char_traits@D@std@@V?$allocator@D@2@@std@@V?$vector@V?$basic_string@DU?$char_traits@D@std@@V?$allocator@D@2@@std@@V?$allocator@V?$basic_string@DU?$char_traits@D@std@@V?$allocator@D@2@@std@@@2@@2@@std@@PEAX@std@@@?$allocator@U_Container_proxy@std@@@std@@QEAA@AEBV?$allocator@U?$_Tree_node@U?$pair@$$CBV?$basic_string@DU?$char_traits@D@std@@V?$allocator@D@2@@std@@V?$vector@V?$basic_string@DU?$char_traits@D@std@@V?$allocator@D@2@@std@@V?$allocator@V?$basic_string@DU?$char_traits@D@std@@V?$allocator@D@2@@std@@@2@@2@@std@@PEAX@std@@@1@@Z
	??$?0U?$_Tree_node@U?$pair@$$CBV?$basic_string@DU?$char_traits@D@std@@V?$allocator@D@2@@std@@_N@std@@PEAX@std@@@?$allocator@U_Container_proxy@std@@@std@@QEAA@AEBV?$allocator@U?$_Tree_node@U?$pair@$$CBV?$basic_string@DU?$char_traits@D@std@@V?$allocator@D@2@@std@@_N@std@@PEAX@std@@@1@@Z
	??$?0U?$_Tree_node@U?$pair@$$CBVMsgPack@msgpack11@@V12@@std@@PEAX@std@@@?$allocator@U_Container_proxy@std@@@std@@QEAA@AEBV?$allocator@U?$_Tree_node@U?$pair@$$CBVMsgPack@msgpack11@@V12@@std@@PEAX@std@@@1@@Z
	??$?0U?$_Tree_node@U?$pair@QEAVNodeHandle@roswrap@@V?$list@P6AXPEAVNodeHandle@roswrap@@PEBU?$Imu_@V?$allocator@X@std@@@sensor_msgs@@@ZV?$allocator@P6AXPEAVNodeHandle@roswrap@@PEBU?$Imu_@V?$allocator@X@std@@@sensor_msgs@@@Z@std@@@std@@@std@@PEAX@std@@@?$allocator@U_Container_proxy@std@@@std@@QEAA@AEBV?$allocator@U?$_Tree_node@U?$pair@QEAVNodeHandle@roswrap@@V?$list@P6AXPEAVNodeHandle@roswrap@@PEBU?$Imu_@V?$allocator@X@std@@@sensor_msgs@@@ZV?$allocator@P6AXPEAVNodeHandle@roswrap@@PEBU?$Imu_@V?$allocator@X@std@@@sensor_msgs@@@Z@std@@@std@@@std@@PEAX@std@@@1@@Z
	??$?0U?$_Tree_node@U?$pair@QEAVNodeHandle@roswrap@@V?$list@P6AXPEAVNodeHandle@roswrap@@PEBU?$LFErecMsg_@V?$allocator@X@std@@@sick_scan_xd@@@ZV?$allocator@P6AXPEAVNodeHandle@roswrap@@PEBU?$LFErecMsg_@V?$allocator@X@std@@@sick_scan_xd@@@Z@std@@@std@@@std@@PEAX@std@@@?$allocator@U_Container_proxy@std@@@std@@QEAA@AEBV?$allocator@U?$_Tree_node@U?$pair@QEAVNodeHandle@roswrap@@V?$list@P6AXPEAVNodeHandle@roswrap@@PEBU?$LFErecMsg_@V?$allocator@X@std@@@sick_scan_xd@@@ZV?$allocator@P6AXPEAVNodeHandle@roswrap@@PEBU?$LFErecMsg_@V?$allocator@X@std@@@sick_scan_xd@@@Z@std@@@std@@@std@@PEAX@std@@@1@@Z
	??$?0U?$_Tree_node@U?$pair@QEAVNodeHandle@roswrap@@V?$list@P6AXPEAVNodeHandle@roswrap@@PEBU?$LIDoutputstateMsg_@V?$allocator@X@std@@@sick_scan_xd@@@ZV?$allocator@P6AXPEAVNodeHandle@roswrap@@PEBU?$LIDoutputstateMsg_@V?$allocator@X@std@@@sick_scan_xd@@@Z@std@@@std@@@std@@PEAX@std@@@?$allocator@U_Container_proxy@std@@@std@@QEAA@AEBV?$allocator@U?$_Tree_node@U?$pair@QEAVNodeHandle@roswrap@@V?$list@P6AXPEAVNodeHandle@roswrap@@PEBU?$LIDoutputstateMsg_@V?$allocator@X@std@@@sick_scan_xd@@@ZV?$allocator@P6AXPEAVNodeHandle@roswrap@@PEBU?$LIDoutputstateMsg_@V?$allocator@X@std@@@sick_scan_xd@@@Z@std@@@std@@@std@@PEAX@std@@@1@@Z
	??$?0U?$_Tree_node@U?$pair@QEAVNodeHandle@roswrap@@V?$list@P6AXPEAVNodeHandle@roswrap@@PEBU?$MarkerArray_@V?$allocator@X@std@@@visualization_msgs@@@ZV?$allocator@P6AXPEAVNodeHandle@roswrap@@PEBU?$MarkerArray_@V?$allocator@X@std@@@visualization_msgs@@@Z@std@@@std@@@std@@PEAX@std@@@?$allocator@U_Container_proxy@std@@@std@@QEAA@AEBV?$allocator@U?$_Tree_node@U?$pair@QEAVNodeHandle@roswrap@@V?$list@P6AXPEAVNodeHandle@roswrap@@PEBU?$MarkerArray_@V?$allocator@X@std@@@visualization_msgs@@@ZV?$allocator@P6AXPEAVNodeHandle@roswrap@@PEBU?$MarkerArray_@V?$allocator@X@std@@@visualization_msgs@@@Z@std@@@std@@@std@@PEAX@std@@@1@@Z
	??$?0U?$_Tree_node@U?$pair@QEAVNodeHandle@roswrap@@V?$list@P6AXPEAVNodeHandle@roswrap@@PEBU?$RadarScan_@V?$allocator@X@std@@@sick_scan_xd@@@ZV?$allocator@P6AXPEAVNodeHandle@roswrap@@PEBU?$RadarScan_@V?$allocator@X@std@@@sick_scan_xd@@@Z@std@@@std@@@std@@PEAX@std@@@?$allocator@U_Container_proxy@std@@@std@@QEAA@AEBV?$allocator@U?$_Tree_node@U?$pair@QEAVNodeHandle@roswrap@@V?$list@P6AXPEAVNodeHandle@roswrap@@PEBU?$RadarScan_@V?$allocator@X@std@@@sick_scan_xd@@@ZV?$allocator@P6AXPEAVNodeHandle@roswrap@@PEBU?$RadarScan_@V?$allocator@X@std@@@sick_scan_xd@@@Z@std@@@std@@@std@@PEAX@std@@@1@@Z
	??$?0U?$_Tree_node@U?$pair@QEAVNodeHandle@roswrap@@V?$list@P6AXPEAVNodeHandle@roswrap@@PEBU?$SickLdmrsObjectArray_@V?$allocator@X@std@@@sick_scan_xd@@@ZV?$allocator@P6AXPEAVNodeHandle@roswrap@@PEBU?$SickLdmrsObjectArray_@V?$allocator@X@std@@@sick_scan_xd@@@Z@std@@@std@@@std@@PEAX@std@@@?$allocator@U_Container_proxy@std@@@std@@QEAA@AEBV?$allocator@U?$_Tree_node@U?$pair@QEAVNodeHandle@roswrap@@V?$list@P6AXPEAVNodeHandle@roswrap@@PEBU?$SickLdmrsObjectArray_@V?$allocator@X@std@@@sick_scan_xd@@@ZV?$allocator@P6AXPEAVNodeHandle@roswrap@@PEBU?$SickLdmrsObjectArray_@V?$allocator@X@std@@@sick_scan_xd@@@Z@std@@@std@@@std@@PEAX@std@@@1@@Z
	??$?0U?$_Tree_node@U?$pair@QEAVNodeHandle@roswrap@@V?$list@P6AXPEAVNodeHandle@roswrap@@PEBUPointCloud2withEcho@sick_scan_xd@@@ZV?$allocator@P6AXPEAVNodeHandle@roswrap@@PEBUPointCloud2withEcho@sick_scan_xd@@@Z@std@@@std@@@std@@PEAX@std@@@?$allocator@U_Container_proxy@std@@@std@@QEAA@AEBV?$allocator@U?$_Tree_node@U?$pair@QEAVNodeHandle@roswrap@@V?$list@P6AXPEAVNodeHandle@roswrap@@PEBUPointCloud2withEcho@sick_scan_xd@@@ZV?$allocator@P6AXPEAVNodeHandle@roswrap@@PEBUPointCloud2withEcho@sick_scan_xd@@@Z@std@@@std@@@std@@PEAX@std@@@1@@Z
	??$?0U?$_Tree_node@U?$pair@QEAVNodeHandle@roswrap@@V?$list@P6AXPEAVNodeHandle@roswrap@@PEBVNAV350mNPOSData@sick_scan_xd@@@ZV?$allocator@P6AXPEAVNodeHandle@roswrap@@PEBVNAV350mNPOSData@sick_scan_xd@@@Z@std@@@std@@@std@@PEAX@std@@@?$allocator@U_Container_proxy@std@@@std@@QEAA@AEBV?$allocator@U?$_Tree_node@U?$pair@QEAVNodeHandle@roswrap@@V?$list@P6AXPEAVNodeHandle@roswrap@@PEBVNAV350mNPOSData@sick_scan_xd@@@ZV?$allocator@P6AXPEAVNodeHandle@roswrap@@PEBVNAV350mNPOSData@sick_scan_xd@@@Z@std@@@std@@@std@@PEAX@std@@@1@@Z
	??$?0U?$_Tree_node@U?$pair@QEAXV?$basic_string@DU?$char_traits@D@std@@V?$allocator@D@2@@std@@@std@@PEAX@std@@@?$allocator@U_Container_proxy@std@@@std@@QEAA@AEBV?$allocator@U?$_Tree_node@U?$pair@QEAXV?$basic_string@DU?$char_traits@D@std@@V?$allocator@D@2@@std@@@std@@PEAX@std@@@1@@Z
	??$?0U?$_Tree_node@U?$pair@QEAXV?$list@P6AXPEAXPEBUSickScanDiagnosticMsgType@@@ZV?$allocator@P6AXPEAXPEBUSickScanDiagnosticMsgType@@@Z@std@@@std@@@std@@PEAX@std@@@?$allocator@U_Container_proxy@std@@@std@@QEAA@AEBV?$allocator@U?$_Tree_node@U?$pair@QEAXV?$list@P6AXPEAXPEBUSickScanDiagnosticMsgType@@@ZV?$allocator@P6AXPEAXPEBUSickScanDiagnosticMsgType@@@Z@std@@@std@@@std@@PEAX@std@@@1@@Z
	??$?0U?$_Tree_node@U?$pair@QEAXV?$list@P6AXPEAXPEBUSickScanImuMsgType@@@ZV?$allocator@P6AXPEAXPEBUSickScanImuMsgType@@@Z@std@@@std@@@std@@PEAX@std@@@?$allocator@U_Container_proxy@std@@@std@@QEAA@AEBV?$allocator@U?$_Tree_node@U?$pair@QEAXV?$list@P6AXPEAXPEBUSickScanImuMsgType@@@ZV?$allocator@P6AXPEAXPEBUSickScanImuMsgType@@@Z@std@@@std@@@std@@PEAX@std@@@1@@Z
	??$?0U?$_Tree_node@U?$pair@QEAXV?$list@P6AXPEAXPEBUSickScanLFErecMsgType@@@ZV?$allocator@P6AXPEAXPEBUSickScanLFErecMsgType@@@Z@std@@@std@@@std@@PEAX@std@@@?$allocator@U_Container_proxy@std@@@std@@QEAA@AEBV?$allocator@U?$_Tree_node@U?$pair@QEAXV?$list@P6AXPEAXPEBUSickScanLFErecMsgType@@@ZV?$allocator@P6AXPEAXPEBUSickScanLFErecMsgType@@@Z@std@@@std@@@std@@PEAX@std@@@1@@Z
	??$?0U?$_Tree_node@U?$pair@QEAXV?$list@P6AXPEAXPEBUSickScanLIDoutputstateMsgType@@@ZV?$allocator@P6AXPEAXPEBUSickScanLIDoutputstateMsgType@@@Z@std@@@std@@@std@@PEAX@std@@@?$allocator@U_Container_proxy@std@@@std@@QEAA@AEBV?$allocator@U?$_Tree_node@U?$pair@QEAXV?$list@P6AXPEAXPEBUSickScanLIDoutputstateMsgType@@@ZV?$allocator@P6AXPEAXPEBUSickScanLIDoutputstateMsgType@@@Z@std@@@std@@@std@@PEAX@std@@@1@@Z
	??$?0U?$_Tree_node@U?$pair@QEAXV?$list@P6AXPEAXPEBUSickScanLdmrsObjectArrayType@@@ZV?$allocator@P6AXPEAXPEBUSickScanLdmrsObjectArrayType@@@Z@std@@@std@@@std@@PEAX@std@@@?$allocator@U_Container_proxy@std@@@std@@QEAA@AEBV?$allocator@U?$_Tree_node@U?$pair@QEAXV?$list@P6AXPEAXPEBUSickScanLdmrsObjectArrayType@@@ZV?$allocator@P6AXPEAXPEBUSickScanLdmrsObjectArrayType@@@Z@std@@@std@@@std@@PEAX@std@@@1@@Z
	??$?0U?$_Tree_node@U?$pair@QEAXV?$list@P6AXPEAXPEBUSickScanLogMsgType@@@ZV?$allocator@P6AXPEAXPEBUSickScanLogMsgType@@@Z@std@@@std@@@std@@PEAX@std@@@?$allocator@U_Container_proxy@std@@@std@@QEAA@AEBV?$allocator@U?$_Tree_node@U?$pair@QEAXV?$list@P6AXPEAXPEBUSickScanLogMsgType@@@ZV?$allocator@P6AXPEAXPEBUSickScanLogMsgType@@@Z@std@@@std@@@std@@PEAX@std@@@1@@Z
	??$?0U?$_Tree_node@U?$pair@QEAXV?$list@P6AXPEAXPEBUSickScanNavPoseLandmarkMsgType@@@ZV?$allocator@P6AXPEAXPEBUSickScanNavPoseLandmarkMsgType@@@Z@std@@@std@@@std@@PEAX@std@@@?$allocator@U_Container_proxy@std@@@std@@QEAA@AEBV?$allocator@U?$_Tree_node@U?$pair@QEAXV?$list@P6AXPEAXPEBUSickScanNavPoseLandmarkMsgType@@@ZV?$allocator@P6AXPEAXPEBUSickScanNavPoseLandmarkMsgType@@@Z@std@@@std@@@std@@PEAX@std@@@1@@Z
	??$?0U?$_Tree_node@U?$pair@QEAXV?$list@P6AXPEAXPEBUSickScanPointCloudMsgType@@@ZV?$allocator@P6AXPEAXPEBUSickScanPointCloudMsgType@@@Z@std@@@std@@@std@@PEAX@std@@@?$allocator@U_Container_proxy@std@@@std@@QEAA@AEBV?$allocator@U?$_Tree_node@U?$pair@QEAXV?$list@P6AXPEAXPEBUSickScanPointCloudMsgType@@@ZV?$allocator@P6AXPEAXPEBUSickScanPointCloudMsgType@@@Z@std@@@std@@@std@@PEAX@std@@@1@@Z
	??$?0U?$_Tree_node@U?$pair@QEAXV?$list@P6AXPEAXPEBUSickScanRadarScanType@@@ZV?$allocator@P6AXPEAXPEBUSickScanRadarScanType@@@Z@std@@@std@@@std@@PEAX@std@@@?$allocator@U_Container_proxy@std@@@std@@QEAA@AEBV?$allocator@U?$_Tree_node@U?$pair@QEAXV?$list@P6AXPEAXPEBUSickScanRadarScanType@@@ZV?$allocator@P6AXPEAXPEBUSickScanRadarScanType@@@Z@std@@@std@@@std@@PEAX@std@@@1@@Z
	??$?0U?$_Tree_node@U?$pair@QEAXV?$list@P6AXPEAXPEBUSickScanVisualizationMarkerMsgType@@@ZV?$allocator@P6AXPEAXPEBUSickScanVisualizationMarkerMsgType@@@Z@std@@@std@@@std@@PEAX@std@@@?$allocator@U_Container_proxy@std@@@std@@QEAA@AEBV?$allocator@U?$_Tree_node@U?$pair@QEAXV?$list@P6AXPEAXPEBUSickScanVisualizationMarkerMsgType@@@ZV?$allocator@P6AXPEAXPEBUSickScanVisualizationMarkerMsgType@@@Z@std@@@std@@@std@@PEAX@std@@@1@@Z
	??$?0U?$default_delete@V?$tuple@P6APEAXPEAX@ZPEAVThreadWrapperBase@@@std@@@std@@$0A@@?$unique_ptr@V?$tuple@P6APEAXPEAX@ZPEAVThreadWrapperBase@@@std@@U?$default_delete@V?$tuple@P6APEAXPEAX@ZPEAVThreadWrapperBase@@@std@@@2@@std@@QEAA@$$QEAV01@@Z
	??$?0U?$default_delete@V?$tuple@P6APEAXPEAX@ZPEAVThreadWrapperBase@@@std@@@std@@$0A@@?$unique_ptr@V?$tuple@P6APEAXPEAX@ZPEAVThreadWrapperBase@@@std@@U?$default_delete@V?$tuple@P6APEAXPEAX@ZPEAVThreadWrapperBase@@@std@@@2@@std@@QEAA@PEAV?$tuple@P6APEAXPEAX@ZPEAVThreadWrapperBase@@@1@@Z
	??$?0U?$default_delete@V?$tuple@P6APEAXPEAX@ZPEAVThreadWrapperBase@@@std@@@std@@PEAV?$tuple@P6APEAXPEAX@ZPEAVThreadWrapperBase@@@1@@?$_Compressed_pair@U?$default_delete@V?$tuple@P6APEAXPEAX@ZPEAVThreadWrapperBase@@@std@@@std@@PEAV?$tuple@P6APEAXPEAX@ZPEAVThreadWrapperBase@@@2@$00@std@@QEAA@U_One_then_variadic_args_t@1@$$QEAU?$default_delete@V?$tuple@P6APEAXPEAX@ZPEAVThreadWrapperBase@@@std@@@1@$$QEAPEAV?$tuple@P6APEAXPEAX@ZPEAVThreadWrapperBase@@@1@@Z
	??$?0U?$default_delete@V?$tuple@P8GenericLaserCallable@@EAAXXZPEAV1@@std@@@std@@$0A@@?$unique_ptr@V?$tuple@P8GenericLaserCallable@@EAAXXZPEAV1@@std@@U?$default_delete@V?$tuple@P8GenericLaserCallable@@EAAXXZPEAV1@@std@@@2@@std@@QEAA@$$QEAV01@@Z
	??$?0U?$default_delete@V?$tuple@P8GenericLaserCallable@@EAAXXZPEAV1@@std@@@std@@$0A@@?$unique_ptr@V?$tuple@P8GenericLaserCallable@@EAAXXZPEAV1@@std@@U?$default_delete@V?$tuple@P8GenericLaserCallable@@EAAXXZPEAV1@@std@@@2@@std@@QEAA@PEAV?$tuple@P8GenericLaserCallable@@EAAXXZPEAV1@@1@@Z
	??$?0U?$default_delete@V?$tuple@P8GenericLaserCallable@@EAAXXZPEAV1@@std@@@std@@PEAV?$tuple@P8GenericLaserCallable@@EAAXXZPEAV1@@1@@?$_Compressed_pair@U?$default_delete@V?$tuple@P8GenericLaserCallable@@EAAXXZPEAV1@@std@@@std@@PEAV?$tuple@P8GenericLaserCallable@@EAAXXZPEAV1@@2@$00@std@@QEAA@U_One_then_variadic_args_t@1@$$QEAU?$default_delete@V?$tuple@P8GenericLaserCallable@@EAAXXZPEAV1@@std@@@1@$$QEAPEAV?$tuple@P8GenericLaserCallable@@EAAXXZPEAV1@@1@@Z
	??$?0U?$default_delete@V?$tuple@P8MsgPackConverter@sick_scansegment_xd@@EAA_NXZPEAV12@@std@@@std@@$0A@@?$unique_ptr@V?$tuple@P8MsgPackConverter@sick_scansegment_xd@@EAA_NXZPEAV12@@std@@U?$default_delete@V?$tuple@P8MsgPackConverter@sick_scansegment_xd@@EAA_NXZPEAV12@@std@@@2@@std@@QEAA@$$QEAV01@@Z
	??$?0U?$default_delete@V?$tuple@P8MsgPackConverter@sick_scansegment_xd@@EAA_NXZPEAV12@@std@@@std@@$0A@@?$unique_ptr@V?$tuple@P8MsgPackConverter@sick_scansegment_xd@@EAA_NXZPEAV12@@std@@U?$default_delete@V?$tuple@P8MsgPackConverter@sick_scansegment_xd@@EAA_NXZPEAV12@@std@@@2@@std@@QEAA@PEAV?$tuple@P8MsgPackConverter@sick_scansegment_xd@@EAA_NXZPEAV12@@1@@Z
	??$?0U?$default_delete@V?$tuple@P8MsgPackConverter@sick_scansegment_xd@@EAA_NXZPEAV12@@std@@@std@@PEAV?$tuple@P8MsgPackConverter@sick_scansegment_xd@@EAA_NXZPEAV12@@1@@?$_Compressed_pair@U?$default_delete@V?$tuple@P8MsgPackConverter@sick_scansegment_xd@@EAA_NXZPEAV12@@std@@@std@@PEAV?$tuple@P8MsgPackConverter@sick_scansegment_xd@@EAA_NXZPEAV12@@2@$00@std@@QEAA@U_One_then_variadic_args_t@1@$$QEAU?$default_delete@V?$tuple@P8MsgPackConverter@sick_scansegment_xd@@EAA_NXZPEAV12@@std@@@1@$$QEAPEAV?$tuple@P8MsgPackConverter@sick_scansegment_xd@@EAA_NXZPEAV12@@1@@Z
	??$?0U?$default_delete@V?$tuple@P8MsgPackExporter@sick_scansegment_xd@@EAA_NXZPEAV12@@std@@@std@@$0A@@?$unique_ptr@V?$tuple@P8MsgPackExporter@sick_scansegment_xd@@EAA_NXZPEAV12@@std@@U?$default_delete@V?$tuple@P8MsgPackExporter@sick_scansegment_xd@@EAA_NXZPEAV12@@std@@@2@@std@@QEAA@$$QEAV01@@Z
	??$?0U?$default_delete@V?$tuple@P8MsgPackExporter@sick_scansegment_xd@@EAA_NXZPEAV12@@std@@@std@@$0A@@?$unique_ptr@V?$tuple@P8MsgPackExporter@sick_scansegment_xd@@EAA_NXZPEAV12@@std@@U?$default_delete@V?$tuple@P8MsgPackExporter@sick_scansegment_xd@@EAA_NXZPEAV12@@std@@@2@@std@@QEAA@PEAV?$tuple@P8MsgPackExporter@sick_scansegment_xd@@EAA_NXZPEAV12@@1@@Z
	??$?0U?$default_delete@V?$tuple@P8MsgPackExporter@sick_scansegment_xd@@EAA_NXZPEAV12@@std@@@std@@PEAV?$tuple@P8MsgPackExporter@sick_scansegment_xd@@EAA_NXZPEAV12@@1@@?$_Compressed_pair@U?$default_delete@V?$tuple@P8MsgPackExporter@sick_scansegment_xd@@EAA_NXZPEAV12@@std@@@std@@PEAV?$tuple@P8MsgPackExporter@sick_scansegment_xd@@EAA_NXZPEAV12@@2@$00@std@@QEAA@U_One_then_variadic_args_t@1@$$QEAU?$default_delete@V?$tuple@P8MsgPackExporter@sick_scansegment_xd@@EAA_NXZPEAV12@@std@@@1@$$QEAPEAV?$tuple@P8MsgPackExporter@sick_scansegment_xd@@EAA_NXZPEAV12@@1@@Z
	??$?0U?$default_delete@V?$tuple@P8MsgPackThreads@sick_scansegment_xd@@EAA_NXZPEAV12@@std@@@std@@$0A@@?$unique_ptr@V?$tuple@P8MsgPackThreads@sick_scansegment_xd@@EAA_NXZPEAV12@@std@@U?$default_delete@V?$tuple@P8MsgPackThreads@sick_scansegment_xd@@EAA_NXZPEAV12@@std@@@2@@std@@QEAA@$$QEAV01@@Z
	??$?0U?$default_delete@V?$tuple@P8MsgPackThreads@sick_scansegment_xd@@EAA_NXZPEAV12@@std@@@std@@$0A@@?$unique_ptr@V?$tuple@P8MsgPackThreads@sick_scansegment_xd@@EAA_NXZPEAV12@@std@@U?$default_delete@V?$tuple@P8MsgPackThreads@sick_scansegment_xd@@EAA_NXZPEAV12@@std@@@2@@std@@QEAA@PEAV?$tuple@P8MsgPackThreads@sick_scansegment_xd@@EAA_NXZPEAV12@@1@@Z
	??$?0U?$default_delete@V?$tuple@P8MsgPackThreads@sick_scansegment_xd@@EAA_NXZPEAV12@@std@@@std@@PEAV?$tuple@P8MsgPackThreads@sick_scansegment_xd@@EAA_NXZPEAV12@@1@@?$_Compressed_pair@U?$default_delete@V?$tuple@P8MsgPackThreads@sick_scansegment_xd@@EAA_NXZPEAV12@@std@@@std@@PEAV?$tuple@P8MsgPackThreads@sick_scansegment_xd@@EAA_NXZPEAV12@@2@$00@std@@QEAA@U_One_then_variadic_args_t@1@$$QEAU?$default_delete@V?$tuple@P8MsgPackThreads@sick_scansegment_xd@@EAA_NXZPEAV12@@std@@@1@$$QEAPEAV?$tuple@P8MsgPackThreads@sick_scansegment_xd@@EAA_NXZPEAV12@@1@@Z
	??$?0U?$default_delete@V?$tuple@P8UdpReceiver@sick_scansegment_xd@@EAA_NXZPEAV12@@std@@@std@@$0A@@?$unique_ptr@V?$tuple@P8UdpReceiver@sick_scansegment_xd@@EAA_NXZPEAV12@@std@@U?$default_delete@V?$tuple@P8UdpReceiver@sick_scansegment_xd@@EAA_NXZPEAV12@@std@@@2@@std@@QEAA@$$QEAV01@@Z
	??$?0U?$default_delete@V?$tuple@P8UdpReceiver@sick_scansegment_xd@@EAA_NXZPEAV12@@std@@@std@@$0A@@?$unique_ptr@V?$tuple@P8UdpReceiver@sick_scansegment_xd@@EAA_NXZPEAV12@@std@@U?$default_delete@V?$tuple@P8UdpReceiver@sick_scansegment_xd@@EAA_NXZPEAV12@@std@@@2@@std@@QEAA@PEAV?$tuple@P8UdpReceiver@sick_scansegment_xd@@EAA_NXZPEAV12@@1@@Z
	??$?0U?$default_delete@V?$tuple@P8UdpReceiver@sick_scansegment_xd@@EAA_NXZPEAV12@@std@@@std@@PEAV?$tuple@P8UdpReceiver@sick_scansegment_xd@@EAA_NXZPEAV12@@1@@?$_Compressed_pair@U?$default_delete@V?$tuple@P8UdpReceiver@sick_scansegment_xd@@EAA_NXZPEAV12@@std@@@std@@PEAV?$tuple@P8UdpReceiver@sick_scansegment_xd@@EAA_NXZPEAV12@@2@$00@std@@QEAA@U_One_then_variadic_args_t@1@$$QEAU?$default_delete@V?$tuple@P8UdpReceiver@sick_scansegment_xd@@EAA_NXZPEAV12@@std@@@1@$$QEAPEAV?$tuple@P8UdpReceiver@sick_scansegment_xd@@EAA_NXZPEAV12@@1@@Z
	??$?0U?$default_delete@V_Facet_base@std@@@std@@$0A@@?$unique_ptr@V_Facet_base@std@@U?$default_delete@V_Facet_base@std@@@2@@std@@QEAA@PEAV_Facet_base@1@@Z
	??$?0U?$less@C@std@@U_One_then_variadic_args_t@1@V?$allocator@U?$_Tree_node@U?$pair@$$CBC_N@std@@PEAX@std@@@1@@?$_Compressed_pair@U?$less@C@std@@V?$_Compressed_pair@V?$allocator@U?$_Tree_node@U?$pair@$$CBC_N@std@@PEAX@std@@@std@@V?$_Tree_val@U?$_Tree_simple_types@U?$pair@$$CBC_N@std@@@std@@@2@$00@2@$00@std@@QEAA@U_One_then_variadic_args_t@1@$$QEAU?$less@C@1@$$QEAU21@$$QEAV?$allocator@U?$_Tree_node@U?$pair@$$CBC_N@std@@PEAX@std@@@1@@Z
	??$?0U?$less@H@std@@U_One_then_variadic_args_t@1@V?$allocator@U?$_Tree_node@U?$pair@$$CBHH@std@@PEAX@std@@@1@@?$_Compressed_pair@U?$less@H@std@@V?$_Compressed_pair@V?$allocator@U?$_Tree_node@U?$pair@$$CBHH@std@@PEAX@std@@@std@@V?$_Tree_val@U?$_Tree_simple_types@U?$pair@$$CBHH@std@@@std@@@2@$00@2@$00@std@@QEAA@U_One_then_variadic_args_t@1@$$QEAU?$less@H@1@$$QEAU21@$$QEAV?$allocator@U?$_Tree_node@U?$pair@$$CBHH@std@@PEAX@std@@@1@@Z
	??$?0U?$less@H@std@@U_One_then_variadic_args_t@1@V?$allocator@U?$_Tree_node@U?$pair@$$CBHV?$map@HHU?$less@H@std@@V?$allocator@U?$pair@$$CBHH@std@@@2@@std@@@std@@PEAX@std@@@1@@?$_Compressed_pair@U?$less@H@std@@V?$_Compressed_pair@V?$allocator@U?$_Tree_node@U?$pair@$$CBHV?$map@HHU?$less@H@std@@V?$allocator@U?$pair@$$CBHH@std@@@2@@std@@@std@@PEAX@std@@@std@@V?$_Tree_val@U?$_Tree_simple_types@U?$pair@$$CBHV?$map@HHU?$less@H@std@@V?$allocator@U?$pair@$$CBHH@std@@@2@@std@@@std@@@std@@@2@$00@2@$00@std@@QEAA@U_One_then_variadic_args_t@1@$$QEAU?$less@H@1@$$QEAU21@$$QEAV?$allocator@U?$_Tree_node@U?$pair@$$CBHV?$map@HHU?$less@H@std@@V?$allocator@U?$pair@$$CBHH@std@@@2@@std@@@std@@PEAX@std@@@1@@Z
	??$?0U?$less@H@std@@U_One_then_variadic_args_t@1@V?$allocator@U?$_Tree_node@U?$pair@$$CBHV?$map@HV?$map@HHU?$less@H@std@@V?$allocator@U?$pair@$$CBHH@std@@@2@@std@@U?$less@H@2@V?$allocator@U?$pair@$$CBHV?$map@HHU?$less@H@std@@V?$allocator@U?$pair@$$CBHH@std@@@2@@std@@@std@@@2@@std@@@std@@PEAX@std@@@1@@?$_Compressed_pair@U?$less@H@std@@V?$_Compressed_pair@V?$allocator@U?$_Tree_node@U?$pair@$$CBHV?$map@HV?$map@HHU?$less@H@std@@V?$allocator@U?$pair@$$CBHH@std@@@2@@std@@U?$less@H@2@V?$allocator@U?$pair@$$CBHV?$map@HHU?$less@H@std@@V?$allocator@U?$pair@$$CBHH@std@@@2@@std@@@std@@@2@@std@@@std@@PEAX@std@@@std@@V?$_Tree_val@U?$_Tree_simple_types@U?$pair@$$CBHV?$map@HV?$map@HHU?$less@H@std@@V?$allocator@U?$pair@$$CBHH@std@@@2@@std@@U?$less@H@2@V?$allocator@U?$pair@$$CBHV?$map@HHU?$less@H@std@@V?$allocator@U?$pair@$$CBHH@std@@@2@@std@@@std@@@2@@std@@@std@@@std@@@2@$00@2@$00@std@@QEAA@U_One_then_variadic_args_t@1@$$QEAU?$less@H@1@$$QEAU21@$$QEAV?$allocator@U?$_Tree_node@U?$pair@$$CBHV?$map@HV?$map@HHU?$less@H@std@@V?$allocator@U?$pair@$$CBHH@std@@@2@@std@@U?$less@H@2@V?$allocator@U?$pair@$$CBHV?$map@HHU?$less@H@std@@V?$allocator@U?$pair@$$CBHH@std@@@2@@std@@@std@@@2@@std@@@std@@PEAX@std@@@1@@Z
	??$?0U?$less@V?$basic_string@DU?$char_traits@D@std@@V?$allocator@D@2@@std@@@std@@U_One_then_variadic_args_t@1@V?$allocator@U?$_Tree_node@U?$pair@$$CBV?$basic_string@DU?$char_traits@D@std@@V?$allocator@D@2@@std@@_N@std@@PEAX@std@@@1@@?$_Compressed_pair@U?$less@V?$basic_string@DU?$char_traits@D@std@@V?$allocator@D@2@@std@@@std@@V?$_Compressed_pair@V?$allocator@U?$_Tree_node@U?$pair@$$CBV?$basic_string@DU?$char_traits@D@std@@V?$allocator@D@2@@std@@_N@std@@PEAX@std@@@std@@V?$_Tree_val@U?$_Tree_simple_types@U?$pair@$$CBV?$basic_string@DU?$char_traits@D@std@@V?$allocator@D@2@@std@@_N@std@@@std@@@2@$00@2@$00@std@@QEAA@U_One_then_variadic_args_t@1@$$QEAU?$less@V?$basic_string@DU?$char_traits@D@std@@V?$allocator@D@2@@std@@@1@$$QEAU21@$$QEAV?$allocator@U?$_Tree_node@U?$pair@$$CBV?$basic_string@DU?$char_traits@D@std@@V?$allocator@D@2@@std@@_N@std@@PEAX@std@@@1@@Z
	??$?0U?$less@VMsgPack@msgpack11@@@std@@U_One_then_variadic_args_t@1@V?$allocator@U?$_Tree_node@U?$pair@$$CBVMsgPack@msgpack11@@V12@@std@@PEAX@std@@@1@@?$_Compressed_pair@U?$less@VMsgPack@msgpack11@@@std@@V?$_Compressed_pair@V?$allocator@U?$_Tree_node@U?$pair@$$CBVMsgPack@msgpack11@@V12@@std@@PEAX@std@@@std@@V?$_Tree_val@U?$_Tree_simple_types@U?$pair@$$CBVMsgPack@msgpack11@@V12@@std@@@std@@@2@$00@2@$00@std@@QEAA@U_One_then_variadic_args_t@1@$$QEAU?$less@VMsgPack@msgpack11@@@1@$$QEAU21@$$QEAV?$allocator@U?$_Tree_node@U?$pair@$$CBVMsgPack@msgpack11@@V12@@std@@PEAX@std@@@1@@Z
	??$?0U?$pair@VMsgPack@msgpack11@@V12@@std@@@?$_Tree_temp_node@V?$allocator@U?$_Tree_node@U?$pair@$$CBVMsgPack@msgpack11@@V12@@std@@PEAX@std@@@std@@@std@@QEAA@AEAV?$allocator@U?$_Tree_node@U?$pair@$$CBVMsgPack@msgpack11@@V12@@std@@PEAX@std@@@1@PEAU?$_Tree_node@U?$pair@$$CBVMsgPack@msgpack11@@V12@@std@@PEAX@1@$$QEAU?$pair@VMsgPack@msgpack11@@V12@@1@@Z
	??$?0USickScanPointFieldMsgType@@@?$allocator@U_Container_proxy@std@@@std@@QEAA@AEBV?$allocator@USickScanPointFieldMsgType@@@1@@Z
	??$?0U_Exact_args_t@std@@$$CBV?$vector@EV?$allocator@E@std@@@1@$$V$0A@@?$tuple@V?$vector@EV?$allocator@E@std@@@std@@@std@@QEAA@U_Exact_args_t@1@$$QEBV?$vector@EV?$allocator@E@std@@@1@@Z
	??$?0U_Exact_args_t@std@@$0A@@?$tuple@$$V@std@@QEAA@U_Exact_args_t@1@@Z
	??$?0U_Exact_args_t@std@@AEAE$$CBV?$vector@EV?$allocator@E@std@@@1@$0A@@?$tuple@EV?$vector@EV?$allocator@E@std@@@std@@@std@@QEAA@U_Exact_args_t@1@AEAE$$QEBV?$vector@EV?$allocator@E@std@@@1@@Z
	??$?0U_Exact_args_t@std@@AEAPEAVSickScanServices@sick_scan_xd@@AEBU?$_Ph@$00@1@AEBU?$_Ph@$01@1@$0A@@?$tuple@PEAVSickScanServices@sick_scan_xd@@U?$_Ph@$00@std@@U?$_Ph@$01@4@@std@@QEAA@U_Exact_args_t@1@AEAPEAVSickScanServices@sick_scan_xd@@AEBU?$_Ph@$00@1@AEBU?$_Ph@$01@1@@Z
	??$?0U_Exact_args_t@std@@AEAU?$ColaMsgSrvRequest_@V?$allocator@X@std@@@sick_scan_xd@@AEAU?$ColaMsgSrvResponse_@V?$allocator@X@std@@@3@$0A@@?$tuple@AEAU?$ColaMsgSrvRequest_@V?$allocator@X@std@@@sick_scan_xd@@AEAU?$ColaMsgSrvResponse_@V?$allocator@X@std@@@2@@std@@QEAA@U_Exact_args_t@1@AEAU?$ColaMsgSrvRequest_@V?$allocator@X@std@@@sick_scan_xd@@AEAU?$ColaMsgSrvResponse_@V?$allocator@X@std@@@4@@Z
	??$?0U_Exact_args_t@std@@AEAU?$ColaMsgSrvResponse_@V?$allocator@X@std@@@sick_scan_xd@@$$V$0A@@?$tuple@AEAU?$ColaMsgSrvResponse_@V?$allocator@X@std@@@sick_scan_xd@@@std@@QEAA@U_Exact_args_t@1@AEAU?$ColaMsgSrvResponse_@V?$allocator@X@std@@@sick_scan_xd@@@Z
	??$?0U_Exact_args_t@std@@AEAU?$ECRChangeArrSrvRequest_@V?$allocator@X@std@@@sick_scan_xd@@AEAU?$ECRChangeArrSrvResponse_@V?$allocator@X@std@@@3@$0A@@?$tuple@AEAU?$ECRChangeArrSrvRequest_@V?$allocator@X@std@@@sick_scan_xd@@AEAU?$ECRChangeArrSrvResponse_@V?$allocator@X@std@@@2@@std@@QEAA@U_Exact_args_t@1@AEAU?$ECRChangeArrSrvRequest_@V?$allocator@X@std@@@sick_scan_xd@@AEAU?$ECRChangeArrSrvResponse_@V?$allocator@X@std@@@4@@Z
	??$?0U_Exact_args_t@std@@AEAU?$ECRChangeArrSrvResponse_@V?$allocator@X@std@@@sick_scan_xd@@$$V$0A@@?$tuple@AEAU?$ECRChangeArrSrvResponse_@V?$allocator@X@std@@@sick_scan_xd@@@std@@QEAA@U_Exact_args_t@1@AEAU?$ECRChangeArrSrvResponse_@V?$allocator@X@std@@@sick_scan_xd@@@Z
	??$?0U_Exact_args_t@std@@AEAU?$GetContaminationResultSrvRequest_@V?$allocator@X@std@@@sick_scan_xd@@AEAU?$GetContaminationResultSrvResponse_@V?$allocator@X@std@@@3@$0A@@?$tuple@AEAU?$GetContaminationResultSrvRequest_@V?$allocator@X@std@@@sick_scan_xd@@AEAU?$GetContaminationResultSrvResponse_@V?$allocator@X@std@@@2@@std@@QEAA@U_Exact_args_t@1@AEAU?$GetContaminationResultSrvRequest_@V?$allocator@X@std@@@sick_scan_xd@@AEAU?$GetContaminationResultSrvResponse_@V?$allocator@X@std@@@4@@Z
	??$?0U_Exact_args_t@std@@AEAU?$GetContaminationResultSrvResponse_@V?$allocator@X@std@@@sick_scan_xd@@$$V$0A@@?$tuple@AEAU?$GetContaminationResultSrvResponse_@V?$allocator@X@std@@@sick_scan_xd@@@std@@QEAA@U_Exact_args_t@1@AEAU?$GetContaminationResultSrvResponse_@V?$allocator@X@std@@@sick_scan_xd@@@Z
	??$?0U_Exact_args_t@std@@AEAU?$LIDoutputstateSrvRequest_@V?$allocator@X@std@@@sick_scan_xd@@AEAU?$LIDoutputstateSrvResponse_@V?$allocator@X@std@@@3@$0A@@?$tuple@AEAU?$LIDoutputstateSrvRequest_@V?$allocator@X@std@@@sick_scan_xd@@AEAU?$LIDoutputstateSrvResponse_@V?$allocator@X@std@@@2@@std@@QEAA@U_Exact_args_t@1@AEAU?$LIDoutputstateSrvRequest_@V?$allocator@X@std@@@sick_scan_xd@@AEAU?$LIDoutputstateSrvResponse_@V?$allocator@X@std@@@4@@Z
	??$?0U_Exact_args_t@std@@AEAU?$LIDoutputstateSrvResponse_@V?$allocator@X@std@@@sick_scan_xd@@$$V$0A@@?$tuple@AEAU?$LIDoutputstateSrvResponse_@V?$allocator@X@std@@@sick_scan_xd@@@std@@QEAA@U_Exact_args_t@1@AEAU?$LIDoutputstateSrvResponse_@V?$allocator@X@std@@@sick_scan_xd@@@Z
	??$?0U_Exact_args_t@std@@AEAU?$SCdevicestateSrvRequest_@V?$allocator@X@std@@@sick_scan_xd@@AEAU?$SCdevicestateSrvResponse_@V?$allocator@X@std@@@3@$0A@@?$tuple@AEAU?$SCdevicestateSrvRequest_@V?$allocator@X@std@@@sick_scan_xd@@AEAU?$SCdevicestateSrvResponse_@V?$allocator@X@std@@@2@@std@@QEAA@U_Exact_args_t@1@AEAU?$SCdevicestateSrvRequest_@V?$allocator@X@std@@@sick_scan_xd@@AEAU?$SCdevicestateSrvResponse_@V?$allocator@X@std@@@4@@Z
	??$?0U_Exact_args_t@std@@AEAU?$SCdevicestateSrvResponse_@V?$allocator@X@std@@@sick_scan_xd@@$$V$0A@@?$tuple@AEAU?$SCdevicestateSrvResponse_@V?$allocator@X@std@@@sick_scan_xd@@@std@@QEAA@U_Exact_args_t@1@AEAU?$SCdevicestateSrvResponse_@V?$allocator@X@std@@@sick_scan_xd@@@Z
	??$?0U_Exact_args_t@std@@AEAU?$SCrebootSrvRequest_@V?$allocator@X@std@@@sick_scan_xd@@AEAU?$SCrebootSrvResponse_@V?$allocator@X@std@@@3@$0A@@?$tuple@AEAU?$SCrebootSrvRequest_@V?$allocator@X@std@@@sick_scan_xd@@AEAU?$SCrebootSrvResponse_@V?$allocator@X@std@@@2@@std@@QEAA@U_Exact_args_t@1@AEAU?$SCrebootSrvRequest_@V?$allocator@X@std@@@sick_scan_xd@@AEAU?$SCrebootSrvResponse_@V?$allocator@X@std@@@4@@Z
	??$?0U_Exact_args_t@std@@AEAU?$SCrebootSrvResponse_@V?$allocator@X@std@@@sick_scan_xd@@$$V$0A@@?$tuple@AEAU?$SCrebootSrvResponse_@V?$allocator@X@std@@@sick_scan_xd@@@std@@QEAA@U_Exact_args_t@1@AEAU?$SCrebootSrvResponse_@V?$allocator@X@std@@@sick_scan_xd@@@Z
	??$?0U_Exact_args_t@std@@AEAU?$SCsoftresetSrvRequest_@V?$allocator@X@std@@@sick_scan_xd@@AEAU?$SCsoftresetSrvResponse_@V?$allocator@X@std@@@3@$0A@@?$tuple@AEAU?$SCsoftresetSrvRequest_@V?$allocator@X@std@@@sick_scan_xd@@AEAU?$SCsoftresetSrvResponse_@V?$allocator@X@std@@@2@@std@@QEAA@U_Exact_args_t@1@AEAU?$SCsoftresetSrvRequest_@V?$allocator@X@std@@@sick_scan_xd@@AEAU?$SCsoftresetSrvResponse_@V?$allocator@X@std@@@4@@Z
	??$?0U_Exact_args_t@std@@AEAU?$SCsoftresetSrvResponse_@V?$allocator@X@std@@@sick_scan_xd@@$$V$0A@@?$tuple@AEAU?$SCsoftresetSrvResponse_@V?$allocator@X@std@@@sick_scan_xd@@@std@@QEAA@U_Exact_args_t@1@AEAU?$SCsoftresetSrvResponse_@V?$allocator@X@std@@@sick_scan_xd@@@Z
	??$?0U_Exact_args_t@std@@AEAU?$SickScanExitSrvRequest_@V?$allocator@X@std@@@sick_scan_xd@@AEAU?$SickScanExitSrvResponse_@V?$allocator@X@std@@@3@$0A@@?$tuple@AEAU?$SickScanExitSrvRequest_@V?$allocator@X@std@@@sick_scan_xd@@AEAU?$SickScanExitSrvResponse_@V?$allocator@X@std@@@2@@std@@QEAA@U_Exact_args_t@1@AEAU?$SickScanExitSrvRequest_@V?$allocator@X@std@@@sick_scan_xd@@AEAU?$SickScanExitSrvResponse_@V?$allocator@X@std@@@4@@Z
	??$?0U_Exact_args_t@std@@AEAU?$SickScanExitSrvResponse_@V?$allocator@X@std@@@sick_scan_xd@@$$V$0A@@?$tuple@AEAU?$SickScanExitSrvResponse_@V?$allocator@X@std@@@sick_scan_xd@@@std@@QEAA@U_Exact_args_t@1@AEAU?$SickScanExitSrvResponse_@V?$allocator@X@std@@@sick_scan_xd@@@Z
	??$?0U_Exact_args_t@std@@AEA_K$$V$0A@@?$tuple@_K@std@@QEAA@U_Exact_args_t@1@AEA_K@Z
	??$?0U_Exact_args_t@std@@AEBE$$V$0A@@?$tuple@AEBE@std@@QEAA@U_Exact_args_t@1@AEBE@Z
	??$?0U_Exact_args_t@std@@AEBH$$V$0A@@?$tuple@AEBH@std@@QEAA@U_Exact_args_t@1@AEBH@Z
	??$?0U_Exact_args_t@std@@AEBQEAVNodeHandle@roswrap@@$$V$0A@@?$tuple@AEBQEAVNodeHandle@roswrap@@@std@@QEAA@U_Exact_args_t@1@AEBQEAVNodeHandle@roswrap@@@Z
	??$?0U_Exact_args_t@std@@AEBQEAX$$V$0A@@?$tuple@AEBQEAX@std@@QEAA@U_Exact_args_t@1@AEBQEAX@Z
	??$?0U_Exact_args_t@std@@AEBU?$_Ph@$00@1@AEBU?$_Ph@$01@1@$0A@@?$tuple@U?$_Ph@$00@std@@U?$_Ph@$01@2@@std@@QEAA@U_Exact_args_t@1@AEBU?$_Ph@$00@1@AEBU?$_Ph@$01@1@@Z
	??$?0U_Exact_args_t@std@@AEBU?$_Ph@$01@1@$$V$0A@@?$tuple@U?$_Ph@$01@std@@@std@@QEAA@U_Exact_args_t@1@AEBU?$_Ph@$01@1@@Z
	??$?0U_Exact_args_t@std@@AEBV?$basic_string@DU?$char_traits@D@std@@V?$allocator@D@2@@1@$$V$0A@@?$tuple@AEBV?$basic_string@DU?$char_traits@D@std@@V?$allocator@D@2@@std@@@std@@QEAA@U_Exact_args_t@1@AEBV?$basic_string@DU?$char_traits@D@std@@V?$allocator@D@2@@1@@Z
	??$?0U_Exact_args_t@std@@AEBV?$time_point@Usystem_clock@chrono@std@@V?$duration@_JU?$ratio@$00$0JIJGIA@@std@@@23@@chrono@1@AEA_K$0A@@?$tuple@V?$time_point@Usystem_clock@chrono@std@@V?$duration@_JU?$ratio@$00$0JIJGIA@@std@@@23@@chrono@std@@_K@std@@QEAA@U_Exact_args_t@1@AEBV?$time_point@Usystem_clock@chrono@std@@V?$duration@_JU?$ratio@$00$0JIJGIA@@std@@@23@@chrono@1@AEA_K@Z
	??$?0U_Exact_args_t@std@@AEBV?$vector@EV?$allocator@E@std@@@1@AEBV?$time_point@Usystem_clock@chrono@std@@V?$duration@_JU?$ratio@$00$0JIJGIA@@std@@@23@@chrono@1@AEA_K$0A@@?$tuple@V?$vector@EV?$allocator@E@std@@@std@@V?$time_point@Usystem_clock@chrono@std@@V?$duration@_JU?$ratio@$00$0JIJGIA@@std@@@23@@chrono@2@_K@std@@QEAA@U_Exact_args_t@1@AEBV?$vector@EV?$allocator@E@std@@@1@AEBV?$time_point@Usystem_clock@chrono@std@@V?$duration@_JU?$ratio@$00$0JIJGIA@@std@@@23@@chrono@1@AEA_K@Z
	??$?0U_Exact_args_t@std@@AEBVScanSegmentParserOutput@sick_scansegment_xd@@AEBV?$time_point@Usystem_clock@chrono@std@@V?$duration@_JU?$ratio@$00$0JIJGIA@@std@@@23@@chrono@1@AEA_K$0A@@?$tuple@VScanSegmentParserOutput@sick_scansegment_xd@@V?$time_point@Usystem_clock@chrono@std@@V?$duration@_JU?$ratio@$00$0JIJGIA@@std@@@23@@chrono@std@@_K@std@@QEAA@U_Exact_args_t@1@AEBVScanSegmentParserOutput@sick_scansegment_xd@@AEBV?$time_point@Usystem_clock@chrono@std@@V?$duration@_JU?$ratio@$00$0JIJGIA@@std@@@23@@chrono@1@AEA_K@Z
	??$?0U_Exact_args_t@std@@C$$V$0A@@?$tuple@$$QEAC@std@@QEAA@U_Exact_args_t@1@$$QEAC@Z
	??$?0U_Exact_args_t@std@@EV?$vector@EV?$allocator@E@std@@@1@$0A@@?$tuple@CV?$vector@EV?$allocator@E@std@@@std@@@std@@QEAA@U_Exact_args_t@1@$$QEAE$$QEAV?$vector@EV?$allocator@E@std@@@1@@Z
	??$?0U_Exact_args_t@std@@H$$V$0A@@?$tuple@$$QEAH@std@@QEAA@U_Exact_args_t@1@$$QEAH@Z
	??$?0U_Exact_args_t@std@@IP6A?AVMsgPack@msgpack11@@AEAV?$basic_istream@DU?$char_traits@D@std@@@1@EH@Z$0A@@?$tuple@EP6A?AVMsgPack@msgpack11@@AEAV?$basic_istream@DU?$char_traits@D@std@@@std@@EH@Z@std@@QEAA@U_Exact_args_t@1@$$QEAI$$QEAP6A?AVMsgPack@msgpack11@@AEAV?$basic_istream@DU?$char_traits@D@std@@@1@EH@Z@Z
	??$?0U_Exact_args_t@std@@P6A?AVMsgPack@msgpack11@@AEAV?$basic_istream@DU?$char_traits@D@std@@@1@EH@Z$$V$0A@@?$tuple@P6A?AVMsgPack@msgpack11@@AEAV?$basic_istream@DU?$char_traits@D@std@@@std@@EH@Z@std@@QEAA@U_Exact_args_t@1@$$QEAP6A?AVMsgPack@msgpack11@@AEAV?$basic_istream@DU?$char_traits@D@std@@@1@EH@Z@Z
	??$?0U_Exact_args_t@std@@P6APEAXPEAX@ZPEAVThreadWrapperBase@@$0A@@?$tuple@P6APEAXPEAX@ZPEAVThreadWrapperBase@@@std@@QEAA@U_Exact_args_t@1@$$QEAP6APEAXPEAX@Z$$QEAPEAVThreadWrapperBase@@@Z
	??$?0U_Exact_args_t@std@@P8GenericLaserCallable@@EAAXXZPEAV2@$0A@@?$tuple@P8GenericLaserCallable@@EAAXXZPEAV1@@std@@QEAA@U_Exact_args_t@1@$$QEAP8GenericLaserCallable@@EAAXXZ$$QEAPEAV3@@Z
	??$?0U_Exact_args_t@std@@P8MsgPackConverter@sick_scansegment_xd@@EAA_NXZPEAV23@$0A@@?$tuple@P8MsgPackConverter@sick_scansegment_xd@@EAA_NXZPEAV12@@std@@QEAA@U_Exact_args_t@1@$$QEAP8MsgPackConverter@sick_scansegment_xd@@EAA_NXZ$$QEAPEAV34@@Z
	??$?0U_Exact_args_t@std@@P8MsgPackExporter@sick_scansegment_xd@@EAA_NXZPEAV23@$0A@@?$tuple@P8MsgPackExporter@sick_scansegment_xd@@EAA_NXZPEAV12@@std@@QEAA@U_Exact_args_t@1@$$QEAP8MsgPackExporter@sick_scansegment_xd@@EAA_NXZ$$QEAPEAV34@@Z
	??$?0U_Exact_args_t@std@@P8MsgPackThreads@sick_scansegment_xd@@EAA_NXZPEAV23@$0A@@?$tuple@P8MsgPackThreads@sick_scansegment_xd@@EAA_NXZPEAV12@@std@@QEAA@U_Exact_args_t@1@$$QEAP8MsgPackThreads@sick_scansegment_xd@@EAA_NXZ$$QEAPEAV34@@Z
	??$?0U_Exact_args_t@std@@P8UdpReceiver@sick_scansegment_xd@@EAA_NXZPEAV23@$0A@@?$tuple@P8UdpReceiver@sick_scansegment_xd@@EAA_NXZPEAV12@@std@@QEAA@U_Exact_args_t@1@$$QEAP8UdpReceiver@sick_scansegment_xd@@EAA_NXZ$$QEAPEAV34@@Z
	??$?0U_Exact_args_t@std@@PEAVGenericLaserCallable@@$$V$0A@@?$tuple@PEAVGenericLaserCallable@@@std@@QEAA@U_Exact_args_t@1@$$QEAPEAVGenericLaserCallable@@@Z
	??$?0U_Exact_args_t@std@@PEAVMsgPackConverter@sick_scansegment_xd@@$$V$0A@@?$tuple@PEAVMsgPackConverter@sick_scansegment_xd@@@std@@QEAA@U_Exact_args_t@1@$$QEAPEAVMsgPackConverter@sick_scansegment_xd@@@Z
	??$?0U_Exact_args_t@std@@PEAVMsgPackExporter@sick_scansegment_xd@@$$V$0A@@?$tuple@PEAVMsgPackExporter@sick_scansegment_xd@@@std@@QEAA@U_Exact_args_t@1@$$QEAPEAVMsgPackExporter@sick_scansegment_xd@@@Z
	??$?0U_Exact_args_t@std@@PEAVMsgPackThreads@sick_scansegment_xd@@$$V$0A@@?$tuple@PEAVMsgPackThreads@sick_scansegment_xd@@@std@@QEAA@U_Exact_args_t@1@$$QEAPEAVMsgPackThreads@sick_scansegment_xd@@@Z
	??$?0U_Exact_args_t@std@@PEAVThreadWrapperBase@@$$V$0A@@?$tuple@PEAVThreadWrapperBase@@@std@@QEAA@U_Exact_args_t@1@$$QEAPEAVThreadWrapperBase@@@Z
	??$?0U_Exact_args_t@std@@PEAVUdpReceiver@sick_scansegment_xd@@$$V$0A@@?$tuple@PEAVUdpReceiver@sick_scansegment_xd@@@std@@QEAA@U_Exact_args_t@1@$$QEAPEAVUdpReceiver@sick_scansegment_xd@@@Z
	??$?0U_Exact_args_t@std@@V?$basic_string@DU?$char_traits@D@std@@V?$allocator@D@2@@1@$$V$0A@@?$tuple@$$QEAV?$basic_string@DU?$char_traits@D@std@@V?$allocator@D@2@@std@@@std@@QEAA@U_Exact_args_t@1@$$QEAV?$basic_string@DU?$char_traits@D@std@@V?$allocator@D@2@@1@@Z
	??$?0U_Exact_args_t@std@@V?$reference_wrapper@$$CBU?$Imu_@V?$allocator@X@std@@@sensor_msgs@@@1@$$V$0A@@?$tuple@V?$reference_wrapper@$$CBU?$Imu_@V?$allocator@X@std@@@sensor_msgs@@@std@@@std@@QEAA@U_Exact_args_t@1@$$QEAV?$reference_wrapper@$$CBU?$Imu_@V?$allocator@X@std@@@sensor_msgs@@@1@@Z
	??$?0U_Exact_args_t@std@@V?$reference_wrapper@$$CBU?$LFErecMsg_@V?$allocator@X@std@@@sick_scan_xd@@@1@$$V$0A@@?$tuple@V?$reference_wrapper@$$CBU?$LFErecMsg_@V?$allocator@X@std@@@sick_scan_xd@@@std@@@std@@QEAA@U_Exact_args_t@1@$$QEAV?$reference_wrapper@$$CBU?$LFErecMsg_@V?$allocator@X@std@@@sick_scan_xd@@@1@@Z
	??$?0U_Exact_args_t@std@@V?$reference_wrapper@$$CBU?$LIDinputstateMsg_@V?$allocator@X@std@@@sick_scan_xd@@@1@$$V$0A@@?$tuple@V?$reference_wrapper@$$CBU?$LIDinputstateMsg_@V?$allocator@X@std@@@sick_scan_xd@@@std@@@std@@QEAA@U_Exact_args_t@1@$$QEAV?$reference_wrapper@$$CBU?$LIDinputstateMsg_@V?$allocator@X@std@@@sick_scan_xd@@@1@@Z
	??$?0U_Exact_args_t@std@@V?$reference_wrapper@$$CBU?$LIDoutputstateMsg_@V?$allocator@X@std@@@sick_scan_xd@@@1@$$V$0A@@?$tuple@V?$reference_wrapper@$$CBU?$LIDoutputstateMsg_@V?$allocator@X@std@@@sick_scan_xd@@@std@@@std@@QEAA@U_Exact_args_t@1@$$QEAV?$reference_wrapper@$$CBU?$LIDoutputstateMsg_@V?$allocator@X@std@@@sick_scan_xd@@@1@@Z
	??$?0U_Exact_args_t@std@@V?$reference_wrapper@$$CBU?$MarkerArray_@V?$allocator@X@std@@@visualization_msgs@@@1@$$V$0A@@?$tuple@V?$reference_wrapper@$$CBU?$MarkerArray_@V?$allocator@X@std@@@visualization_msgs@@@std@@@std@@QEAA@U_Exact_args_t@1@$$QEAV?$reference_wrapper@$$CBU?$MarkerArray_@V?$allocator@X@std@@@visualization_msgs@@@1@@Z
	??$?0U_Exact_args_t@std@@V?$reference_wrapper@$$CBU?$NAVLandmarkData_@V?$allocator@X@std@@@sick_scan_xd@@@1@$$V$0A@@?$tuple@V?$reference_wrapper@$$CBU?$NAVLandmarkData_@V?$allocator@X@std@@@sick_scan_xd@@@std@@@std@@QEAA@U_Exact_args_t@1@$$QEAV?$reference_wrapper@$$CBU?$NAVLandmarkData_@V?$allocator@X@std@@@sick_scan_xd@@@1@@Z
	??$?0U_Exact_args_t@std@@V?$reference_wrapper@$$CBU?$NAVPoseData_@V?$allocator@X@std@@@sick_scan_xd@@@1@$$V$0A@@?$tuple@V?$reference_wrapper@$$CBU?$NAVPoseData_@V?$allocator@X@std@@@sick_scan_xd@@@std@@@std@@QEAA@U_Exact_args_t@1@$$QEAV?$reference_wrapper@$$CBU?$NAVPoseData_@V?$allocator@X@std@@@sick_scan_xd@@@1@@Z
	??$?0U_Exact_args_t@std@@V?$reference_wrapper@$$CBU?$RadarScan_@V?$allocator@X@std@@@sick_scan_xd@@@1@$$V$0A@@?$tuple@V?$reference_wrapper@$$CBU?$RadarScan_@V?$allocator@X@std@@@sick_scan_xd@@@std@@@std@@QEAA@U_Exact_args_t@1@$$QEAV?$reference_wrapper@$$CBU?$RadarScan_@V?$allocator@X@std@@@sick_scan_xd@@@1@@Z
	??$?0U_Exact_args_t@std@@V?$reference_wrapper@$$CBU?$String_@V?$allocator@X@std@@@std_msgs@@@1@$$V$0A@@?$tuple@V?$reference_wrapper@$$CBU?$String_@V?$allocator@X@std@@@std_msgs@@@std@@@std@@QEAA@U_Exact_args_t@1@$$QEAV?$reference_wrapper@$$CBU?$String_@V?$allocator@X@std@@@std_msgs@@@1@@Z
	??$?0U_Exact_args_t@std@@V?$vector@EV?$allocator@E@std@@@1@$$V$0A@@?$tuple@V?$vector@EV?$allocator@E@std@@@std@@@std@@QEAA@U_Exact_args_t@1@$$QEAV?$vector@EV?$allocator@E@std@@@1@@Z
	??$?0U_Unpack_tuple_t@std@@V?$tuple@EV?$vector@EV?$allocator@E@std@@@std@@@1@$0A@$00$0A@@?$tuple@CV?$vector@EV?$allocator@E@std@@@std@@@std@@QEAA@U_Unpack_tuple_t@1@$$QEAV?$tuple@EV?$vector@EV?$allocator@E@std@@@std@@@1@U?$integer_sequence@_K$0A@$00@1@@Z
	??$?0U_Unpack_tuple_t@std@@V?$tuple@EV?$vector@EV?$allocator@E@std@@@std@@@1@$0A@@?$tuple@CV?$vector@EV?$allocator@E@std@@@std@@@std@@QEAA@U_Unpack_tuple_t@1@$$QEAV?$tuple@EV?$vector@EV?$allocator@E@std@@@std@@@1@@Z
	??$?0V?$ServiceCallbackHelperT@U?$ServiceSpec@U?$ColaMsgSrvRequest_@V?$allocator@X@std@@@sick_scan_xd@@U?$ColaMsgSrvResponse_@V?$allocator@X@std@@@2@@roswrap@@@roswrap@@$0A@@?$shared_ptr@VServiceCallbackHelper@roswrap@@@std@@QEAA@$$QEAV?$shared_ptr@V?$ServiceCallbackHelperT@U?$ServiceSpec@U?$ColaMsgSrvRequest_@V?$allocator@X@std@@@sick_scan_xd@@U?$ColaMsgSrvResponse_@V?$allocator@X@std@@@2@@roswrap@@@roswrap@@@1@@Z
	??$?0V?$ServiceCallbackHelperT@U?$ServiceSpec@U?$ECRChangeArrSrvRequest_@V?$allocator@X@std@@@sick_scan_xd@@U?$ECRChangeArrSrvResponse_@V?$allocator@X@std@@@2@@roswrap@@@roswrap@@$0A@@?$shared_ptr@VServiceCallbackHelper@roswrap@@@std@@QEAA@$$QEAV?$shared_ptr@V?$ServiceCallbackHelperT@U?$ServiceSpec@U?$ECRChangeArrSrvRequest_@V?$allocator@X@std@@@sick_scan_xd@@U?$ECRChangeArrSrvResponse_@V?$allocator@X@std@@@2@@roswrap@@@roswrap@@@1@@Z
	??$?0V?$ServiceCallbackHelperT@U?$ServiceSpec@U?$GetContaminationResultSrvRequest_@V?$allocator@X@std@@@sick_scan_xd@@U?$GetContaminationResultSrvResponse_@V?$allocator@X@std@@@2@@roswrap@@@roswrap@@$0A@@?$shared_ptr@VServiceCallbackHelper@roswrap@@@std@@QEAA@$$QEAV?$shared_ptr@V?$ServiceCallbackHelperT@U?$ServiceSpec@U?$GetContaminationResultSrvRequest_@V?$allocator@X@std@@@sick_scan_xd@@U?$GetContaminationResultSrvResponse_@V?$allocator@X@std@@@2@@roswrap@@@roswrap@@@1@@Z
	??$?0V?$ServiceCallbackHelperT@U?$ServiceSpec@U?$LIDoutputstateSrvRequest_@V?$allocator@X@std@@@sick_scan_xd@@U?$LIDoutputstateSrvResponse_@V?$allocator@X@std@@@2@@roswrap@@@roswrap@@$0A@@?$shared_ptr@VServiceCallbackHelper@roswrap@@@std@@QEAA@$$QEAV?$shared_ptr@V?$ServiceCallbackHelperT@U?$ServiceSpec@U?$LIDoutputstateSrvRequest_@V?$allocator@X@std@@@sick_scan_xd@@U?$LIDoutputstateSrvResponse_@V?$allocator@X@std@@@2@@roswrap@@@roswrap@@@1@@Z
	??$?0V?$ServiceCallbackHelperT@U?$ServiceSpec@U?$SCdevicestateSrvRequest_@V?$allocator@X@std@@@sick_scan_xd@@U?$SCdevicestateSrvResponse_@V?$allocator@X@std@@@2@@roswrap@@@roswrap@@$0A@@?$shared_ptr@VServiceCallbackHelper@roswrap@@@std@@QEAA@$$QEAV?$shared_ptr@V?$ServiceCallbackHelperT@U?$ServiceSpec@U?$SCdevicestateSrvRequest_@V?$allocator@X@std@@@sick_scan_xd@@U?$SCdevicestateSrvResponse_@V?$allocator@X@std@@@2@@roswrap@@@roswrap@@@1@@Z
	??$?0V?$ServiceCallbackHelperT@U?$ServiceSpec@U?$SCrebootSrvRequest_@V?$allocator@X@std@@@sick_scan_xd@@U?$SCrebootSrvResponse_@V?$allocator@X@std@@@2@@roswrap@@@roswrap@@$0A@@?$shared_ptr@VServiceCallbackHelper@roswrap@@@std@@QEAA@$$QEAV?$shared_ptr@V?$ServiceCallbackHelperT@U?$ServiceSpec@U?$SCrebootSrvRequest_@V?$allocator@X@std@@@sick_scan_xd@@U?$SCrebootSrvResponse_@V?$allocator@X@std@@@2@@roswrap@@@roswrap@@@1@@Z
	??$?0V?$ServiceCallbackHelperT@U?$ServiceSpec@U?$SCsoftresetSrvRequest_@V?$allocator@X@std@@@sick_scan_xd@@U?$SCsoftresetSrvResponse_@V?$allocator@X@std@@@2@@roswrap@@@roswrap@@$0A@@?$shared_ptr@VServiceCallbackHelper@roswrap@@@std@@QEAA@$$QEAV?$shared_ptr@V?$ServiceCallbackHelperT@U?$ServiceSpec@U?$SCsoftresetSrvRequest_@V?$allocator@X@std@@@sick_scan_xd@@U?$SCsoftresetSrvResponse_@V?$allocator@X@std@@@2@@roswrap@@@roswrap@@@1@@Z
	??$?0V?$ServiceCallbackHelperT@U?$ServiceSpec@U?$SickScanExitSrvRequest_@V?$allocator@X@std@@@sick_scan_xd@@U?$SickScanExitSrvResponse_@V?$allocator@X@std@@@2@@roswrap@@@roswrap@@$0A@@?$shared_ptr@VServiceCallbackHelper@roswrap@@@std@@QEAA@$$QEAV?$shared_ptr@V?$ServiceCallbackHelperT@U?$ServiceSpec@U?$SickScanExitSrvRequest_@V?$allocator@X@std@@@sick_scan_xd@@U?$SickScanExitSrvResponse_@V?$allocator@X@std@@@2@@roswrap@@@roswrap@@@1@@Z
	??$?0V?$_Binder@U_Unforced@std@@A6A?AVSerializedMessage@roswrap@@AEBU?$Imu_@V?$allocator@X@std@@@sensor_msgs@@@ZV?$reference_wrapper@$$CBU?$Imu_@V?$allocator@X@std@@@sensor_msgs@@@2@@std@@$0A@@?$_Func_impl_no_alloc@V?$_Binder@U_Unforced@std@@A6A?AVSerializedMessage@roswrap@@AEBU?$Imu_@V?$allocator@X@std@@@sensor_msgs@@@ZV?$reference_wrapper@$$CBU?$Imu_@V?$allocator@X@std@@@sensor_msgs@@@2@@std@@VSerializedMessage@roswrap@@$$V@std@@QEAA@$$QEAV?$_Binder@U_Unforced@std@@A6A?AVSerializedMessage@roswrap@@AEBU?$Imu_@V?$allocator@X@std@@@sensor_msgs@@@ZV?$reference_wrapper@$$CBU?$Imu_@V?$allocator@X@std@@@sensor_msgs@@@2@@1@@Z
	??$?0V?$_Binder@U_Unforced@std@@A6A?AVSerializedMessage@roswrap@@AEBU?$Imu_@V?$allocator@X@std@@@sensor_msgs@@@ZV?$reference_wrapper@$$CBU?$Imu_@V?$allocator@X@std@@@sensor_msgs@@@2@@std@@$0A@@?$function@$$A6A?AVSerializedMessage@roswrap@@XZ@std@@QEAA@$$QEAV?$_Binder@U_Unforced@std@@A6A?AVSerializedMessage@roswrap@@AEBU?$Imu_@V?$allocator@X@std@@@sensor_msgs@@@ZV?$reference_wrapper@$$CBU?$Imu_@V?$allocator@X@std@@@sensor_msgs@@@2@@1@@Z
	??$?0V?$_Binder@U_Unforced@std@@A6A?AVSerializedMessage@roswrap@@AEBU?$LFErecMsg_@V?$allocator@X@std@@@sick_scan_xd@@@ZV?$reference_wrapper@$$CBU?$LFErecMsg_@V?$allocator@X@std@@@sick_scan_xd@@@2@@std@@$0A@@?$_Func_impl_no_alloc@V?$_Binder@U_Unforced@std@@A6A?AVSerializedMessage@roswrap@@AEBU?$LFErecMsg_@V?$allocator@X@std@@@sick_scan_xd@@@ZV?$reference_wrapper@$$CBU?$LFErecMsg_@V?$allocator@X@std@@@sick_scan_xd@@@2@@std@@VSerializedMessage@roswrap@@$$V@std@@QEAA@$$QEAV?$_Binder@U_Unforced@std@@A6A?AVSerializedMessage@roswrap@@AEBU?$LFErecMsg_@V?$allocator@X@std@@@sick_scan_xd@@@ZV?$reference_wrapper@$$CBU?$LFErecMsg_@V?$allocator@X@std@@@sick_scan_xd@@@2@@1@@Z
	??$?0V?$_Binder@U_Unforced@std@@A6A?AVSerializedMessage@roswrap@@AEBU?$LFErecMsg_@V?$allocator@X@std@@@sick_scan_xd@@@ZV?$reference_wrapper@$$CBU?$LFErecMsg_@V?$allocator@X@std@@@sick_scan_xd@@@2@@std@@$0A@@?$function@$$A6A?AVSerializedMessage@roswrap@@XZ@std@@QEAA@$$QEAV?$_Binder@U_Unforced@std@@A6A?AVSerializedMessage@roswrap@@AEBU?$LFErecMsg_@V?$allocator@X@std@@@sick_scan_xd@@@ZV?$reference_wrapper@$$CBU?$LFErecMsg_@V?$allocator@X@std@@@sick_scan_xd@@@2@@1@@Z
	??$?0V?$_Binder@U_Unforced@std@@A6A?AVSerializedMessage@roswrap@@AEBU?$LIDinputstateMsg_@V?$allocator@X@std@@@sick_scan_xd@@@ZV?$reference_wrapper@$$CBU?$LIDinputstateMsg_@V?$allocator@X@std@@@sick_scan_xd@@@2@@std@@$0A@@?$_Func_impl_no_alloc@V?$_Binder@U_Unforced@std@@A6A?AVSerializedMessage@roswrap@@AEBU?$LIDinputstateMsg_@V?$allocator@X@std@@@sick_scan_xd@@@ZV?$reference_wrapper@$$CBU?$LIDinputstateMsg_@V?$allocator@X@std@@@sick_scan_xd@@@2@@std@@VSerializedMessage@roswrap@@$$V@std@@QEAA@$$QEAV?$_Binder@U_Unforced@std@@A6A?AVSerializedMessage@roswrap@@AEBU?$LIDinputstateMsg_@V?$allocator@X@std@@@sick_scan_xd@@@ZV?$reference_wrapper@$$CBU?$LIDinputstateMsg_@V?$allocator@X@std@@@sick_scan_xd@@@2@@1@@Z
	??$?0V?$_Binder@U_Unforced@std@@A6A?AVSerializedMessage@roswrap@@AEBU?$LIDinputstateMsg_@V?$allocator@X@std@@@sick_scan_xd@@@ZV?$reference_wrapper@$$CBU?$LIDinputstateMsg_@V?$allocator@X@std@@@sick_scan_xd@@@2@@std@@$0A@@?$function@$$A6A?AVSerializedMessage@roswrap@@XZ@std@@QEAA@$$QEAV?$_Binder@U_Unforced@std@@A6A?AVSerializedMessage@roswrap@@AEBU?$LIDinputstateMsg_@V?$allocator@X@std@@@sick_scan_xd@@@ZV?$reference_wrapper@$$CBU?$LIDinputstateMsg_@V?$allocator@X@std@@@sick_scan_xd@@@2@@1@@Z
	??$?0V?$_Binder@U_Unforced@std@@A6A?AVSerializedMessage@roswrap@@AEBU?$LIDoutputstateMsg_@V?$allocator@X@std@@@sick_scan_xd@@@ZV?$reference_wrapper@$$CBU?$LIDoutputstateMsg_@V?$allocator@X@std@@@sick_scan_xd@@@2@@std@@$0A@@?$_Func_impl_no_alloc@V?$_Binder@U_Unforced@std@@A6A?AVSerializedMessage@roswrap@@AEBU?$LIDoutputstateMsg_@V?$allocator@X@std@@@sick_scan_xd@@@ZV?$reference_wrapper@$$CBU?$LIDoutputstateMsg_@V?$allocator@X@std@@@sick_scan_xd@@@2@@std@@VSerializedMessage@roswrap@@$$V@std@@QEAA@$$QEAV?$_Binder@U_Unforced@std@@A6A?AVSerializedMessage@roswrap@@AEBU?$LIDoutputstateMsg_@V?$allocator@X@std@@@sick_scan_xd@@@ZV?$reference_wrapper@$$CBU?$LIDoutputstateMsg_@V?$allocator@X@std@@@sick_scan_xd@@@2@@1@@Z
	??$?0V?$_Binder@U_Unforced@std@@A6A?AVSerializedMessage@roswrap@@AEBU?$LIDoutputstateMsg_@V?$allocator@X@std@@@sick_scan_xd@@@ZV?$reference_wrapper@$$CBU?$LIDoutputstateMsg_@V?$allocator@X@std@@@sick_scan_xd@@@2@@std@@$0A@@?$function@$$A6A?AVSerializedMessage@roswrap@@XZ@std@@QEAA@$$QEAV?$_Binder@U_Unforced@std@@A6A?AVSerializedMessage@roswrap@@AEBU?$LIDoutputstateMsg_@V?$allocator@X@std@@@sick_scan_xd@@@ZV?$reference_wrapper@$$CBU?$LIDoutputstateMsg_@V?$allocator@X@std@@@sick_scan_xd@@@2@@1@@Z
	??$?0V?$_Binder@U_Unforced@std@@A6A?AVSerializedMessage@roswrap@@AEBU?$MarkerArray_@V?$allocator@X@std@@@visualization_msgs@@@ZV?$reference_wrapper@$$CBU?$MarkerArray_@V?$allocator@X@std@@@visualization_msgs@@@2@@std@@$0A@@?$_Func_impl_no_alloc@V?$_Binder@U_Unforced@std@@A6A?AVSerializedMessage@roswrap@@AEBU?$MarkerArray_@V?$allocator@X@std@@@visualization_msgs@@@ZV?$reference_wrapper@$$CBU?$MarkerArray_@V?$allocator@X@std@@@visualization_msgs@@@2@@std@@VSerializedMessage@roswrap@@$$V@std@@QEAA@$$QEAV?$_Binder@U_Unforced@std@@A6A?AVSerializedMessage@roswrap@@AEBU?$MarkerArray_@V?$allocator@X@std@@@visualization_msgs@@@ZV?$reference_wrapper@$$CBU?$MarkerArray_@V?$allocator@X@std@@@visualization_msgs@@@2@@1@@Z
	??$?0V?$_Binder@U_Unforced@std@@A6A?AVSerializedMessage@roswrap@@AEBU?$MarkerArray_@V?$allocator@X@std@@@visualization_msgs@@@ZV?$reference_wrapper@$$CBU?$MarkerArray_@V?$allocator@X@std@@@visualization_msgs@@@2@@std@@$0A@@?$function@$$A6A?AVSerializedMessage@roswrap@@XZ@std@@QEAA@$$QEAV?$_Binder@U_Unforced@std@@A6A?AVSerializedMessage@roswrap@@AEBU?$MarkerArray_@V?$allocator@X@std@@@visualization_msgs@@@ZV?$reference_wrapper@$$CBU?$MarkerArray_@V?$allocator@X@std@@@visualization_msgs@@@2@@1@@Z
	??$?0V?$_Binder@U_Unforced@std@@A6A?AVSerializedMessage@roswrap@@AEBU?$NAVLandmarkData_@V?$allocator@X@std@@@sick_scan_xd@@@ZV?$reference_wrapper@$$CBU?$NAVLandmarkData_@V?$allocator@X@std@@@sick_scan_xd@@@2@@std@@$0A@@?$_Func_impl_no_alloc@V?$_Binder@U_Unforced@std@@A6A?AVSerializedMessage@roswrap@@AEBU?$NAVLandmarkData_@V?$allocator@X@std@@@sick_scan_xd@@@ZV?$reference_wrapper@$$CBU?$NAVLandmarkData_@V?$allocator@X@std@@@sick_scan_xd@@@2@@std@@VSerializedMessage@roswrap@@$$V@std@@QEAA@$$QEAV?$_Binder@U_Unforced@std@@A6A?AVSerializedMessage@roswrap@@AEBU?$NAVLandmarkData_@V?$allocator@X@std@@@sick_scan_xd@@@ZV?$reference_wrapper@$$CBU?$NAVLandmarkData_@V?$allocator@X@std@@@sick_scan_xd@@@2@@1@@Z
	??$?0V?$_Binder@U_Unforced@std@@A6A?AVSerializedMessage@roswrap@@AEBU?$NAVLandmarkData_@V?$allocator@X@std@@@sick_scan_xd@@@ZV?$reference_wrapper@$$CBU?$NAVLandmarkData_@V?$allocator@X@std@@@sick_scan_xd@@@2@@std@@$0A@@?$function@$$A6A?AVSerializedMessage@roswrap@@XZ@std@@QEAA@$$QEAV?$_Binder@U_Unforced@std@@A6A?AVSerializedMessage@roswrap@@AEBU?$NAVLandmarkData_@V?$allocator@X@std@@@sick_scan_xd@@@ZV?$reference_wrapper@$$CBU?$NAVLandmarkData_@V?$allocator@X@std@@@sick_scan_xd@@@2@@1@@Z
	??$?0V?$_Binder@U_Unforced@std@@A6A?AVSerializedMessage@roswrap@@AEBU?$NAVPoseData_@V?$allocator@X@std@@@sick_scan_xd@@@ZV?$reference_wrapper@$$CBU?$NAVPoseData_@V?$allocator@X@std@@@sick_scan_xd@@@2@@std@@$0A@@?$_Func_impl_no_alloc@V?$_Binder@U_Unforced@std@@A6A?AVSerializedMessage@roswrap@@AEBU?$NAVPoseData_@V?$allocator@X@std@@@sick_scan_xd@@@ZV?$reference_wrapper@$$CBU?$NAVPoseData_@V?$allocator@X@std@@@sick_scan_xd@@@2@@std@@VSerializedMessage@roswrap@@$$V@std@@QEAA@$$QEAV?$_Binder@U_Unforced@std@@A6A?AVSerializedMessage@roswrap@@AEBU?$NAVPoseData_@V?$allocator@X@std@@@sick_scan_xd@@@ZV?$reference_wrapper@$$CBU?$NAVPoseData_@V?$allocator@X@std@@@sick_scan_xd@@@2@@1@@Z
	??$?0V?$_Binder@U_Unforced@std@@A6A?AVSerializedMessage@roswrap@@AEBU?$NAVPoseData_@V?$allocator@X@std@@@sick_scan_xd@@@ZV?$reference_wrapper@$$CBU?$NAVPoseData_@V?$allocator@X@std@@@sick_scan_xd@@@2@@std@@$0A@@?$function@$$A6A?AVSerializedMessage@roswrap@@XZ@std@@QEAA@$$QEAV?$_Binder@U_Unforced@std@@A6A?AVSerializedMessage@roswrap@@AEBU?$NAVPoseData_@V?$allocator@X@std@@@sick_scan_xd@@@ZV?$reference_wrapper@$$CBU?$NAVPoseData_@V?$allocator@X@std@@@sick_scan_xd@@@2@@1@@Z
	??$?0V?$_Binder@U_Unforced@std@@A6A?AVSerializedMessage@roswrap@@AEBU?$RadarScan_@V?$allocator@X@std@@@sick_scan_xd@@@ZV?$reference_wrapper@$$CBU?$RadarScan_@V?$allocator@X@std@@@sick_scan_xd@@@2@@std@@$0A@@?$_Func_impl_no_alloc@V?$_Binder@U_Unforced@std@@A6A?AVSerializedMessage@roswrap@@AEBU?$RadarScan_@V?$allocator@X@std@@@sick_scan_xd@@@ZV?$reference_wrapper@$$CBU?$RadarScan_@V?$allocator@X@std@@@sick_scan_xd@@@2@@std@@VSerializedMessage@roswrap@@$$V@std@@QEAA@$$QEAV?$_Binder@U_Unforced@std@@A6A?AVSerializedMessage@roswrap@@AEBU?$RadarScan_@V?$allocator@X@std@@@sick_scan_xd@@@ZV?$reference_wrapper@$$CBU?$RadarScan_@V?$allocator@X@std@@@sick_scan_xd@@@2@@1@@Z
	??$?0V?$_Binder@U_Unforced@std@@A6A?AVSerializedMessage@roswrap@@AEBU?$RadarScan_@V?$allocator@X@std@@@sick_scan_xd@@@ZV?$reference_wrapper@$$CBU?$RadarScan_@V?$allocator@X@std@@@sick_scan_xd@@@2@@std@@$0A@@?$function@$$A6A?AVSerializedMessage@roswrap@@XZ@std@@QEAA@$$QEAV?$_Binder@U_Unforced@std@@A6A?AVSerializedMessage@roswrap@@AEBU?$RadarScan_@V?$allocator@X@std@@@sick_scan_xd@@@ZV?$reference_wrapper@$$CBU?$RadarScan_@V?$allocator@X@std@@@sick_scan_xd@@@2@@1@@Z
	??$?0V?$_Binder@U_Unforced@std@@A6A?AVSerializedMessage@roswrap@@AEBU?$String_@V?$allocator@X@std@@@std_msgs@@@ZV?$reference_wrapper@$$CBU?$String_@V?$allocator@X@std@@@std_msgs@@@2@@std@@$0A@@?$_Func_impl_no_alloc@V?$_Binder@U_Unforced@std@@A6A?AVSerializedMessage@roswrap@@AEBU?$String_@V?$allocator@X@std@@@std_msgs@@@ZV?$reference_wrapper@$$CBU?$String_@V?$allocator@X@std@@@std_msgs@@@2@@std@@VSerializedMessage@roswrap@@$$V@std@@QEAA@$$QEAV?$_Binder@U_Unforced@std@@A6A?AVSerializedMessage@roswrap@@AEBU?$String_@V?$allocator@X@std@@@std_msgs@@@ZV?$reference_wrapper@$$CBU?$String_@V?$allocator@X@std@@@std_msgs@@@2@@1@@Z
	??$?0V?$_Binder@U_Unforced@std@@A6A?AVSerializedMessage@roswrap@@AEBU?$String_@V?$allocator@X@std@@@std_msgs@@@ZV?$reference_wrapper@$$CBU?$String_@V?$allocator@X@std@@@std_msgs@@@2@@std@@$0A@@?$function@$$A6A?AVSerializedMessage@roswrap@@XZ@std@@QEAA@$$QEAV?$_Binder@U_Unforced@std@@A6A?AVSerializedMessage@roswrap@@AEBU?$String_@V?$allocator@X@std@@@std_msgs@@@ZV?$reference_wrapper@$$CBU?$String_@V?$allocator@X@std@@@std_msgs@@@2@@1@@Z
	??$?0V?$_Binder@U_Unforced@std@@AEAP8SickScanServices@sick_scan_xd@@EAA_NAEAU?$ColaMsgSrvRequest_@V?$allocator@X@std@@@4@AEAU?$ColaMsgSrvResponse_@V?$allocator@X@std@@@4@@ZAEAPEAV34@AEBU?$_Ph@$00@2@AEBU?$_Ph@$01@2@@std@@$0A@@?$_Func_impl_no_alloc@V?$_Binder@U_Unforced@std@@AEAP8SickScanServices@sick_scan_xd@@EAA_NAEAU?$ColaMsgSrvRequest_@V?$allocator@X@std@@@4@AEAU?$ColaMsgSrvResponse_@V?$allocator@X@std@@@4@@ZAEAPEAV34@AEBU?$_Ph@$00@2@AEBU?$_Ph@$01@2@@std@@_NAEAU?$ColaMsgSrvRequest_@V?$allocator@X@std@@@sick_scan_xd@@AEAU?$ColaMsgSrvResponse_@V?$allocator@X@std@@@4@@std@@QEAA@$$QEAV?$_Binder@U_Unforced@std@@AEAP8SickScanServices@sick_scan_xd@@EAA_NAEAU?$ColaMsgSrvRequest_@V?$allocator@X@std@@@4@AEAU?$ColaMsgSrvResponse_@V?$allocator@X@std@@@4@@ZAEAPEAV34@AEBU?$_Ph@$00@2@AEBU?$_Ph@$01@2@@1@@Z
	??$?0V?$_Binder@U_Unforced@std@@AEAP8SickScanServices@sick_scan_xd@@EAA_NAEAU?$ColaMsgSrvRequest_@V?$allocator@X@std@@@4@AEAU?$ColaMsgSrvResponse_@V?$allocator@X@std@@@4@@ZAEAPEAV34@AEBU?$_Ph@$00@2@AEBU?$_Ph@$01@2@@std@@$0A@@?$function@$$A6A_NAEAU?$ColaMsgSrvRequest_@V?$allocator@X@std@@@sick_scan_xd@@AEAU?$ColaMsgSrvResponse_@V?$allocator@X@std@@@2@@Z@std@@QEAA@$$QEAV?$_Binder@U_Unforced@std@@AEAP8SickScanServices@sick_scan_xd@@EAA_NAEAU?$ColaMsgSrvRequest_@V?$allocator@X@std@@@4@AEAU?$ColaMsgSrvResponse_@V?$allocator@X@std@@@4@@ZAEAPEAV34@AEBU?$_Ph@$00@2@AEBU?$_Ph@$01@2@@1@@Z
	??$?0V?$_Binder@U_Unforced@std@@AEAP8SickScanServices@sick_scan_xd@@EAA_NAEAU?$ECRChangeArrSrvRequest_@V?$allocator@X@std@@@4@AEAU?$ECRChangeArrSrvResponse_@V?$allocator@X@std@@@4@@ZAEAPEAV34@AEBU?$_Ph@$00@2@AEBU?$_Ph@$01@2@@std@@$0A@@?$_Func_impl_no_alloc@V?$_Binder@U_Unforced@std@@AEAP8SickScanServices@sick_scan_xd@@EAA_NAEAU?$ECRChangeArrSrvRequest_@V?$allocator@X@std@@@4@AEAU?$ECRChangeArrSrvResponse_@V?$allocator@X@std@@@4@@ZAEAPEAV34@AEBU?$_Ph@$00@2@AEBU?$_Ph@$01@2@@std@@_NAEAU?$ECRChangeArrSrvRequest_@V?$allocator@X@std@@@sick_scan_xd@@AEAU?$ECRChangeArrSrvResponse_@V?$allocator@X@std@@@4@@std@@QEAA@$$QEAV?$_Binder@U_Unforced@std@@AEAP8SickScanServices@sick_scan_xd@@EAA_NAEAU?$ECRChangeArrSrvRequest_@V?$allocator@X@std@@@4@AEAU?$ECRChangeArrSrvResponse_@V?$allocator@X@std@@@4@@ZAEAPEAV34@AEBU?$_Ph@$00@2@AEBU?$_Ph@$01@2@@1@@Z
	??$?0V?$_Binder@U_Unforced@std@@AEAP8SickScanServices@sick_scan_xd@@EAA_NAEAU?$ECRChangeArrSrvRequest_@V?$allocator@X@std@@@4@AEAU?$ECRChangeArrSrvResponse_@V?$allocator@X@std@@@4@@ZAEAPEAV34@AEBU?$_Ph@$00@2@AEBU?$_Ph@$01@2@@std@@$0A@@?$function@$$A6A_NAEAU?$ECRChangeArrSrvRequest_@V?$allocator@X@std@@@sick_scan_xd@@AEAU?$ECRChangeArrSrvResponse_@V?$allocator@X@std@@@2@@Z@std@@QEAA@$$QEAV?$_Binder@U_Unforced@std@@AEAP8SickScanServices@sick_scan_xd@@EAA_NAEAU?$ECRChangeArrSrvRequest_@V?$allocator@X@std@@@4@AEAU?$ECRChangeArrSrvResponse_@V?$allocator@X@std@@@4@@ZAEAPEAV34@AEBU?$_Ph@$00@2@AEBU?$_Ph@$01@2@@1@@Z
	??$?0V?$_Binder@U_Unforced@std@@AEAP8SickScanServices@sick_scan_xd@@EAA_NAEAU?$GetContaminationResultSrvRequest_@V?$allocator@X@std@@@4@AEAU?$GetContaminationResultSrvResponse_@V?$allocator@X@std@@@4@@ZAEAPEAV34@AEBU?$_Ph@$00@2@AEBU?$_Ph@$01@2@@std@@$0A@@?$_Func_impl_no_alloc@V?$_Binder@U_Unforced@std@@AEAP8SickScanServices@sick_scan_xd@@EAA_NAEAU?$GetContaminationResultSrvRequest_@V?$allocator@X@std@@@4@AEAU?$GetContaminationResultSrvResponse_@V?$allocator@X@std@@@4@@ZAEAPEAV34@AEBU?$_Ph@$00@2@AEBU?$_Ph@$01@2@@std@@_NAEAU?$GetContaminationResultSrvRequest_@V?$allocator@X@std@@@sick_scan_xd@@AEAU?$GetContaminationResultSrvResponse_@V?$allocator@X@std@@@4@@std@@QEAA@$$QEAV?$_Binder@U_Unforced@std@@AEAP8SickScanServices@sick_scan_xd@@EAA_NAEAU?$GetContaminationResultSrvRequest_@V?$allocator@X@std@@@4@AEAU?$GetContaminationResultSrvResponse_@V?$allocator@X@std@@@4@@ZAEAPEAV34@AEBU?$_Ph@$00@2@AEBU?$_Ph@$01@2@@1@@Z
	??$?0V?$_Binder@U_Unforced@std@@AEAP8SickScanServices@sick_scan_xd@@EAA_NAEAU?$GetContaminationResultSrvRequest_@V?$allocator@X@std@@@4@AEAU?$GetContaminationResultSrvResponse_@V?$allocator@X@std@@@4@@ZAEAPEAV34@AEBU?$_Ph@$00@2@AEBU?$_Ph@$01@2@@std@@$0A@@?$function@$$A6A_NAEAU?$GetContaminationResultSrvRequest_@V?$allocator@X@std@@@sick_scan_xd@@AEAU?$GetContaminationResultSrvResponse_@V?$allocator@X@std@@@2@@Z@std@@QEAA@$$QEAV?$_Binder@U_Unforced@std@@AEAP8SickScanServices@sick_scan_xd@@EAA_NAEAU?$GetContaminationResultSrvRequest_@V?$allocator@X@std@@@4@AEAU?$GetContaminationResultSrvResponse_@V?$allocator@X@std@@@4@@ZAEAPEAV34@AEBU?$_Ph@$00@2@AEBU?$_Ph@$01@2@@1@@Z
	??$?0V?$_Binder@U_Unforced@std@@AEAP8SickScanServices@sick_scan_xd@@EAA_NAEAU?$LIDoutputstateSrvRequest_@V?$allocator@X@std@@@4@AEAU?$LIDoutputstateSrvResponse_@V?$allocator@X@std@@@4@@ZAEAPEAV34@AEBU?$_Ph@$00@2@AEBU?$_Ph@$01@2@@std@@$0A@@?$_Func_impl_no_alloc@V?$_Binder@U_Unforced@std@@AEAP8SickScanServices@sick_scan_xd@@EAA_NAEAU?$LIDoutputstateSrvRequest_@V?$allocator@X@std@@@4@AEAU?$LIDoutputstateSrvResponse_@V?$allocator@X@std@@@4@@ZAEAPEAV34@AEBU?$_Ph@$00@2@AEBU?$_Ph@$01@2@@std@@_NAEAU?$LIDoutputstateSrvRequest_@V?$allocator@X@std@@@sick_scan_xd@@AEAU?$LIDoutputstateSrvResponse_@V?$allocator@X@std@@@4@@std@@QEAA@$$QEAV?$_Binder@U_Unforced@std@@AEAP8SickScanServices@sick_scan_xd@@EAA_NAEAU?$LIDoutputstateSrvRequest_@V?$allocator@X@std@@@4@AEAU?$LIDoutputstateSrvResponse_@V?$allocator@X@std@@@4@@ZAEAPEAV34@AEBU?$_Ph@$00@2@AEBU?$_Ph@$01@2@@1@@Z
	??$?0V?$_Binder@U_Unforced@std@@AEAP8SickScanServices@sick_scan_xd@@EAA_NAEAU?$LIDoutputstateSrvRequest_@V?$allocator@X@std@@@4@AEAU?$LIDoutputstateSrvResponse_@V?$allocator@X@std@@@4@@ZAEAPEAV34@AEBU?$_Ph@$00@2@AEBU?$_Ph@$01@2@@std@@$0A@@?$function@$$A6A_NAEAU?$LIDoutputstateSrvRequest_@V?$allocator@X@std@@@sick_scan_xd@@AEAU?$LIDoutputstateSrvResponse_@V?$allocator@X@std@@@2@@Z@std@@QEAA@$$QEAV?$_Binder@U_Unforced@std@@AEAP8SickScanServices@sick_scan_xd@@EAA_NAEAU?$LIDoutputstateSrvRequest_@V?$allocator@X@std@@@4@AEAU?$LIDoutputstateSrvResponse_@V?$allocator@X@std@@@4@@ZAEAPEAV34@AEBU?$_Ph@$00@2@AEBU?$_Ph@$01@2@@1@@Z
	??$?0V?$_Binder@U_Unforced@std@@AEAP8SickScanServices@sick_scan_xd@@EAA_NAEAU?$SCdevicestateSrvRequest_@V?$allocator@X@std@@@4@AEAU?$SCdevicestateSrvResponse_@V?$allocator@X@std@@@4@@ZAEAPEAV34@AEBU?$_Ph@$00@2@AEBU?$_Ph@$01@2@@std@@$0A@@?$_Func_impl_no_alloc@V?$_Binder@U_Unforced@std@@AEAP8SickScanServices@sick_scan_xd@@EAA_NAEAU?$SCdevicestateSrvRequest_@V?$allocator@X@std@@@4@AEAU?$SCdevicestateSrvResponse_@V?$allocator@X@std@@@4@@ZAEAPEAV34@AEBU?$_Ph@$00@2@AEBU?$_Ph@$01@2@@std@@_NAEAU?$SCdevicestateSrvRequest_@V?$allocator@X@std@@@sick_scan_xd@@AEAU?$SCdevicestateSrvResponse_@V?$allocator@X@std@@@4@@std@@QEAA@$$QEAV?$_Binder@U_Unforced@std@@AEAP8SickScanServices@sick_scan_xd@@EAA_NAEAU?$SCdevicestateSrvRequest_@V?$allocator@X@std@@@4@AEAU?$SCdevicestateSrvResponse_@V?$allocator@X@std@@@4@@ZAEAPEAV34@AEBU?$_Ph@$00@2@AEBU?$_Ph@$01@2@@1@@Z
	??$?0V?$_Binder@U_Unforced@std@@AEAP8SickScanServices@sick_scan_xd@@EAA_NAEAU?$SCdevicestateSrvRequest_@V?$allocator@X@std@@@4@AEAU?$SCdevicestateSrvResponse_@V?$allocator@X@std@@@4@@ZAEAPEAV34@AEBU?$_Ph@$00@2@AEBU?$_Ph@$01@2@@std@@$0A@@?$function@$$A6A_NAEAU?$SCdevicestateSrvRequest_@V?$allocator@X@std@@@sick_scan_xd@@AEAU?$SCdevicestateSrvResponse_@V?$allocator@X@std@@@2@@Z@std@@QEAA@$$QEAV?$_Binder@U_Unforced@std@@AEAP8SickScanServices@sick_scan_xd@@EAA_NAEAU?$SCdevicestateSrvRequest_@V?$allocator@X@std@@@4@AEAU?$SCdevicestateSrvResponse_@V?$allocator@X@std@@@4@@ZAEAPEAV34@AEBU?$_Ph@$00@2@AEBU?$_Ph@$01@2@@1@@Z
	??$?0V?$_Binder@U_Unforced@std@@AEAP8SickScanServices@sick_scan_xd@@EAA_NAEAU?$SCrebootSrvRequest_@V?$allocator@X@std@@@4@AEAU?$SCrebootSrvResponse_@V?$allocator@X@std@@@4@@ZAEAPEAV34@AEBU?$_Ph@$00@2@AEBU?$_Ph@$01@2@@std@@$0A@@?$_Func_impl_no_alloc@V?$_Binder@U_Unforced@std@@AEAP8SickScanServices@sick_scan_xd@@EAA_NAEAU?$SCrebootSrvRequest_@V?$allocator@X@std@@@4@AEAU?$SCrebootSrvResponse_@V?$allocator@X@std@@@4@@ZAEAPEAV34@AEBU?$_Ph@$00@2@AEBU?$_Ph@$01@2@@std@@_NAEAU?$SCrebootSrvRequest_@V?$allocator@X@std@@@sick_scan_xd@@AEAU?$SCrebootSrvResponse_@V?$allocator@X@std@@@4@@std@@QEAA@$$QEAV?$_Binder@U_Unforced@std@@AEAP8SickScanServices@sick_scan_xd@@EAA_NAEAU?$SCrebootSrvRequest_@V?$allocator@X@std@@@4@AEAU?$SCrebootSrvResponse_@V?$allocator@X@std@@@4@@ZAEAPEAV34@AEBU?$_Ph@$00@2@AEBU?$_Ph@$01@2@@1@@Z
	??$?0V?$_Binder@U_Unforced@std@@AEAP8SickScanServices@sick_scan_xd@@EAA_NAEAU?$SCrebootSrvRequest_@V?$allocator@X@std@@@4@AEAU?$SCrebootSrvResponse_@V?$allocator@X@std@@@4@@ZAEAPEAV34@AEBU?$_Ph@$00@2@AEBU?$_Ph@$01@2@@std@@$0A@@?$function@$$A6A_NAEAU?$SCrebootSrvRequest_@V?$allocator@X@std@@@sick_scan_xd@@AEAU?$SCrebootSrvResponse_@V?$allocator@X@std@@@2@@Z@std@@QEAA@$$QEAV?$_Binder@U_Unforced@std@@AEAP8SickScanServices@sick_scan_xd@@EAA_NAEAU?$SCrebootSrvRequest_@V?$allocator@X@std@@@4@AEAU?$SCrebootSrvResponse_@V?$allocator@X@std@@@4@@ZAEAPEAV34@AEBU?$_Ph@$00@2@AEBU?$_Ph@$01@2@@1@@Z
	??$?0V?$_Binder@U_Unforced@std@@AEAP8SickScanServices@sick_scan_xd@@EAA_NAEAU?$SCsoftresetSrvRequest_@V?$allocator@X@std@@@4@AEAU?$SCsoftresetSrvResponse_@V?$allocator@X@std@@@4@@ZAEAPEAV34@AEBU?$_Ph@$00@2@AEBU?$_Ph@$01@2@@std@@$0A@@?$_Func_impl_no_alloc@V?$_Binder@U_Unforced@std@@AEAP8SickScanServices@sick_scan_xd@@EAA_NAEAU?$SCsoftresetSrvRequest_@V?$allocator@X@std@@@4@AEAU?$SCsoftresetSrvResponse_@V?$allocator@X@std@@@4@@ZAEAPEAV34@AEBU?$_Ph@$00@2@AEBU?$_Ph@$01@2@@std@@_NAEAU?$SCsoftresetSrvRequest_@V?$allocator@X@std@@@sick_scan_xd@@AEAU?$SCsoftresetSrvResponse_@V?$allocator@X@std@@@4@@std@@QEAA@$$QEAV?$_Binder@U_Unforced@std@@AEAP8SickScanServices@sick_scan_xd@@EAA_NAEAU?$SCsoftresetSrvRequest_@V?$allocator@X@std@@@4@AEAU?$SCsoftresetSrvResponse_@V?$allocator@X@std@@@4@@ZAEAPEAV34@AEBU?$_Ph@$00@2@AEBU?$_Ph@$01@2@@1@@Z
	??$?0V?$_Binder@U_Unforced@std@@AEAP8SickScanServices@sick_scan_xd@@EAA_NAEAU?$SCsoftresetSrvRequest_@V?$allocator@X@std@@@4@AEAU?$SCsoftresetSrvResponse_@V?$allocator@X@std@@@4@@ZAEAPEAV34@AEBU?$_Ph@$00@2@AEBU?$_Ph@$01@2@@std@@$0A@@?$function@$$A6A_NAEAU?$SCsoftresetSrvRequest_@V?$allocator@X@std@@@sick_scan_xd@@AEAU?$SCsoftresetSrvResponse_@V?$allocator@X@std@@@2@@Z@std@@QEAA@$$QEAV?$_Binder@U_Unforced@std@@AEAP8SickScanServices@sick_scan_xd@@EAA_NAEAU?$SCsoftresetSrvRequest_@V?$allocator@X@std@@@4@AEAU?$SCsoftresetSrvResponse_@V?$allocator@X@std@@@4@@ZAEAPEAV34@AEBU?$_Ph@$00@2@AEBU?$_Ph@$01@2@@1@@Z
	??$?0V?$_Binder@U_Unforced@std@@AEAP8SickScanServices@sick_scan_xd@@EAA_NAEAU?$SickScanExitSrvRequest_@V?$allocator@X@std@@@4@AEAU?$SickScanExitSrvResponse_@V?$allocator@X@std@@@4@@ZAEAPEAV34@AEBU?$_Ph@$00@2@AEBU?$_Ph@$01@2@@std@@$0A@@?$_Func_impl_no_alloc@V?$_Binder@U_Unforced@std@@AEAP8SickScanServices@sick_scan_xd@@EAA_NAEAU?$SickScanExitSrvRequest_@V?$allocator@X@std@@@4@AEAU?$SickScanExitSrvResponse_@V?$allocator@X@std@@@4@@ZAEAPEAV34@AEBU?$_Ph@$00@2@AEBU?$_Ph@$01@2@@std@@_NAEAU?$SickScanExitSrvRequest_@V?$allocator@X@std@@@sick_scan_xd@@AEAU?$SickScanExitSrvResponse_@V?$allocator@X@std@@@4@@std@@QEAA@$$QEAV?$_Binder@U_Unforced@std@@AEAP8SickScanServices@sick_scan_xd@@EAA_NAEAU?$SickScanExitSrvRequest_@V?$allocator@X@std@@@4@AEAU?$SickScanExitSrvResponse_@V?$allocator@X@std@@@4@@ZAEAPEAV34@AEBU?$_Ph@$00@2@AEBU?$_Ph@$01@2@@1@@Z
	??$?0V?$_Binder@U_Unforced@std@@AEAP8SickScanServices@sick_scan_xd@@EAA_NAEAU?$SickScanExitSrvRequest_@V?$allocator@X@std@@@4@AEAU?$SickScanExitSrvResponse_@V?$allocator@X@std@@@4@@ZAEAPEAV34@AEBU?$_Ph@$00@2@AEBU?$_Ph@$01@2@@std@@$0A@@?$function@$$A6A_NAEAU?$SickScanExitSrvRequest_@V?$allocator@X@std@@@sick_scan_xd@@AEAU?$SickScanExitSrvResponse_@V?$allocator@X@std@@@2@@Z@std@@QEAA@$$QEAV?$_Binder@U_Unforced@std@@AEAP8SickScanServices@sick_scan_xd@@EAA_NAEAU?$SickScanExitSrvRequest_@V?$allocator@X@std@@@4@AEAU?$SickScanExitSrvResponse_@V?$allocator@X@std@@@4@@ZAEAPEAV34@AEBU?$_Ph@$00@2@AEBU?$_Ph@$01@2@@1@@Z
	??$?0V?$_String_const_iterator@V?$_String_val@U?$_Simple_types@D@std@@@std@@@std@@$0A@@?$vector@EV?$allocator@E@std@@@std@@QEAA@V?$_String_const_iterator@V?$_String_val@U?$_Simple_types@D@std@@@std@@@1@0AEBV?$allocator@E@1@@Z
	??$?0V?$_String_iterator@V?$_String_val@U?$_Simple_types@D@std@@@std@@@std@@$0A@@?$vector@EV?$allocator@E@std@@@std@@QEAA@V?$_String_iterator@V?$_String_val@U?$_Simple_types@D@std@@@std@@@1@0AEBV?$allocator@E@1@@Z
	??$?0V?$_Tree_iterator@V?$_Tree_val@U?$_Tree_simple_types@U?$pair@$$CBVMsgPack@msgpack11@@V12@@std@@@std@@@std@@@std@@AEB_N$0A@@?$pair@V?$_Tree_iterator@V?$_Tree_val@U?$_Tree_simple_types@U?$pair@$$CBVMsgPack@msgpack11@@V12@@std@@@std@@@std@@@std@@_N@std@@QEAA@$$QEAV?$_Tree_iterator@V?$_Tree_val@U?$_Tree_simple_types@U?$pair@$$CBVMsgPack@msgpack11@@V12@@std@@@std@@@std@@@1@AEB_N@Z
	??$?0V?$_Vector_iterator@V?$_Vector_val@U?$_Simple_types@E@std@@@std@@@std@@$0A@@?$basic_string@DU?$char_traits@D@std@@V?$allocator@D@2@@std@@QEAA@V?$_Vector_iterator@V?$_Vector_val@U?$_Simple_types@E@std@@@std@@@1@0AEBV?$allocator@D@1@@Z
	??$?0V?$_Vector_iterator@V?$_Vector_val@U?$_Simple_types@E@std@@@std@@@std@@$0A@@?$vector@EV?$allocator@E@std@@@std@@QEAA@V?$_Vector_iterator@V?$_Vector_val@U?$_Simple_types@E@std@@@std@@@1@0AEBV?$allocator@E@1@@Z
	??$?0V?$_Vector_iterator@V?$_Vector_val@U?$_Simple_types@M@std@@@std@@@std@@$0A@@?$vector@MV?$allocator@M@std@@@std@@QEAA@V?$_Vector_iterator@V?$_Vector_val@U?$_Simple_types@M@std@@@std@@@1@0AEBV?$allocator@M@1@@Z
	??$?0V?$_Vector_iterator@V?$_Vector_val@U?$_Simple_types@VNAV350ImkLandmark@sick_scan_xd@@@std@@@std@@@std@@$0A@@?$vector@VNAV350ImkLandmark@sick_scan_xd@@V?$allocator@VNAV350ImkLandmark@sick_scan_xd@@@std@@@std@@QEAA@V?$_Vector_iterator@V?$_Vector_val@U?$_Simple_types@VNAV350ImkLandmark@sick_scan_xd@@@std@@@std@@@1@0AEBV?$allocator@VNAV350ImkLandmark@sick_scan_xd@@@1@@Z
	??$?0V?$allocator@D@std@@$$V@?$_Compressed_pair@V?$allocator@D@std@@V?$_String_val@U?$_Simple_types@D@std@@@2@$00@std@@QEAA@U_One_then_variadic_args_t@1@$$QEAV?$allocator@D@1@@Z
	??$?0V?$allocator@E@std@@$$V@?$_Compressed_pair@V?$allocator@E@std@@V?$_Vector_val@U?$_Simple_types@E@std@@@2@$00@std@@QEAA@U_One_then_variadic_args_t@1@$$QEAV?$allocator@E@1@@Z
	??$?0V?$allocator@E@std@@PEAEPEAEPEAE@?$_Compressed_pair@V?$allocator@E@std@@V?$_Vector_val@U?$_Simple_types@E@std@@@2@$00@std@@QEAA@U_One_then_variadic_args_t@1@$$QEAV?$allocator@E@1@$$QEAPEAE22@Z
	??$?0V?$allocator@G@std@@$$V@?$_Compressed_pair@V?$allocator@G@std@@V?$_Vector_val@U?$_Simple_types@G@std@@@2@$00@std@@QEAA@U_One_then_variadic_args_t@1@$$QEAV?$allocator@G@1@@Z
	??$?0V?$allocator@G@std@@PEAGPEAGPEAG@?$_Compressed_pair@V?$allocator@G@std@@V?$_Vector_val@U?$_Simple_types@G@std@@@2@$00@std@@QEAA@U_One_then_variadic_args_t@1@$$QEAV?$allocator@G@1@$$QEAPEAG22@Z
	??$?0V?$allocator@H@std@@$$V@?$_Compressed_pair@V?$allocator@H@std@@V?$_Vector_val@U?$_Simple_types@H@std@@@2@$00@std@@QEAA@U_One_then_variadic_args_t@1@$$QEAV?$allocator@H@1@@Z
	??$?0V?$allocator@H@std@@PEAHPEAHPEAH@?$_Compressed_pair@V?$allocator@H@std@@V?$_Vector_val@U?$_Simple_types@H@std@@@2@$00@std@@QEAA@U_One_then_variadic_args_t@1@$$QEAV?$allocator@H@1@$$QEAPEAH22@Z
	??$?0V?$allocator@I@std@@$$V@?$_Compressed_pair@V?$allocator@I@std@@V?$_Vector_val@U?$_Simple_types@I@std@@@2@$00@std@@QEAA@U_One_then_variadic_args_t@1@$$QEAV?$allocator@I@1@@Z
	??$?0V?$allocator@I@std@@PEAIPEAIPEAI@?$_Compressed_pair@V?$allocator@I@std@@V?$_Vector_val@U?$_Simple_types@I@std@@@2@$00@std@@QEAA@U_One_then_variadic_args_t@1@$$QEAV?$allocator@I@1@$$QEAPEAI22@Z
	??$?0V?$allocator@M@std@@$$V@?$_Compressed_pair@V?$allocator@M@std@@V?$_Vector_val@U?$_Simple_types@M@std@@@2@$00@std@@QEAA@U_One_then_variadic_args_t@1@$$QEAV?$allocator@M@1@@Z
	??$?0V?$allocator@M@std@@PEAMPEAMPEAM@?$_Compressed_pair@V?$allocator@M@std@@V?$_Vector_val@U?$_Simple_types@M@std@@@2@$00@std@@QEAA@U_One_then_variadic_args_t@1@$$QEAV?$allocator@M@1@$$QEAPEAM22@Z
	??$?0V?$allocator@U?$ColorRGBA_@V?$allocator@X@std@@@std_msgs@@@std@@$$V@?$_Compressed_pair@V?$allocator@U?$ColorRGBA_@V?$allocator@X@std@@@std_msgs@@@std@@V?$_Vector_val@U?$_Simple_types@U?$ColorRGBA_@V?$allocator@X@std@@@std_msgs@@@std@@@2@$00@std@@QEAA@U_One_then_variadic_args_t@1@$$QEAV?$allocator@U?$ColorRGBA_@V?$allocator@X@std@@@std_msgs@@@1@@Z
	??$?0V?$allocator@U?$ColorRGBA_@V?$allocator@X@std@@@std_msgs@@@std@@PEAU?$ColorRGBA_@V?$allocator@X@std@@@std_msgs@@PEAU23@PEAU23@@?$_Compressed_pair@V?$allocator@U?$ColorRGBA_@V?$allocator@X@std@@@std_msgs@@@std@@V?$_Vector_val@U?$_Simple_types@U?$ColorRGBA_@V?$allocator@X@std@@@std_msgs@@@std@@@2@$00@std@@QEAA@U_One_then_variadic_args_t@1@$$QEAV?$allocator@U?$ColorRGBA_@V?$allocator@X@std@@@std_msgs@@@1@$$QEAPEAU?$ColorRGBA_@V?$allocator@X@std@@@std_msgs@@22@Z
	??$?0V?$allocator@U?$Marker_@V?$allocator@X@std@@@visualization_msgs@@@std@@PEAU?$Marker_@V?$allocator@X@std@@@visualization_msgs@@PEAU23@PEAU23@@?$_Compressed_pair@V?$allocator@U?$Marker_@V?$allocator@X@std@@@visualization_msgs@@@std@@V?$_Vector_val@U?$_Simple_types@U?$Marker_@V?$allocator@X@std@@@visualization_msgs@@@std@@@2@$00@std@@QEAA@U_One_then_variadic_args_t@1@$$QEAV?$allocator@U?$Marker_@V?$allocator@X@std@@@visualization_msgs@@@1@$$QEAPEAU?$Marker_@V?$allocator@X@std@@@visualization_msgs@@22@Z
	??$?0V?$allocator@U?$PointField_@V?$allocator@X@std@@@sensor_msgs@@@std@@$$V@?$_Compressed_pair@V?$allocator@U?$PointField_@V?$allocator@X@std@@@sensor_msgs@@@std@@V?$_Vector_val@U?$_Simple_types@U?$PointField_@V?$allocator@X@std@@@sensor_msgs@@@std@@@2@$00@std@@QEAA@U_One_then_variadic_args_t@1@$$QEAV?$allocator@U?$PointField_@V?$allocator@X@std@@@sensor_msgs@@@1@@Z
	??$?0V?$allocator@U?$Point_@V?$allocator@X@std@@@geometry_msgs@@@std@@$$V@?$_Compressed_pair@V?$allocator@U?$Point_@V?$allocator@X@std@@@geometry_msgs@@@std@@V?$_Vector_val@U?$_Simple_types@U?$Point_@V?$allocator@X@std@@@geometry_msgs@@@std@@@2@$00@std@@QEAA@U_One_then_variadic_args_t@1@$$QEAV?$allocator@U?$Point_@V?$allocator@X@std@@@geometry_msgs@@@1@@Z
	??$?0V?$allocator@U?$Point_@V?$allocator@X@std@@@geometry_msgs@@@std@@PEAU?$Point_@V?$allocator@X@std@@@geometry_msgs@@PEAU23@PEAU23@@?$_Compressed_pair@V?$allocator@U?$Point_@V?$allocator@X@std@@@geometry_msgs@@@std@@V?$_Vector_val@U?$_Simple_types@U?$Point_@V?$allocator@X@std@@@geometry_msgs@@@std@@@2@$00@std@@QEAA@U_One_then_variadic_args_t@1@$$QEAV?$allocator@U?$Point_@V?$allocator@X@std@@@geometry_msgs@@@1@$$QEAPEAU?$Point_@V?$allocator@X@std@@@geometry_msgs@@22@Z
	??$?0V?$allocator@U?$_List_node@P6AXPEAVNodeHandle@roswrap@@PEBU?$Imu_@V?$allocator@X@std@@@sensor_msgs@@@ZPEAX@std@@@std@@$$V@?$_Compressed_pair@V?$allocator@U?$_List_node@P6AXPEAVNodeHandle@roswrap@@PEBU?$Imu_@V?$allocator@X@std@@@sensor_msgs@@@ZPEAX@std@@@std@@V?$_List_val@U?$_List_simple_types@P6AXPEAVNodeHandle@roswrap@@PEBU?$Imu_@V?$allocator@X@std@@@sensor_msgs@@@Z@std@@@2@$00@std@@QEAA@U_One_then_variadic_args_t@1@$$QEAV?$allocator@U?$_List_node@P6AXPEAVNodeHandle@roswrap@@PEBU?$Imu_@V?$allocator@X@std@@@sensor_msgs@@@ZPEAX@std@@@1@@Z
	??$?0V?$allocator@U?$_List_node@P6AXPEAVNodeHandle@roswrap@@PEBU?$LFErecMsg_@V?$allocator@X@std@@@sick_scan_xd@@@ZPEAX@std@@@std@@$$V@?$_Compressed_pair@V?$allocator@U?$_List_node@P6AXPEAVNodeHandle@roswrap@@PEBU?$LFErecMsg_@V?$allocator@X@std@@@sick_scan_xd@@@ZPEAX@std@@@std@@V?$_List_val@U?$_List_simple_types@P6AXPEAVNodeHandle@roswrap@@PEBU?$LFErecMsg_@V?$allocator@X@std@@@sick_scan_xd@@@Z@std@@@2@$00@std@@QEAA@U_One_then_variadic_args_t@1@$$QEAV?$allocator@U?$_List_node@P6AXPEAVNodeHandle@roswrap@@PEBU?$LFErecMsg_@V?$allocator@X@std@@@sick_scan_xd@@@ZPEAX@std@@@1@@Z
	??$?0V?$allocator@U?$_List_node@P6AXPEAVNodeHandle@roswrap@@PEBU?$LIDoutputstateMsg_@V?$allocator@X@std@@@sick_scan_xd@@@ZPEAX@std@@@std@@$$V@?$_Compressed_pair@V?$allocator@U?$_List_node@P6AXPEAVNodeHandle@roswrap@@PEBU?$LIDoutputstateMsg_@V?$allocator@X@std@@@sick_scan_xd@@@ZPEAX@std@@@std@@V?$_List_val@U?$_List_simple_types@P6AXPEAVNodeHandle@roswrap@@PEBU?$LIDoutputstateMsg_@V?$allocator@X@std@@@sick_scan_xd@@@Z@std@@@2@$00@std@@QEAA@U_One_then_variadic_args_t@1@$$QEAV?$allocator@U?$_List_node@P6AXPEAVNodeHandle@roswrap@@PEBU?$LIDoutputstateMsg_@V?$allocator@X@std@@@sick_scan_xd@@@ZPEAX@std@@@1@@Z
	??$?0V?$allocator@U?$_List_node@P6AXPEAVNodeHandle@roswrap@@PEBU?$MarkerArray_@V?$allocator@X@std@@@visualization_msgs@@@ZPEAX@std@@@std@@$$V@?$_Compressed_pair@V?$allocator@U?$_List_node@P6AXPEAVNodeHandle@roswrap@@PEBU?$MarkerArray_@V?$allocator@X@std@@@visualization_msgs@@@ZPEAX@std@@@std@@V?$_List_val@U?$_List_simple_types@P6AXPEAVNodeHandle@roswrap@@PEBU?$MarkerArray_@V?$allocator@X@std@@@visualization_msgs@@@Z@std@@@2@$00@std@@QEAA@U_One_then_variadic_args_t@1@$$QEAV?$allocator@U?$_List_node@P6AXPEAVNodeHandle@roswrap@@PEBU?$MarkerArray_@V?$allocator@X@std@@@visualization_msgs@@@ZPEAX@std@@@1@@Z
	??$?0V?$allocator@U?$_List_node@P6AXPEAVNodeHandle@roswrap@@PEBU?$RadarScan_@V?$allocator@X@std@@@sick_scan_xd@@@ZPEAX@std@@@std@@$$V@?$_Compressed_pair@V?$allocator@U?$_List_node@P6AXPEAVNodeHandle@roswrap@@PEBU?$RadarScan_@V?$allocator@X@std@@@sick_scan_xd@@@ZPEAX@std@@@std@@V?$_List_val@U?$_List_simple_types@P6AXPEAVNodeHandle@roswrap@@PEBU?$RadarScan_@V?$allocator@X@std@@@sick_scan_xd@@@Z@std@@@2@$00@std@@QEAA@U_One_then_variadic_args_t@1@$$QEAV?$allocator@U?$_List_node@P6AXPEAVNodeHandle@roswrap@@PEBU?$RadarScan_@V?$allocator@X@std@@@sick_scan_xd@@@ZPEAX@std@@@1@@Z
	??$?0V?$allocator@U?$_List_node@P6AXPEAVNodeHandle@roswrap@@PEBU?$SickLdmrsObjectArray_@V?$allocator@X@std@@@sick_scan_xd@@@ZPEAX@std@@@std@@$$V@?$_Compressed_pair@V?$allocator@U?$_List_node@P6AXPEAVNodeHandle@roswrap@@PEBU?$SickLdmrsObjectArray_@V?$allocator@X@std@@@sick_scan_xd@@@ZPEAX@std@@@std@@V?$_List_val@U?$_List_simple_types@P6AXPEAVNodeHandle@roswrap@@PEBU?$SickLdmrsObjectArray_@V?$allocator@X@std@@@sick_scan_xd@@@Z@std@@@2@$00@std@@QEAA@U_One_then_variadic_args_t@1@$$QEAV?$allocator@U?$_List_node@P6AXPEAVNodeHandle@roswrap@@PEBU?$SickLdmrsObjectArray_@V?$allocator@X@std@@@sick_scan_xd@@@ZPEAX@std@@@1@@Z
	??$?0V?$allocator@U?$_List_node@P6AXPEAVNodeHandle@roswrap@@PEBUPointCloud2withEcho@sick_scan_xd@@@ZPEAX@std@@@std@@$$V@?$_Compressed_pair@V?$allocator@U?$_List_node@P6AXPEAVNodeHandle@roswrap@@PEBUPointCloud2withEcho@sick_scan_xd@@@ZPEAX@std@@@std@@V?$_List_val@U?$_List_simple_types@P6AXPEAVNodeHandle@roswrap@@PEBUPointCloud2withEcho@sick_scan_xd@@@Z@std@@@2@$00@std@@QEAA@U_One_then_variadic_args_t@1@$$QEAV?$allocator@U?$_List_node@P6AXPEAVNodeHandle@roswrap@@PEBUPointCloud2withEcho@sick_scan_xd@@@ZPEAX@std@@@1@@Z
	??$?0V?$allocator@U?$_List_node@P6AXPEAVNodeHandle@roswrap@@PEBVNAV350mNPOSData@sick_scan_xd@@@ZPEAX@std@@@std@@$$V@?$_Compressed_pair@V?$allocator@U?$_List_node@P6AXPEAVNodeHandle@roswrap@@PEBVNAV350mNPOSData@sick_scan_xd@@@ZPEAX@std@@@std@@V?$_List_val@U?$_List_simple_types@P6AXPEAVNodeHandle@roswrap@@PEBVNAV350mNPOSData@sick_scan_xd@@@Z@std@@@2@$00@std@@QEAA@U_One_then_variadic_args_t@1@$$QEAV?$allocator@U?$_List_node@P6AXPEAVNodeHandle@roswrap@@PEBVNAV350mNPOSData@sick_scan_xd@@@ZPEAX@std@@@1@@Z
	??$?0V?$allocator@U?$_List_node@P6AXPEAXPEBUSickScanDiagnosticMsgType@@@ZPEAX@std@@@std@@$$V@?$_Compressed_pair@V?$allocator@U?$_List_node@P6AXPEAXPEBUSickScanDiagnosticMsgType@@@ZPEAX@std@@@std@@V?$_List_val@U?$_List_simple_types@P6AXPEAXPEBUSickScanDiagnosticMsgType@@@Z@std@@@2@$00@std@@QEAA@U_One_then_variadic_args_t@1@$$QEAV?$allocator@U?$_List_node@P6AXPEAXPEBUSickScanDiagnosticMsgType@@@ZPEAX@std@@@1@@Z
	??$?0V?$allocator@U?$_List_node@P6AXPEAXPEBUSickScanImuMsgType@@@ZPEAX@std@@@std@@$$V@?$_Compressed_pair@V?$allocator@U?$_List_node@P6AXPEAXPEBUSickScanImuMsgType@@@ZPEAX@std@@@std@@V?$_List_val@U?$_List_simple_types@P6AXPEAXPEBUSickScanImuMsgType@@@Z@std@@@2@$00@std@@QEAA@U_One_then_variadic_args_t@1@$$QEAV?$allocator@U?$_List_node@P6AXPEAXPEBUSickScanImuMsgType@@@ZPEAX@std@@@1@@Z
	??$?0V?$allocator@U?$_List_node@P6AXPEAXPEBUSickScanLFErecMsgType@@@ZPEAX@std@@@std@@$$V@?$_Compressed_pair@V?$allocator@U?$_List_node@P6AXPEAXPEBUSickScanLFErecMsgType@@@ZPEAX@std@@@std@@V?$_List_val@U?$_List_simple_types@P6AXPEAXPEBUSickScanLFErecMsgType@@@Z@std@@@2@$00@std@@QEAA@U_One_then_variadic_args_t@1@$$QEAV?$allocator@U?$_List_node@P6AXPEAXPEBUSickScanLFErecMsgType@@@ZPEAX@std@@@1@@Z
	??$?0V?$allocator@U?$_List_node@P6AXPEAXPEBUSickScanLIDoutputstateMsgType@@@ZPEAX@std@@@std@@$$V@?$_Compressed_pair@V?$allocator@U?$_List_node@P6AXPEAXPEBUSickScanLIDoutputstateMsgType@@@ZPEAX@std@@@std@@V?$_List_val@U?$_List_simple_types@P6AXPEAXPEBUSickScanLIDoutputstateMsgType@@@Z@std@@@2@$00@std@@QEAA@U_One_then_variadic_args_t@1@$$QEAV?$allocator@U?$_List_node@P6AXPEAXPEBUSickScanLIDoutputstateMsgType@@@ZPEAX@std@@@1@@Z
	??$?0V?$allocator@U?$_List_node@P6AXPEAXPEBUSickScanLdmrsObjectArrayType@@@ZPEAX@std@@@std@@$$V@?$_Compressed_pair@V?$allocator@U?$_List_node@P6AXPEAXPEBUSickScanLdmrsObjectArrayType@@@ZPEAX@std@@@std@@V?$_List_val@U?$_List_simple_types@P6AXPEAXPEBUSickScanLdmrsObjectArrayType@@@Z@std@@@2@$00@std@@QEAA@U_One_then_variadic_args_t@1@$$QEAV?$allocator@U?$_List_node@P6AXPEAXPEBUSickScanLdmrsObjectArrayType@@@ZPEAX@std@@@1@@Z
	??$?0V?$allocator@U?$_List_node@P6AXPEAXPEBUSickScanLogMsgType@@@ZPEAX@std@@@std@@$$V@?$_Compressed_pair@V?$allocator@U?$_List_node@P6AXPEAXPEBUSickScanLogMsgType@@@ZPEAX@std@@@std@@V?$_List_val@U?$_List_simple_types@P6AXPEAXPEBUSickScanLogMsgType@@@Z@std@@@2@$00@std@@QEAA@U_One_then_variadic_args_t@1@$$QEAV?$allocator@U?$_List_node@P6AXPEAXPEBUSickScanLogMsgType@@@ZPEAX@std@@@1@@Z
	??$?0V?$allocator@U?$_List_node@P6AXPEAXPEBUSickScanNavPoseLandmarkMsgType@@@ZPEAX@std@@@std@@$$V@?$_Compressed_pair@V?$allocator@U?$_List_node@P6AXPEAXPEBUSickScanNavPoseLandmarkMsgType@@@ZPEAX@std@@@std@@V?$_List_val@U?$_List_simple_types@P6AXPEAXPEBUSickScanNavPoseLandmarkMsgType@@@Z@std@@@2@$00@std@@QEAA@U_One_then_variadic_args_t@1@$$QEAV?$allocator@U?$_List_node@P6AXPEAXPEBUSickScanNavPoseLandmarkMsgType@@@ZPEAX@std@@@1@@Z
	??$?0V?$allocator@U?$_List_node@P6AXPEAXPEBUSickScanPointCloudMsgType@@@ZPEAX@std@@@std@@$$V@?$_Compressed_pair@V?$allocator@U?$_List_node@P6AXPEAXPEBUSickScanPointCloudMsgType@@@ZPEAX@std@@@std@@V?$_List_val@U?$_List_simple_types@P6AXPEAXPEBUSickScanPointCloudMsgType@@@Z@std@@@2@$00@std@@QEAA@U_One_then_variadic_args_t@1@$$QEAV?$allocator@U?$_List_node@P6AXPEAXPEBUSickScanPointCloudMsgType@@@ZPEAX@std@@@1@@Z
	??$?0V?$allocator@U?$_List_node@P6AXPEAXPEBUSickScanRadarScanType@@@ZPEAX@std@@@std@@$$V@?$_Compressed_pair@V?$allocator@U?$_List_node@P6AXPEAXPEBUSickScanRadarScanType@@@ZPEAX@std@@@std@@V?$_List_val@U?$_List_simple_types@P6AXPEAXPEBUSickScanRadarScanType@@@Z@std@@@2@$00@std@@QEAA@U_One_then_variadic_args_t@1@$$QEAV?$allocator@U?$_List_node@P6AXPEAXPEBUSickScanRadarScanType@@@ZPEAX@std@@@1@@Z
	??$?0V?$allocator@U?$_List_node@P6AXPEAXPEBUSickScanVisualizationMarkerMsgType@@@ZPEAX@std@@@std@@$$V@?$_Compressed_pair@V?$allocator@U?$_List_node@P6AXPEAXPEBUSickScanVisualizationMarkerMsgType@@@ZPEAX@std@@@std@@V?$_List_val@U?$_List_simple_types@P6AXPEAXPEBUSickScanVisualizationMarkerMsgType@@@Z@std@@@2@$00@std@@QEAA@U_One_then_variadic_args_t@1@$$QEAV?$allocator@U?$_List_node@P6AXPEAXPEBUSickScanVisualizationMarkerMsgType@@@ZPEAX@std@@@1@@Z
	??$?0V?$allocator@U?$_List_node@PEAVMsgPackExportListenerIF@sick_scansegment_xd@@PEAX@std@@@std@@$$V@?$_Compressed_pair@V?$allocator@U?$_List_node@PEAVMsgPackExportListenerIF@sick_scansegment_xd@@PEAX@std@@@std@@V?$_List_val@U?$_List_simple_types@PEAVMsgPackExportListenerIF@sick_scansegment_xd@@@std@@@2@$00@std@@QEAA@U_One_then_variadic_args_t@1@$$QEAV?$allocator@U?$_List_node@PEAVMsgPackExportListenerIF@sick_scansegment_xd@@PEAX@std@@@1@@Z
	??$?0V?$allocator@U?$_Tree_node@U?$pair@$$CBC_N@std@@PEAX@std@@@std@@$$V@?$_Compressed_pair@V?$allocator@U?$_Tree_node@U?$pair@$$CBC_N@std@@PEAX@std@@@std@@V?$_Tree_val@U?$_Tree_simple_types@U?$pair@$$CBC_N@std@@@std@@@2@$00@std@@QEAA@U_One_then_variadic_args_t@1@$$QEAV?$allocator@U?$_Tree_node@U?$pair@$$CBC_N@std@@PEAX@std@@@1@@Z
	??$?0V?$allocator@U?$_Tree_node@U?$pair@$$CBC_N@std@@PEAX@std@@@std@@@?$_Tree@V?$_Tmap_traits@C_NU?$less@C@std@@V?$allocator@U?$pair@$$CBC_N@std@@@2@$0A@@std@@@std@@QEAA@AEBV01@$$QEAV?$allocator@U?$_Tree_node@U?$pair@$$CBC_N@std@@PEAX@std@@@1@@Z
	??$?0V?$allocator@U?$_Tree_node@U?$pair@$$CBHH@std@@PEAX@std@@@std@@$$V@?$_Compressed_pair@V?$allocator@U?$_Tree_node@U?$pair@$$CBHH@std@@PEAX@std@@@std@@V?$_Tree_val@U?$_Tree_simple_types@U?$pair@$$CBHH@std@@@std@@@2@$00@std@@QEAA@U_One_then_variadic_args_t@1@$$QEAV?$allocator@U?$_Tree_node@U?$pair@$$CBHH@std@@PEAX@std@@@1@@Z
	??$?0V?$allocator@U?$_Tree_node@U?$pair@$$CBHH@std@@PEAX@std@@@std@@@?$_Tree@V?$_Tmap_traits@HHU?$less@H@std@@V?$allocator@U?$pair@$$CBHH@std@@@2@$0A@@std@@@std@@QEAA@AEBV01@$$QEAV?$allocator@U?$_Tree_node@U?$pair@$$CBHH@std@@PEAX@std@@@1@@Z
	??$?0V?$allocator@U?$_Tree_node@U?$pair@$$CBHV?$map@HHU?$less@H@std@@V?$allocator@U?$pair@$$CBHH@std@@@2@@std@@@std@@PEAX@std@@@std@@$$V@?$_Compressed_pair@V?$allocator@U?$_Tree_node@U?$pair@$$CBHV?$map@HHU?$less@H@std@@V?$allocator@U?$pair@$$CBHH@std@@@2@@std@@@std@@PEAX@std@@@std@@V?$_Tree_val@U?$_Tree_simple_types@U?$pair@$$CBHV?$map@HHU?$less@H@std@@V?$allocator@U?$pair@$$CBHH@std@@@2@@std@@@std@@@std@@@2@$00@std@@QEAA@U_One_then_variadic_args_t@1@$$QEAV?$allocator@U?$_Tree_node@U?$pair@$$CBHV?$map@HHU?$less@H@std@@V?$allocator@U?$pair@$$CBHH@std@@@2@@std@@@std@@PEAX@std@@@1@@Z
	??$?0V?$allocator@U?$_Tree_node@U?$pair@$$CBHV?$map@HHU?$less@H@std@@V?$allocator@U?$pair@$$CBHH@std@@@2@@std@@@std@@PEAX@std@@@std@@@?$_Tree@V?$_Tmap_traits@HV?$map@HHU?$less@H@std@@V?$allocator@U?$pair@$$CBHH@std@@@2@@std@@U?$less@H@2@V?$allocator@U?$pair@$$CBHV?$map@HHU?$less@H@std@@V?$allocator@U?$pair@$$CBHH@std@@@2@@std@@@std@@@2@$0A@@std@@@std@@QEAA@AEBV01@$$QEAV?$allocator@U?$_Tree_node@U?$pair@$$CBHV?$map@HHU?$less@H@std@@V?$allocator@U?$pair@$$CBHH@std@@@2@@std@@@std@@PEAX@std@@@1@@Z
	??$?0V?$allocator@U?$_Tree_node@U?$pair@$$CBHV?$map@HV?$map@HHU?$less@H@std@@V?$allocator@U?$pair@$$CBHH@std@@@2@@std@@U?$less@H@2@V?$allocator@U?$pair@$$CBHV?$map@HHU?$less@H@std@@V?$allocator@U?$pair@$$CBHH@std@@@2@@std@@@std@@@2@@std@@@std@@PEAX@std@@@std@@$$V@?$_Compressed_pair@V?$allocator@U?$_Tree_node@U?$pair@$$CBHV?$map@HV?$map@HHU?$less@H@std@@V?$allocator@U?$pair@$$CBHH@std@@@2@@std@@U?$less@H@2@V?$allocator@U?$pair@$$CBHV?$map@HHU?$less@H@std@@V?$allocator@U?$pair@$$CBHH@std@@@2@@std@@@std@@@2@@std@@@std@@PEAX@std@@@std@@V?$_Tree_val@U?$_Tree_simple_types@U?$pair@$$CBHV?$map@HV?$map@HHU?$less@H@std@@V?$allocator@U?$pair@$$CBHH@std@@@2@@std@@U?$less@H@2@V?$allocator@U?$pair@$$CBHV?$map@HHU?$less@H@std@@V?$allocator@U?$pair@$$CBHH@std@@@2@@std@@@std@@@2@@std@@@std@@@std@@@2@$00@std@@QEAA@U_One_then_variadic_args_t@1@$$QEAV?$allocator@U?$_Tree_node@U?$pair@$$CBHV?$map@HV?$map@HHU?$less@H@std@@V?$allocator@U?$pair@$$CBHH@std@@@2@@std@@U?$less@H@2@V?$allocator@U?$pair@$$CBHV?$map@HHU?$less@H@std@@V?$allocator@U?$pair@$$CBHH@std@@@2@@std@@@std@@@2@@std@@@std@@PEAX@std@@@1@@Z
	??$?0V?$allocator@U?$_Tree_node@U?$pair@$$CBHV?$map@HV?$map@HHU?$less@H@std@@V?$allocator@U?$pair@$$CBHH@std@@@2@@std@@U?$less@H@2@V?$allocator@U?$pair@$$CBHV?$map@HHU?$less@H@std@@V?$allocator@U?$pair@$$CBHH@std@@@2@@std@@@std@@@2@@std@@@std@@PEAX@std@@@std@@@?$_Tree@V?$_Tmap_traits@HV?$map@HV?$map@HHU?$less@H@std@@V?$allocator@U?$pair@$$CBHH@std@@@2@@std@@U?$less@H@2@V?$allocator@U?$pair@$$CBHV?$map@HHU?$less@H@std@@V?$allocator@U?$pair@$$CBHH@std@@@2@@std@@@std@@@2@@std@@U?$less@H@2@V?$allocator@U?$pair@$$CBHV?$map@HV?$map@HHU?$less@H@std@@V?$allocator@U?$pair@$$CBHH@std@@@2@@std@@U?$less@H@2@V?$allocator@U?$pair@$$CBHV?$map@HHU?$less@H@std@@V?$allocator@U?$pair@$$CBHH@std@@@2@@std@@@std@@@2@@std@@@std@@@2@$0A@@std@@@std@@QEAA@AEBV01@$$QEAV?$allocator@U?$_Tree_node@U?$pair@$$CBHV?$map@HV?$map@HHU?$less@H@std@@V?$allocator@U?$pair@$$CBHH@std@@@2@@std@@U?$less@H@2@V?$allocator@U?$pair@$$CBHV?$map@HHU?$less@H@std@@V?$allocator@U?$pair@$$CBHH@std@@@2@@std@@@std@@@2@@std@@@std@@PEAX@std@@@1@@Z
	??$?0V?$allocator@U?$_Tree_node@U?$pair@$$CBV?$basic_string@DU?$char_traits@D@std@@V?$allocator@D@2@@std@@_N@std@@PEAX@std@@@std@@$$V@?$_Compressed_pair@V?$allocator@U?$_Tree_node@U?$pair@$$CBV?$basic_string@DU?$char_traits@D@std@@V?$allocator@D@2@@std@@_N@std@@PEAX@std@@@std@@V?$_Tree_val@U?$_Tree_simple_types@U?$pair@$$CBV?$basic_string@DU?$char_traits@D@std@@V?$allocator@D@2@@std@@_N@std@@@std@@@2@$00@std@@QEAA@U_One_then_variadic_args_t@1@$$QEAV?$allocator@U?$_Tree_node@U?$pair@$$CBV?$basic_string@DU?$char_traits@D@std@@V?$allocator@D@2@@std@@_N@std@@PEAX@std@@@1@@Z
	??$?0V?$allocator@U?$_Tree_node@U?$pair@$$CBV?$basic_string@DU?$char_traits@D@std@@V?$allocator@D@2@@std@@_N@std@@PEAX@std@@@std@@@?$_Tree@V?$_Tmap_traits@V?$basic_string@DU?$char_traits@D@std@@V?$allocator@D@2@@std@@_NU?$less@V?$basic_string@DU?$char_traits@D@std@@V?$allocator@D@2@@std@@@2@V?$allocator@U?$pair@$$CBV?$basic_string@DU?$char_traits@D@std@@V?$allocator@D@2@@std@@_N@std@@@2@$0A@@std@@@std@@QEAA@AEBV01@$$QEAV?$allocator@U?$_Tree_node@U?$pair@$$CBV?$basic_string@DU?$char_traits@D@std@@V?$allocator@D@2@@std@@_N@std@@PEAX@std@@@1@@Z
	??$?0V?$allocator@U?$_Tree_node@U?$pair@$$CBVMsgPack@msgpack11@@V12@@std@@PEAX@std@@@std@@$$V@?$_Compressed_pair@V?$allocator@U?$_Tree_node@U?$pair@$$CBVMsgPack@msgpack11@@V12@@std@@PEAX@std@@@std@@V?$_Tree_val@U?$_Tree_simple_types@U?$pair@$$CBVMsgPack@msgpack11@@V12@@std@@@std@@@2@$00@std@@QEAA@U_One_then_variadic_args_t@1@$$QEAV?$allocator@U?$_Tree_node@U?$pair@$$CBVMsgPack@msgpack11@@V12@@std@@PEAX@std@@@1@@Z
	??$?0V?$allocator@U?$_Tree_node@U?$pair@$$CBVMsgPack@msgpack11@@V12@@std@@PEAX@std@@@std@@@?$_Tree@V?$_Tmap_traits@VMsgPack@msgpack11@@V12@U?$less@VMsgPack@msgpack11@@@std@@V?$allocator@U?$pair@$$CBVMsgPack@msgpack11@@V12@@std@@@4@$0A@@std@@@std@@QEAA@AEBV01@$$QEAV?$allocator@U?$_Tree_node@U?$pair@$$CBVMsgPack@msgpack11@@V12@@std@@PEAX@std@@@1@@Z
	??$?0V?$allocator@V?$basic_string@DU?$char_traits@D@std@@V?$allocator@D@2@@std@@@std@@$$V@?$_Compressed_pair@V?$allocator@V?$basic_string@DU?$char_traits@D@std@@V?$allocator@D@2@@std@@@std@@V?$_Vector_val@U?$_Simple_types@V?$basic_string@DU?$char_traits@D@std@@V?$allocator@D@2@@std@@@std@@@2@$00@std@@QEAA@U_One_then_variadic_args_t@1@$$QEAV?$allocator@V?$basic_string@DU?$char_traits@D@std@@V?$allocator@D@2@@std@@@1@@Z
	??$?0V?$allocator@V?$basic_string@DU?$char_traits@D@std@@V?$allocator@D@2@@std@@@std@@PEAV?$basic_string@DU?$char_traits@D@std@@V?$allocator@D@2@@1@PEAV21@PEAV21@@?$_Compressed_pair@V?$allocator@V?$basic_string@DU?$char_traits@D@std@@V?$allocator@D@2@@std@@@std@@V?$_Vector_val@U?$_Simple_types@V?$basic_string@DU?$char_traits@D@std@@V?$allocator@D@2@@std@@@std@@@2@$00@std@@QEAA@U_One_then_variadic_args_t@1@$$QEAV?$allocator@V?$basic_string@DU?$char_traits@D@std@@V?$allocator@D@2@@std@@@1@$$QEAPEAV?$basic_string@DU?$char_traits@D@std@@V?$allocator@D@2@@1@22@Z
	??$?0V?$allocator@VLidarPoint@ScanSegmentParserOutput@sick_scansegment_xd@@@std@@$$V@?$_Compressed_pair@V?$allocator@VLidarPoint@ScanSegmentParserOutput@sick_scansegment_xd@@@std@@V?$_Vector_val@U?$_Simple_types@VLidarPoint@ScanSegmentParserOutput@sick_scansegment_xd@@@std@@@2@$00@std@@QEAA@U_One_then_variadic_args_t@1@$$QEAV?$allocator@VLidarPoint@ScanSegmentParserOutput@sick_scansegment_xd@@@1@@Z
	??$?0V?$allocator@VLidarPoint@ScanSegmentParserOutput@sick_scansegment_xd@@@std@@PEAVLidarPoint@ScanSegmentParserOutput@sick_scansegment_xd@@PEAV234@PEAV234@@?$_Compressed_pair@V?$allocator@VLidarPoint@ScanSegmentParserOutput@sick_scansegment_xd@@@std@@V?$_Vector_val@U?$_Simple_types@VLidarPoint@ScanSegmentParserOutput@sick_scansegment_xd@@@std@@@2@$00@std@@QEAA@U_One_then_variadic_args_t@1@$$QEAV?$allocator@VLidarPoint@ScanSegmentParserOutput@sick_scansegment_xd@@@1@$$QEAPEAVLidarPoint@ScanSegmentParserOutput@sick_scansegment_xd@@22@Z
	??$?0V?$allocator@VMsgPack@msgpack11@@@std@@$$V@?$_Compressed_pair@V?$allocator@VMsgPack@msgpack11@@@std@@V?$_Vector_val@U?$_Simple_types@VMsgPack@msgpack11@@@std@@@2@$00@std@@QEAA@U_One_then_variadic_args_t@1@$$QEAV?$allocator@VMsgPack@msgpack11@@@1@@Z
	??$?0V?$allocator@VMsgPack@msgpack11@@@std@@PEAVMsgPack@msgpack11@@PEAV23@PEAV23@@?$_Compressed_pair@V?$allocator@VMsgPack@msgpack11@@@std@@V?$_Vector_val@U?$_Simple_types@VMsgPack@msgpack11@@@std@@@2@$00@std@@QEAA@U_One_then_variadic_args_t@1@$$QEAV?$allocator@VMsgPack@msgpack11@@@1@$$QEAPEAVMsgPack@msgpack11@@22@Z
	??$?0V?$allocator@VNAV350ImkLandmark@sick_scan_xd@@@std@@PEAVNAV350ImkLandmark@sick_scan_xd@@PEAV23@PEAV23@@?$_Compressed_pair@V?$allocator@VNAV350ImkLandmark@sick_scan_xd@@@std@@V?$_Vector_val@U?$_Simple_types@VNAV350ImkLandmark@sick_scan_xd@@@std@@@2@$00@std@@QEAA@U_One_then_variadic_args_t@1@$$QEAV?$allocator@VNAV350ImkLandmark@sick_scan_xd@@@1@$$QEAPEAVNAV350ImkLandmark@sick_scan_xd@@22@Z
	??$?0V?$allocator@VPointXYZRAEI32f@sick_scansegment_xd@@@std@@PEAVPointXYZRAEI32f@sick_scansegment_xd@@PEAV23@PEAV23@@?$_Compressed_pair@V?$allocator@VPointXYZRAEI32f@sick_scansegment_xd@@@std@@V?$_Vector_val@U?$_Simple_types@VPointXYZRAEI32f@sick_scansegment_xd@@@std@@@2@$00@std@@QEAA@U_One_then_variadic_args_t@1@$$QEAV?$allocator@VPointXYZRAEI32f@sick_scansegment_xd@@@1@$$QEAPEAVPointXYZRAEI32f@sick_scansegment_xd@@22@Z
	??$?0V?$allocator@VRadarDatagramField@sick_scan_xd@@@std@@PEAVRadarDatagramField@sick_scan_xd@@PEAV23@PEAV23@@?$_Compressed_pair@V?$allocator@VRadarDatagramField@sick_scan_xd@@@std@@V?$_Vector_val@U?$_Simple_types@VRadarDatagramField@sick_scan_xd@@@std@@@2@$00@std@@QEAA@U_One_then_variadic_args_t@1@$$QEAV?$allocator@VRadarDatagramField@sick_scan_xd@@@1@$$QEAPEAVRadarDatagramField@sick_scan_xd@@22@Z
	??$?0V?$allocator@VScangroup@ScanSegmentParserOutput@sick_scansegment_xd@@@std@@$$V@?$_Compressed_pair@V?$allocator@VScangroup@ScanSegmentParserOutput@sick_scansegment_xd@@@std@@V?$_Vector_val@U?$_Simple_types@VScangroup@ScanSegmentParserOutput@sick_scansegment_xd@@@std@@@2@$00@std@@QEAA@U_One_then_variadic_args_t@1@$$QEAV?$allocator@VScangroup@ScanSegmentParserOutput@sick_scansegment_xd@@@1@@Z
	??$?0V?$allocator@VScangroup@ScanSegmentParserOutput@sick_scansegment_xd@@@std@@PEAVScangroup@ScanSegmentParserOutput@sick_scansegment_xd@@PEAV234@PEAV234@@?$_Compressed_pair@V?$allocator@VScangroup@ScanSegmentParserOutput@sick_scansegment_xd@@@std@@V?$_Vector_val@U?$_Simple_types@VScangroup@ScanSegmentParserOutput@sick_scansegment_xd@@@std@@@2@$00@std@@QEAA@U_One_then_variadic_args_t@1@$$QEAV?$allocator@VScangroup@ScanSegmentParserOutput@sick_scansegment_xd@@@1@$$QEAPEAVScangroup@ScanSegmentParserOutput@sick_scansegment_xd@@22@Z
	??$?0V?$allocator@VScanline@ScanSegmentParserOutput@sick_scansegment_xd@@@std@@$$V@?$_Compressed_pair@V?$allocator@VScanline@ScanSegmentParserOutput@sick_scansegment_xd@@@std@@V?$_Vector_val@U?$_Simple_types@VScanline@ScanSegmentParserOutput@sick_scansegment_xd@@@std@@@2@$00@std@@QEAA@U_One_then_variadic_args_t@1@$$QEAV?$allocator@VScanline@ScanSegmentParserOutput@sick_scansegment_xd@@@1@@Z
	??$?0V?$allocator@VScanline@ScanSegmentParserOutput@sick_scansegment_xd@@@std@@PEAVScanline@ScanSegmentParserOutput@sick_scansegment_xd@@PEAV234@PEAV234@@?$_Compressed_pair@V?$allocator@VScanline@ScanSegmentParserOutput@sick_scansegment_xd@@@std@@V?$_Vector_val@U?$_Simple_types@VScanline@ScanSegmentParserOutput@sick_scansegment_xd@@@std@@@2@$00@std@@QEAA@U_One_then_variadic_args_t@1@$$QEAV?$allocator@VScanline@ScanSegmentParserOutput@sick_scansegment_xd@@@1@$$QEAPEAVScanline@ScanSegmentParserOutput@sick_scansegment_xd@@22@Z
	??$?0V?$allocator@VparamEntryAscii@@@std@@PEAVparamEntryAscii@@PEAV2@PEAV2@@?$_Compressed_pair@V?$allocator@VparamEntryAscii@@@std@@V?$_Vector_val@U?$_Simple_types@VparamEntryAscii@@@std@@@2@$00@std@@QEAA@U_One_then_variadic_args_t@1@$$QEAV?$allocator@VparamEntryAscii@@@1@$$QEAPEAVparamEntryAscii@@22@Z
	??$?0V?$allocator@_K@std@@$$V@?$_Compressed_pair@V?$allocator@_K@std@@V?$_Vector_val@U?$_Simple_types@_K@std@@@2@$00@std@@QEAA@U_One_then_variadic_args_t@1@$$QEAV?$allocator@_K@1@@Z
	??$?0V?$allocator@_K@std@@PEA_KPEA_KPEA_K@?$_Compressed_pair@V?$allocator@_K@std@@V?$_Vector_val@U?$_Simple_types@_K@std@@@2@$00@std@@QEAA@U_One_then_variadic_args_t@1@$$QEAV?$allocator@_K@1@$$QEAPEA_K22@Z
	??$?0V?$basic_string@DU?$char_traits@D@std@@V?$allocator@D@2@@std@@$$V$0A@@?$tuple@$$QEAV?$basic_string@DU?$char_traits@D@std@@V?$allocator@D@2@@std@@@std@@QEAA@$$QEAV?$basic_string@DU?$char_traits@D@std@@V?$allocator@D@2@@1@@Z
	??$?0V?$basic_string@DU?$char_traits@D@std@@V?$allocator@D@2@@std@@@?$_Ref_count_obj2@VMsgPackString@msgpack11@@@std@@QEAA@$$QEAV?$basic_string@DU?$char_traits@D@std@@V?$allocator@D@2@@1@@Z
	??$?0V?$basic_string@DU?$char_traits@D@std@@V?$allocator@D@2@@std@@@?$_Tuple_val@$$QEAV?$basic_string@DU?$char_traits@D@std@@V?$allocator@D@2@@std@@@std@@QEAA@$$QEAV?$basic_string@DU?$char_traits@D@std@@V?$allocator@D@2@@1@@Z
	??$?0V?$basic_string@DU?$char_traits@D@std@@V?$allocator@D@2@@std@@@?$allocator@U_Container_proxy@std@@@std@@QEAA@AEBV?$allocator@V?$basic_string@DU?$char_traits@D@std@@V?$allocator@D@2@@std@@@1@@Z
	??$?0V?$istreambuf_iterator@DU?$char_traits@D@std@@@std@@$0A@@?$vector@EV?$allocator@E@std@@@std@@QEAA@V?$istreambuf_iterator@DU?$char_traits@D@std@@@1@0AEBV?$allocator@E@1@@Z
	??$?0V?$map@VMsgPack@msgpack11@@V12@U?$less@VMsgPack@msgpack11@@@std@@V?$allocator@U?$pair@$$CBVMsgPack@msgpack11@@V12@@std@@@4@@std@@@?$_Ref_count_obj2@VMsgPackObject@msgpack11@@@std@@QEAA@$$QEAV?$map@VMsgPack@msgpack11@@V12@U?$less@VMsgPack@msgpack11@@@std@@V?$allocator@U?$pair@$$CBVMsgPack@msgpack11@@V12@@std@@@4@@1@@Z
	??$?0V?$reference_wrapper@$$CBU?$Imu_@V?$allocator@X@std@@@sensor_msgs@@@std@@$$V$0A@@?$tuple@V?$reference_wrapper@$$CBU?$Imu_@V?$allocator@X@std@@@sensor_msgs@@@std@@@std@@QEAA@$$QEAV?$reference_wrapper@$$CBU?$Imu_@V?$allocator@X@std@@@sensor_msgs@@@1@@Z
	??$?0V?$reference_wrapper@$$CBU?$Imu_@V?$allocator@X@std@@@sensor_msgs@@@std@@@?$_Tuple_val@V?$reference_wrapper@$$CBU?$Imu_@V?$allocator@X@std@@@sensor_msgs@@@std@@@std@@QEAA@$$QEAV?$reference_wrapper@$$CBU?$Imu_@V?$allocator@X@std@@@sensor_msgs@@@1@@Z
	??$?0V?$reference_wrapper@$$CBU?$LFErecMsg_@V?$allocator@X@std@@@sick_scan_xd@@@std@@$$V$0A@@?$tuple@V?$reference_wrapper@$$CBU?$LFErecMsg_@V?$allocator@X@std@@@sick_scan_xd@@@std@@@std@@QEAA@$$QEAV?$reference_wrapper@$$CBU?$LFErecMsg_@V?$allocator@X@std@@@sick_scan_xd@@@1@@Z
	??$?0V?$reference_wrapper@$$CBU?$LFErecMsg_@V?$allocator@X@std@@@sick_scan_xd@@@std@@@?$_Tuple_val@V?$reference_wrapper@$$CBU?$LFErecMsg_@V?$allocator@X@std@@@sick_scan_xd@@@std@@@std@@QEAA@$$QEAV?$reference_wrapper@$$CBU?$LFErecMsg_@V?$allocator@X@std@@@sick_scan_xd@@@1@@Z
	??$?0V?$reference_wrapper@$$CBU?$LIDinputstateMsg_@V?$allocator@X@std@@@sick_scan_xd@@@std@@$$V$0A@@?$tuple@V?$reference_wrapper@$$CBU?$LIDinputstateMsg_@V?$allocator@X@std@@@sick_scan_xd@@@std@@@std@@QEAA@$$QEAV?$reference_wrapper@$$CBU?$LIDinputstateMsg_@V?$allocator@X@std@@@sick_scan_xd@@@1@@Z
	??$?0V?$reference_wrapper@$$CBU?$LIDinputstateMsg_@V?$allocator@X@std@@@sick_scan_xd@@@std@@@?$_Tuple_val@V?$reference_wrapper@$$CBU?$LIDinputstateMsg_@V?$allocator@X@std@@@sick_scan_xd@@@std@@@std@@QEAA@$$QEAV?$reference_wrapper@$$CBU?$LIDinputstateMsg_@V?$allocator@X@std@@@sick_scan_xd@@@1@@Z
	??$?0V?$reference_wrapper@$$CBU?$LIDoutputstateMsg_@V?$allocator@X@std@@@sick_scan_xd@@@std@@$$V$0A@@?$tuple@V?$reference_wrapper@$$CBU?$LIDoutputstateMsg_@V?$allocator@X@std@@@sick_scan_xd@@@std@@@std@@QEAA@$$QEAV?$reference_wrapper@$$CBU?$LIDoutputstateMsg_@V?$allocator@X@std@@@sick_scan_xd@@@1@@Z
	??$?0V?$reference_wrapper@$$CBU?$LIDoutputstateMsg_@V?$allocator@X@std@@@sick_scan_xd@@@std@@@?$_Tuple_val@V?$reference_wrapper@$$CBU?$LIDoutputstateMsg_@V?$allocator@X@std@@@sick_scan_xd@@@std@@@std@@QEAA@$$QEAV?$reference_wrapper@$$CBU?$LIDoutputstateMsg_@V?$allocator@X@std@@@sick_scan_xd@@@1@@Z
	??$?0V?$reference_wrapper@$$CBU?$MarkerArray_@V?$allocator@X@std@@@visualization_msgs@@@std@@$$V$0A@@?$tuple@V?$reference_wrapper@$$CBU?$MarkerArray_@V?$allocator@X@std@@@visualization_msgs@@@std@@@std@@QEAA@$$QEAV?$reference_wrapper@$$CBU?$MarkerArray_@V?$allocator@X@std@@@visualization_msgs@@@1@@Z
	??$?0V?$reference_wrapper@$$CBU?$MarkerArray_@V?$allocator@X@std@@@visualization_msgs@@@std@@@?$_Tuple_val@V?$reference_wrapper@$$CBU?$MarkerArray_@V?$allocator@X@std@@@visualization_msgs@@@std@@@std@@QEAA@$$QEAV?$reference_wrapper@$$CBU?$MarkerArray_@V?$allocator@X@std@@@visualization_msgs@@@1@@Z
	??$?0V?$reference_wrapper@$$CBU?$NAVLandmarkData_@V?$allocator@X@std@@@sick_scan_xd@@@std@@$$V$0A@@?$tuple@V?$reference_wrapper@$$CBU?$NAVLandmarkData_@V?$allocator@X@std@@@sick_scan_xd@@@std@@@std@@QEAA@$$QEAV?$reference_wrapper@$$CBU?$NAVLandmarkData_@V?$allocator@X@std@@@sick_scan_xd@@@1@@Z
	??$?0V?$reference_wrapper@$$CBU?$NAVLandmarkData_@V?$allocator@X@std@@@sick_scan_xd@@@std@@@?$_Tuple_val@V?$reference_wrapper@$$CBU?$NAVLandmarkData_@V?$allocator@X@std@@@sick_scan_xd@@@std@@@std@@QEAA@$$QEAV?$reference_wrapper@$$CBU?$NAVLandmarkData_@V?$allocator@X@std@@@sick_scan_xd@@@1@@Z
	??$?0V?$reference_wrapper@$$CBU?$NAVPoseData_@V?$allocator@X@std@@@sick_scan_xd@@@std@@$$V$0A@@?$tuple@V?$reference_wrapper@$$CBU?$NAVPoseData_@V?$allocator@X@std@@@sick_scan_xd@@@std@@@std@@QEAA@$$QEAV?$reference_wrapper@$$CBU?$NAVPoseData_@V?$allocator@X@std@@@sick_scan_xd@@@1@@Z
	??$?0V?$reference_wrapper@$$CBU?$NAVPoseData_@V?$allocator@X@std@@@sick_scan_xd@@@std@@@?$_Tuple_val@V?$reference_wrapper@$$CBU?$NAVPoseData_@V?$allocator@X@std@@@sick_scan_xd@@@std@@@std@@QEAA@$$QEAV?$reference_wrapper@$$CBU?$NAVPoseData_@V?$allocator@X@std@@@sick_scan_xd@@@1@@Z
	??$?0V?$reference_wrapper@$$CBU?$RadarScan_@V?$allocator@X@std@@@sick_scan_xd@@@std@@$$V$0A@@?$tuple@V?$reference_wrapper@$$CBU?$RadarScan_@V?$allocator@X@std@@@sick_scan_xd@@@std@@@std@@QEAA@$$QEAV?$reference_wrapper@$$CBU?$RadarScan_@V?$allocator@X@std@@@sick_scan_xd@@@1@@Z
	??$?0V?$reference_wrapper@$$CBU?$RadarScan_@V?$allocator@X@std@@@sick_scan_xd@@@std@@@?$_Tuple_val@V?$reference_wrapper@$$CBU?$RadarScan_@V?$allocator@X@std@@@sick_scan_xd@@@std@@@std@@QEAA@$$QEAV?$reference_wrapper@$$CBU?$RadarScan_@V?$allocator@X@std@@@sick_scan_xd@@@1@@Z
	??$?0V?$reference_wrapper@$$CBU?$String_@V?$allocator@X@std@@@std_msgs@@@std@@$$V$0A@@?$tuple@V?$reference_wrapper@$$CBU?$String_@V?$allocator@X@std@@@std_msgs@@@std@@@std@@QEAA@$$QEAV?$reference_wrapper@$$CBU?$String_@V?$allocator@X@std@@@std_msgs@@@1@@Z
	??$?0V?$reference_wrapper@$$CBU?$String_@V?$allocator@X@std@@@std_msgs@@@std@@@?$_Tuple_val@V?$reference_wrapper@$$CBU?$String_@V?$allocator@X@std@@@std_msgs@@@std@@@std@@QEAA@$$QEAV?$reference_wrapper@$$CBU?$String_@V?$allocator@X@std@@@std_msgs@@@1@@Z
	??$?0V?$tuple@$$QEAC@std@@V?$tuple@$$V@1@$0A@$$Z$S@?$pair@$$CBC_N@std@@QEAA@AEAV?$tuple@$$QEAC@1@AEAV?$tuple@$$V@1@U?$integer_sequence@_K$0A@@1@U?$integer_sequence@_K$S@1@@Z
	??$?0V?$tuple@$$QEAH@std@@V?$tuple@$$V@1@$0A@$$Z$S@?$pair@$$CBHH@std@@QEAA@AEAV?$tuple@$$QEAH@1@AEAV?$tuple@$$V@1@U?$integer_sequence@_K$0A@@1@U?$integer_sequence@_K$S@1@@Z
	??$?0V?$tuple@$$QEAH@std@@V?$tuple@$$V@1@$0A@$$Z$S@?$pair@$$CBHV?$map@HHU?$less@H@std@@V?$allocator@U?$pair@$$CBHH@std@@@2@@std@@@std@@QEAA@AEAV?$tuple@$$QEAH@1@AEAV?$tuple@$$V@1@U?$integer_sequence@_K$0A@@1@U?$integer_sequence@_K$S@1@@Z
	??$?0V?$tuple@$$QEAV?$basic_string@DU?$char_traits@D@std@@V?$allocator@D@2@@std@@@std@@V?$tuple@$$V@1@$0A@$$Z$S@?$pair@$$CBV?$basic_string@DU?$char_traits@D@std@@V?$allocator@D@2@@std@@H@std@@QEAA@AEAV?$tuple@$$QEAV?$basic_string@DU?$char_traits@D@std@@V?$allocator@D@2@@std@@@1@AEAV?$tuple@$$V@1@U?$integer_sequence@_K$0A@@1@U?$integer_sequence@_K$S@1@@Z
	??$?0V?$tuple@$$QEAV?$basic_string@DU?$char_traits@D@std@@V?$allocator@D@2@@std@@@std@@V?$tuple@$$V@1@$0A@$$Z$S@?$pair@$$CBV?$basic_string@DU?$char_traits@D@std@@V?$allocator@D@2@@std@@V12@@std@@QEAA@AEAV?$tuple@$$QEAV?$basic_string@DU?$char_traits@D@std@@V?$allocator@D@2@@std@@@1@AEAV?$tuple@$$V@1@U?$integer_sequence@_K$0A@@1@U?$integer_sequence@_K$S@1@@Z
	??$?0V?$tuple@$$QEAV?$basic_string@DU?$char_traits@D@std@@V?$allocator@D@2@@std@@@std@@V?$tuple@$$V@1@$0A@$$Z$S@?$pair@$$CBV?$basic_string@DU?$char_traits@D@std@@V?$allocator@D@2@@std@@V?$vector@V?$basic_string@DU?$char_traits@D@std@@V?$allocator@D@2@@std@@V?$allocator@V?$basic_string@DU?$char_traits@D@std@@V?$allocator@D@2@@std@@@2@@2@@std@@QEAA@AEAV?$tuple@$$QEAV?$basic_string@DU?$char_traits@D@std@@V?$allocator@D@2@@std@@@1@AEAV?$tuple@$$V@1@U?$integer_sequence@_K$0A@@1@U?$integer_sequence@_K$S@1@@Z
	??$?0V?$tuple@AEBE@std@@V?$tuple@$$V@1@$0A@$$Z$S@?$pair@$$CBEV?$basic_string@DU?$char_traits@D@std@@V?$allocator@D@2@@std@@@std@@QEAA@AEAV?$tuple@AEBE@1@AEAV?$tuple@$$V@1@U?$integer_sequence@_K$0A@@1@U?$integer_sequence@_K$S@1@@Z
	??$?0V?$tuple@AEBH@std@@V?$tuple@$$V@1@$0A@$$Z$S@?$pair@$$CBHH@std@@QEAA@AEAV?$tuple@AEBH@1@AEAV?$tuple@$$V@1@U?$integer_sequence@_K$0A@@1@U?$integer_sequence@_K$S@1@@Z
	??$?0V?$tuple@AEBH@std@@V?$tuple@$$V@1@$0A@$$Z$S@?$pair@$$CBHU?$LaserScan_@V?$allocator@X@std@@@sensor_msgs@@@std@@QEAA@AEAV?$tuple@AEBH@1@AEAV?$tuple@$$V@1@U?$integer_sequence@_K$0A@@1@U?$integer_sequence@_K$S@1@@Z
	??$?0V?$tuple@AEBH@std@@V?$tuple@$$V@1@$0A@$$Z$S@?$pair@$$CBHV?$map@HHU?$less@H@std@@V?$allocator@U?$pair@$$CBHH@std@@@2@@std@@@std@@QEAA@AEAV?$tuple@AEBH@1@AEAV?$tuple@$$V@1@U?$integer_sequence@_K$0A@@1@U?$integer_sequence@_K$S@1@@Z
	??$?0V?$tuple@AEBH@std@@V?$tuple@$$V@1@$0A@$$Z$S@?$pair@$$CBHV?$map@HU?$LaserScan_@V?$allocator@X@std@@@sensor_msgs@@U?$less@H@std@@V?$allocator@U?$pair@$$CBHU?$LaserScan_@V?$allocator@X@std@@@sensor_msgs@@@std@@@4@@std@@@std@@QEAA@AEAV?$tuple@AEBH@1@AEAV?$tuple@$$V@1@U?$integer_sequence@_K$0A@@1@U?$integer_sequence@_K$S@1@@Z
	??$?0V?$tuple@AEBH@std@@V?$tuple@$$V@1@$0A@$$Z$S@?$pair@$$CBHV?$map@HV?$map@HHU?$less@H@std@@V?$allocator@U?$pair@$$CBHH@std@@@2@@std@@U?$less@H@2@V?$allocator@U?$pair@$$CBHV?$map@HHU?$less@H@std@@V?$allocator@U?$pair@$$CBHH@std@@@2@@std@@@std@@@2@@std@@@std@@QEAA@AEAV?$tuple@AEBH@1@AEAV?$tuple@$$V@1@U?$integer_sequence@_K$0A@@1@U?$integer_sequence@_K$S@1@@Z
	??$?0V?$tuple@AEBH@std@@V?$tuple@$$V@1@$0A@$$Z$S@?$pair@$$CBHV?$map@HV?$map@HV?$map@HHU?$less@H@std@@V?$allocator@U?$pair@$$CBHH@std@@@2@@std@@U?$less@H@2@V?$allocator@U?$pair@$$CBHV?$map@HHU?$less@H@std@@V?$allocator@U?$pair@$$CBHH@std@@@2@@std@@@std@@@2@@std@@U?$less@H@2@V?$allocator@U?$pair@$$CBHV?$map@HV?$map@HHU?$less@H@std@@V?$allocator@U?$pair@$$CBHH@std@@@2@@std@@U?$less@H@2@V?$allocator@U?$pair@$$CBHV?$map@HHU?$less@H@std@@V?$allocator@U?$pair@$$CBHH@std@@@2@@std@@@std@@@2@@std@@@std@@@2@@std@@@std@@QEAA@AEAV?$tuple@AEBH@1@AEAV?$tuple@$$V@1@U?$integer_sequence@_K$0A@@1@U?$integer_sequence@_K$S@1@@Z
	??$?0V?$tuple@AEBH@std@@V?$tuple@$$V@1@$0A@$$Z$S@?$pair@$$CBHV?$time_point@Usystem_clock@chrono@std@@V?$duration@_JU?$ratio@$00$0JIJGIA@@std@@@23@@chrono@std@@@std@@QEAA@AEAV?$tuple@AEBH@1@AEAV?$tuple@$$V@1@U?$integer_sequence@_K$0A@@1@U?$integer_sequence@_K$S@1@@Z
	??$?0V?$tuple@AEBH@std@@V?$tuple@$$V@1@$0A@$$Z$S@?$pair@$$CBH_K@std@@QEAA@AEAV?$tuple@AEBH@1@AEAV?$tuple@$$V@1@U?$integer_sequence@_K$0A@@1@U?$integer_sequence@_K$S@1@@Z
	??$?0V?$tuple@AEBQEAVNodeHandle@roswrap@@@std@@V?$tuple@$$V@1@$0A@$$Z$S@?$pair@QEAVNodeHandle@roswrap@@V?$list@P6AXPEAVNodeHandle@roswrap@@PEBU?$Imu_@V?$allocator@X@std@@@sensor_msgs@@@ZV?$allocator@P6AXPEAVNodeHandle@roswrap@@PEBU?$Imu_@V?$allocator@X@std@@@sensor_msgs@@@Z@std@@@std@@@std@@QEAA@AEAV?$tuple@AEBQEAVNodeHandle@roswrap@@@1@AEAV?$tuple@$$V@1@U?$integer_sequence@_K$0A@@1@U?$integer_sequence@_K$S@1@@Z
	??$?0V?$tuple@AEBQEAVNodeHandle@roswrap@@@std@@V?$tuple@$$V@1@$0A@$$Z$S@?$pair@QEAVNodeHandle@roswrap@@V?$list@P6AXPEAVNodeHandle@roswrap@@PEBU?$LFErecMsg_@V?$allocator@X@std@@@sick_scan_xd@@@ZV?$allocator@P6AXPEAVNodeHandle@roswrap@@PEBU?$LFErecMsg_@V?$allocator@X@std@@@sick_scan_xd@@@Z@std@@@std@@@std@@QEAA@AEAV?$tuple@AEBQEAVNodeHandle@roswrap@@@1@AEAV?$tuple@$$V@1@U?$integer_sequence@_K$0A@@1@U?$integer_sequence@_K$S@1@@Z
	??$?0V?$tuple@AEBQEAVNodeHandle@roswrap@@@std@@V?$tuple@$$V@1@$0A@$$Z$S@?$pair@QEAVNodeHandle@roswrap@@V?$list@P6AXPEAVNodeHandle@roswrap@@PEBU?$LIDoutputstateMsg_@V?$allocator@X@std@@@sick_scan_xd@@@ZV?$allocator@P6AXPEAVNodeHandle@roswrap@@PEBU?$LIDoutputstateMsg_@V?$allocator@X@std@@@sick_scan_xd@@@Z@std@@@std@@@std@@QEAA@AEAV?$tuple@AEBQEAVNodeHandle@roswrap@@@1@AEAV?$tuple@$$V@1@U?$integer_sequence@_K$0A@@1@U?$integer_sequence@_K$S@1@@Z
	??$?0V?$tuple@AEBQEAVNodeHandle@roswrap@@@std@@V?$tuple@$$V@1@$0A@$$Z$S@?$pair@QEAVNodeHandle@roswrap@@V?$list@P6AXPEAVNodeHandle@roswrap@@PEBU?$MarkerArray_@V?$allocator@X@std@@@visualization_msgs@@@ZV?$allocator@P6AXPEAVNodeHandle@roswrap@@PEBU?$MarkerArray_@V?$allocator@X@std@@@visualization_msgs@@@Z@std@@@std@@@std@@QEAA@AEAV?$tuple@AEBQEAVNodeHandle@roswrap@@@1@AEAV?$tuple@$$V@1@U?$integer_sequence@_K$0A@@1@U?$integer_sequence@_K$S@1@@Z
	??$?0V?$tuple@AEBQEAVNodeHandle@roswrap@@@std@@V?$tuple@$$V@1@$0A@$$Z$S@?$pair@QEAVNodeHandle@roswrap@@V?$list@P6AXPEAVNodeHandle@roswrap@@PEBU?$RadarScan_@V?$allocator@X@std@@@sick_scan_xd@@@ZV?$allocator@P6AXPEAVNodeHandle@roswrap@@PEBU?$RadarScan_@V?$allocator@X@std@@@sick_scan_xd@@@Z@std@@@std@@@std@@QEAA@AEAV?$tuple@AEBQEAVNodeHandle@roswrap@@@1@AEAV?$tuple@$$V@1@U?$integer_sequence@_K$0A@@1@U?$integer_sequence@_K$S@1@@Z
	??$?0V?$tuple@AEBQEAVNodeHandle@roswrap@@@std@@V?$tuple@$$V@1@$0A@$$Z$S@?$pair@QEAVNodeHandle@roswrap@@V?$list@P6AXPEAVNodeHandle@roswrap@@PEBU?$SickLdmrsObjectArray_@V?$allocator@X@std@@@sick_scan_xd@@@ZV?$allocator@P6AXPEAVNodeHandle@roswrap@@PEBU?$SickLdmrsObjectArray_@V?$allocator@X@std@@@sick_scan_xd@@@Z@std@@@std@@@std@@QEAA@AEAV?$tuple@AEBQEAVNodeHandle@roswrap@@@1@AEAV?$tuple@$$V@1@U?$integer_sequence@_K$0A@@1@U?$integer_sequence@_K$S@1@@Z
	??$?0V?$tuple@AEBQEAVNodeHandle@roswrap@@@std@@V?$tuple@$$V@1@$0A@$$Z$S@?$pair@QEAVNodeHandle@roswrap@@V?$list@P6AXPEAVNodeHandle@roswrap@@PEBUPointCloud2withEcho@sick_scan_xd@@@ZV?$allocator@P6AXPEAVNodeHandle@roswrap@@PEBUPointCloud2withEcho@sick_scan_xd@@@Z@std@@@std@@@std@@QEAA@AEAV?$tuple@AEBQEAVNodeHandle@roswrap@@@1@AEAV?$tuple@$$V@1@U?$integer_sequence@_K$0A@@1@U?$integer_sequence@_K$S@1@@Z
	??$?0V?$tuple@AEBQEAVNodeHandle@roswrap@@@std@@V?$tuple@$$V@1@$0A@$$Z$S@?$pair@QEAVNodeHandle@roswrap@@V?$list@P6AXPEAVNodeHandle@roswrap@@PEBVNAV350mNPOSData@sick_scan_xd@@@ZV?$allocator@P6AXPEAVNodeHandle@roswrap@@PEBVNAV350mNPOSData@sick_scan_xd@@@Z@std@@@std@@@std@@QEAA@AEAV?$tuple@AEBQEAVNodeHandle@roswrap@@@1@AEAV?$tuple@$$V@1@U?$integer_sequence@_K$0A@@1@U?$integer_sequence@_K$S@1@@Z
	??$?0V?$tuple@AEBQEAX@std@@V?$tuple@$$V@1@$0A@$$Z$S@?$pair@QEAXV?$basic_string@DU?$char_traits@D@std@@V?$allocator@D@2@@std@@@std@@QEAA@AEAV?$tuple@AEBQEAX@1@AEAV?$tuple@$$V@1@U?$integer_sequence@_K$0A@@1@U?$integer_sequence@_K$S@1@@Z
	??$?0V?$tuple@AEBQEAX@std@@V?$tuple@$$V@1@$0A@$$Z$S@?$pair@QEAXV?$list@P6AXPEAXPEBUSickScanDiagnosticMsgType@@@ZV?$allocator@P6AXPEAXPEBUSickScanDiagnosticMsgType@@@Z@std@@@std@@@std@@QEAA@AEAV?$tuple@AEBQEAX@1@AEAV?$tuple@$$V@1@U?$integer_sequence@_K$0A@@1@U?$integer_sequence@_K$S@1@@Z
	??$?0V?$tuple@AEBQEAX@std@@V?$tuple@$$V@1@$0A@$$Z$S@?$pair@QEAXV?$list@P6AXPEAXPEBUSickScanImuMsgType@@@ZV?$allocator@P6AXPEAXPEBUSickScanImuMsgType@@@Z@std@@@std@@@std@@QEAA@AEAV?$tuple@AEBQEAX@1@AEAV?$tuple@$$V@1@U?$integer_sequence@_K$0A@@1@U?$integer_sequence@_K$S@1@@Z
	??$?0V?$tuple@AEBQEAX@std@@V?$tuple@$$V@1@$0A@$$Z$S@?$pair@QEAXV?$list@P6AXPEAXPEBUSickScanLFErecMsgType@@@ZV?$allocator@P6AXPEAXPEBUSickScanLFErecMsgType@@@Z@std@@@std@@@std@@QEAA@AEAV?$tuple@AEBQEAX@1@AEAV?$tuple@$$V@1@U?$integer_sequence@_K$0A@@1@U?$integer_sequence@_K$S@1@@Z
	??$?0V?$tuple@AEBQEAX@std@@V?$tuple@$$V@1@$0A@$$Z$S@?$pair@QEAXV?$list@P6AXPEAXPEBUSickScanLIDoutputstateMsgType@@@ZV?$allocator@P6AXPEAXPEBUSickScanLIDoutputstateMsgType@@@Z@std@@@std@@@std@@QEAA@AEAV?$tuple@AEBQEAX@1@AEAV?$tuple@$$V@1@U?$integer_sequence@_K$0A@@1@U?$integer_sequence@_K$S@1@@Z
	??$?0V?$tuple@AEBQEAX@std@@V?$tuple@$$V@1@$0A@$$Z$S@?$pair@QEAXV?$list@P6AXPEAXPEBUSickScanLdmrsObjectArrayType@@@ZV?$allocator@P6AXPEAXPEBUSickScanLdmrsObjectArrayType@@@Z@std@@@std@@@std@@QEAA@AEAV?$tuple@AEBQEAX@1@AEAV?$tuple@$$V@1@U?$integer_sequence@_K$0A@@1@U?$integer_sequence@_K$S@1@@Z
	??$?0V?$tuple@AEBQEAX@std@@V?$tuple@$$V@1@$0A@$$Z$S@?$pair@QEAXV?$list@P6AXPEAXPEBUSickScanLogMsgType@@@ZV?$allocator@P6AXPEAXPEBUSickScanLogMsgType@@@Z@std@@@std@@@std@@QEAA@AEAV?$tuple@AEBQEAX@1@AEAV?$tuple@$$V@1@U?$integer_sequence@_K$0A@@1@U?$integer_sequence@_K$S@1@@Z
	??$?0V?$tuple@AEBQEAX@std@@V?$tuple@$$V@1@$0A@$$Z$S@?$pair@QEAXV?$list@P6AXPEAXPEBUSickScanNavPoseLandmarkMsgType@@@ZV?$allocator@P6AXPEAXPEBUSickScanNavPoseLandmarkMsgType@@@Z@std@@@std@@@std@@QEAA@AEAV?$tuple@AEBQEAX@1@AEAV?$tuple@$$V@1@U?$integer_sequence@_K$0A@@1@U?$integer_sequence@_K$S@1@@Z
	??$?0V?$tuple@AEBQEAX@std@@V?$tuple@$$V@1@$0A@$$Z$S@?$pair@QEAXV?$list@P6AXPEAXPEBUSickScanPointCloudMsgType@@@ZV?$allocator@P6AXPEAXPEBUSickScanPointCloudMsgType@@@Z@std@@@std@@@std@@QEAA@AEAV?$tuple@AEBQEAX@1@AEAV?$tuple@$$V@1@U?$integer_sequence@_K$0A@@1@U?$integer_sequence@_K$S@1@@Z
	??$?0V?$tuple@AEBQEAX@std@@V?$tuple@$$V@1@$0A@$$Z$S@?$pair@QEAXV?$list@P6AXPEAXPEBUSickScanRadarScanType@@@ZV?$allocator@P6AXPEAXPEBUSickScanRadarScanType@@@Z@std@@@std@@@std@@QEAA@AEAV?$tuple@AEBQEAX@1@AEAV?$tuple@$$V@1@U?$integer_sequence@_K$0A@@1@U?$integer_sequence@_K$S@1@@Z
	??$?0V?$tuple@AEBQEAX@std@@V?$tuple@$$V@1@$0A@$$Z$S@?$pair@QEAXV?$list@P6AXPEAXPEBUSickScanVisualizationMarkerMsgType@@@ZV?$allocator@P6AXPEAXPEBUSickScanVisualizationMarkerMsgType@@@Z@std@@@std@@@std@@QEAA@AEAV?$tuple@AEBQEAX@1@AEAV?$tuple@$$V@1@U?$integer_sequence@_K$0A@@1@U?$integer_sequence@_K$S@1@@Z
	??$?0V?$tuple@AEBV?$basic_string@DU?$char_traits@D@std@@V?$allocator@D@2@@std@@@std@@V?$tuple@$$V@1@$0A@$$Z$S@?$pair@$$CBV?$basic_string@DU?$char_traits@D@std@@V?$allocator@D@2@@std@@V12@@std@@QEAA@AEAV?$tuple@AEBV?$basic_string@DU?$char_traits@D@std@@V?$allocator@D@2@@std@@@1@AEAV?$tuple@$$V@1@U?$integer_sequence@_K$0A@@1@U?$integer_sequence@_K$S@1@@Z
	??$?0V?$tuple@AEBV?$basic_string@DU?$char_traits@D@std@@V?$allocator@D@2@@std@@@std@@V?$tuple@$$V@1@$0A@$$Z$S@?$pair@$$CBV?$basic_string@DU?$char_traits@D@std@@V?$allocator@D@2@@std@@_N@std@@QEAA@AEAV?$tuple@AEBV?$basic_string@DU?$char_traits@D@std@@V?$allocator@D@2@@std@@@1@AEAV?$tuple@$$V@1@U?$integer_sequence@_K$0A@@1@U?$integer_sequence@_K$S@1@@Z
	??$?0V?$tuple@CV?$vector@EV?$allocator@E@std@@@std@@@std@@@?$_Ref_count_obj2@VMsgPackExtension@msgpack11@@@std@@QEAA@$$QEAV?$tuple@CV?$vector@EV?$allocator@E@std@@@std@@@1@@Z
	??$?0V?$tuple@V?$vector@EV?$allocator@E@std@@@std@@V?$time_point@Usystem_clock@chrono@std@@V?$duration@_JU?$ratio@$00$0JIJGIA@@std@@@23@@chrono@2@_K@std@@@?$allocator@PEAV?$tuple@V?$vector@EV?$allocator@E@std@@@std@@V?$time_point@Usystem_clock@chrono@std@@V?$duration@_JU?$ratio@$00$0JIJGIA@@std@@@23@@chrono@2@_K@std@@@std@@QEAA@AEBV?$allocator@V?$tuple@V?$vector@EV?$allocator@E@std@@@std@@V?$time_point@Usystem_clock@chrono@std@@V?$duration@_JU?$ratio@$00$0JIJGIA@@std@@@23@@chrono@2@_K@std@@@1@@Z
	??$?0V?$tuple@V?$vector@EV?$allocator@E@std@@@std@@V?$time_point@Usystem_clock@chrono@std@@V?$duration@_JU?$ratio@$00$0JIJGIA@@std@@@23@@chrono@2@_K@std@@@?$allocator@U_Container_proxy@std@@@std@@QEAA@AEBV?$allocator@V?$tuple@V?$vector@EV?$allocator@E@std@@@std@@V?$time_point@Usystem_clock@chrono@std@@V?$duration@_JU?$ratio@$00$0JIJGIA@@std@@@23@@chrono@2@_K@std@@@1@@Z
	??$?0V?$tuple@VScanSegmentParserOutput@sick_scansegment_xd@@V?$time_point@Usystem_clock@chrono@std@@V?$duration@_JU?$ratio@$00$0JIJGIA@@std@@@23@@chrono@std@@_K@std@@@?$allocator@PEAV?$tuple@VScanSegmentParserOutput@sick_scansegment_xd@@V?$time_point@Usystem_clock@chrono@std@@V?$duration@_JU?$ratio@$00$0JIJGIA@@std@@@23@@chrono@std@@_K@std@@@std@@QEAA@AEBV?$allocator@V?$tuple@VScanSegmentParserOutput@sick_scansegment_xd@@V?$time_point@Usystem_clock@chrono@std@@V?$duration@_JU?$ratio@$00$0JIJGIA@@std@@@23@@chrono@std@@_K@std@@@1@@Z
	??$?0V?$tuple@VScanSegmentParserOutput@sick_scansegment_xd@@V?$time_point@Usystem_clock@chrono@std@@V?$duration@_JU?$ratio@$00$0JIJGIA@@std@@@23@@chrono@std@@_K@std@@@?$allocator@U_Container_proxy@std@@@std@@QEAA@AEBV?$allocator@V?$tuple@VScanSegmentParserOutput@sick_scansegment_xd@@V?$time_point@Usystem_clock@chrono@std@@V?$duration@_JU?$ratio@$00$0JIJGIA@@std@@@23@@chrono@std@@_K@std@@@1@@Z
	??$?0V?$vector@EV?$allocator@E@std@@@std@@$0A@@?$tuple@V?$vector@EV?$allocator@E@std@@@std@@@std@@QEAA@XZ
	??$?0V?$vector@EV?$allocator@E@std@@@std@@@?$_Ref_count_obj2@VMsgPackBinary@msgpack11@@@std@@QEAA@$$QEAV?$vector@EV?$allocator@E@std@@@1@@Z
	??$?0V?$vector@EV?$allocator@E@std@@@std@@@?$_Tuple_val@V?$vector@EV?$allocator@E@std@@@std@@@std@@QEAA@$$QEAV?$vector@EV?$allocator@E@std@@@1@@Z
	??$?0V?$vector@EV?$allocator@E@std@@@std@@@?$allocator@U_Container_proxy@std@@@std@@QEAA@AEBV?$allocator@V?$vector@EV?$allocator@E@std@@@std@@@1@@Z
	??$?0V?$vector@V?$basic_string@DU?$char_traits@D@std@@V?$allocator@D@2@@std@@V?$allocator@V?$basic_string@DU?$char_traits@D@std@@V?$allocator@D@2@@std@@@2@@std@@@?$allocator@U_Container_proxy@std@@@std@@QEAA@AEBV?$allocator@V?$vector@V?$basic_string@DU?$char_traits@D@std@@V?$allocator@D@2@@std@@V?$allocator@V?$basic_string@DU?$char_traits@D@std@@V?$allocator@D@2@@std@@@2@@std@@@1@@Z
	??$?0V?$vector@VMsgPack@msgpack11@@V?$allocator@VMsgPack@msgpack11@@@std@@@std@@@?$_Ref_count_obj2@VMsgPackArray@msgpack11@@@std@@QEAA@$$QEAV?$vector@VMsgPack@msgpack11@@V?$allocator@VMsgPack@msgpack11@@@std@@@1@@Z
	??$?0V?$vector@VPointXYZRAEI32f@sick_scansegment_xd@@V?$allocator@VPointXYZRAEI32f@sick_scansegment_xd@@@std@@@std@@@?$allocator@U_Container_proxy@std@@@std@@QEAA@AEBV?$allocator@V?$vector@VPointXYZRAEI32f@sick_scansegment_xd@@V?$allocator@VPointXYZRAEI32f@sick_scansegment_xd@@@std@@@std@@@1@@Z
	??$?0VCompactModuleData@sick_scansegment_xd@@@?$allocator@U_Container_proxy@std@@@std@@QEAA@AEBV?$allocator@VCompactModuleData@sick_scansegment_xd@@@1@@Z
	??$?0VCustomPointCloudConfiguration@sick_scansegment_xd@@@?$allocator@U_Container_proxy@std@@@std@@QEAA@AEBV?$allocator@VCustomPointCloudConfiguration@sick_scansegment_xd@@@1@@Z
	??$?0VFieldInfo@SickScanMarker@sick_scan_xd@@@?$allocator@U_Container_proxy@std@@@std@@QEAA@AEBV?$allocator@VFieldInfo@SickScanMarker@sick_scan_xd@@@1@@Z
	??$?0VLMPscancfgSector@SickScanParseUtil@sick_scan_xd@@@?$allocator@U_Container_proxy@std@@@std@@QEAA@AEBV?$allocator@VLMPscancfgSector@SickScanParseUtil@sick_scan_xd@@@1@@Z
	??$?0VLidarPoint@ScanSegmentParserOutput@sick_scansegment_xd@@@?$allocator@U_Container_proxy@std@@@std@@QEAA@AEBV?$allocator@VLidarPoint@ScanSegmentParserOutput@sick_scansegment_xd@@@1@@Z
	??$?0VMsgPack@msgpack11@@@?$allocator@U_Container_proxy@std@@@std@@QEAA@AEBV?$allocator@VMsgPack@msgpack11@@@1@@Z
	??$?0VMsgPack@msgpack11@@V01@$0A@@?$pair@$$CBVMsgPack@msgpack11@@V12@@std@@QEAA@$$QEAU?$pair@VMsgPack@msgpack11@@V12@@1@@Z
	??$?0VMsgPack@msgpack11@@V01@$0A@@?$pair@VMsgPack@msgpack11@@V12@@std@@QEAA@$$QEAVMsgPack@msgpack11@@0@Z
	??$?0VMsgPackArray@msgpack11@@$0A@@?$shared_ptr@VMsgPackValue@msgpack11@@@std@@QEAA@$$QEAV?$shared_ptr@VMsgPackArray@msgpack11@@@1@@Z
	??$?0VMsgPackBinary@msgpack11@@$0A@@?$shared_ptr@VMsgPackValue@msgpack11@@@std@@QEAA@$$QEAV?$shared_ptr@VMsgPackBinary@msgpack11@@@1@@Z
	??$?0VMsgPackBoolean@msgpack11@@$0A@@?$shared_ptr@VMsgPackValue@msgpack11@@@std@@QEAA@$$QEAV?$shared_ptr@VMsgPackBoolean@msgpack11@@@1@@Z
	??$?0VMsgPackDouble@msgpack11@@$0A@@?$shared_ptr@VMsgPackValue@msgpack11@@@std@@QEAA@$$QEAV?$shared_ptr@VMsgPackDouble@msgpack11@@@1@@Z
	??$?0VMsgPackElement@@@?$allocator@U_Container_proxy@std@@@std@@QEAA@AEBV?$allocator@VMsgPackElement@@@1@@Z
	??$?0VMsgPackExtension@msgpack11@@$0A@@?$shared_ptr@VMsgPackValue@msgpack11@@@std@@QEAA@$$QEAV?$shared_ptr@VMsgPackExtension@msgpack11@@@1@@Z
	??$?0VMsgPackFloat@msgpack11@@$0A@@?$shared_ptr@VMsgPackValue@msgpack11@@@std@@QEAA@$$QEAV?$shared_ptr@VMsgPackFloat@msgpack11@@@1@@Z
	??$?0VMsgPackInt16@msgpack11@@$0A@@?$shared_ptr@VMsgPackValue@msgpack11@@@std@@QEAA@$$QEAV?$shared_ptr@VMsgPackInt16@msgpack11@@@1@@Z
	??$?0VMsgPackInt32@msgpack11@@$0A@@?$shared_ptr@VMsgPackValue@msgpack11@@@std@@QEAA@$$QEAV?$shared_ptr@VMsgPackInt32@msgpack11@@@1@@Z
	??$?0VMsgPackInt64@msgpack11@@$0A@@?$shared_ptr@VMsgPackValue@msgpack11@@@std@@QEAA@$$QEAV?$shared_ptr@VMsgPackInt64@msgpack11@@@1@@Z
	??$?0VMsgPackInt8@msgpack11@@$0A@@?$shared_ptr@VMsgPackValue@msgpack11@@@std@@QEAA@$$QEAV?$shared_ptr@VMsgPackInt8@msgpack11@@@1@@Z
	??$?0VMsgPackNull@msgpack11@@$0A@@?$shared_ptr@VMsgPackValue@msgpack11@@@std@@QEAA@$$QEAV?$shared_ptr@VMsgPackNull@msgpack11@@@1@@Z
	??$?0VMsgPackObject@msgpack11@@$0A@@?$shared_ptr@VMsgPackValue@msgpack11@@@std@@QEAA@$$QEAV?$shared_ptr@VMsgPackObject@msgpack11@@@1@@Z
	??$?0VMsgPackString@msgpack11@@$0A@@?$shared_ptr@VMsgPackValue@msgpack11@@@std@@QEAA@$$QEAV?$shared_ptr@VMsgPackString@msgpack11@@@1@@Z
	??$?0VMsgPackToFloat32VectorConverter@@@?$allocator@U_Container_proxy@std@@@std@@QEAA@AEBV?$allocator@VMsgPackToFloat32VectorConverter@@@1@@Z
	??$?0VMsgPackUint16@msgpack11@@$0A@@?$shared_ptr@VMsgPackValue@msgpack11@@@std@@QEAA@$$QEAV?$shared_ptr@VMsgPackUint16@msgpack11@@@1@@Z
	??$?0VMsgPackUint32@msgpack11@@$0A@@?$shared_ptr@VMsgPackValue@msgpack11@@@std@@QEAA@$$QEAV?$shared_ptr@VMsgPackUint32@msgpack11@@@1@@Z
	??$?0VMsgPackUint64@msgpack11@@$0A@@?$shared_ptr@VMsgPackValue@msgpack11@@@std@@QEAA@$$QEAV?$shared_ptr@VMsgPackUint64@msgpack11@@@1@@Z
	??$?0VMsgPackUint8@msgpack11@@$0A@@?$shared_ptr@VMsgPackValue@msgpack11@@@std@@QEAA@$$QEAV?$shared_ptr@VMsgPackUint8@msgpack11@@@1@@Z
	??$?0VNAV350ImkLandmark@sick_scan_xd@@@?$allocator@U_Container_proxy@std@@@std@@QEAA@AEBV?$allocator@VNAV350ImkLandmark@sick_scan_xd@@@1@@Z
	??$?0VNAV350ReflectorData@sick_scan_xd@@@?$allocator@U_Container_proxy@std@@@std@@QEAA@AEBV?$allocator@VNAV350ReflectorData@sick_scan_xd@@@1@@Z
	??$?0VNAV350ScanData@sick_scan_xd@@@?$allocator@U_Container_proxy@std@@@std@@QEAA@AEBV?$allocator@VNAV350ScanData@sick_scan_xd@@@1@@Z
	??$?0VPointCloudFieldProperty@sick_scansegment_xd@@@?$allocator@U_Container_proxy@std@@@std@@QEAA@AEBV?$allocator@VPointCloudFieldProperty@sick_scansegment_xd@@@1@@Z
	??$?0VPointXYZRAEI32f@sick_scansegment_xd@@@?$allocator@U_Container_proxy@std@@@std@@QEAA@AEBV?$allocator@VPointXYZRAEI32f@sick_scansegment_xd@@@1@@Z
	??$?0VRadarDatagramField@sick_scan_xd@@@?$allocator@U_Container_proxy@std@@@std@@QEAA@AEBV?$allocator@VRadarDatagramField@sick_scan_xd@@@1@@Z
	??$?0VScanSegmentParserOutput@sick_scansegment_xd@@@?$allocator@U_Container_proxy@std@@@std@@QEAA@AEBV?$allocator@VScanSegmentParserOutput@sick_scansegment_xd@@@1@@Z
	??$?0VScangroup@ScanSegmentParserOutput@sick_scansegment_xd@@@?$allocator@U_Container_proxy@std@@@std@@QEAA@AEBV?$allocator@VScangroup@ScanSegmentParserOutput@sick_scansegment_xd@@@1@@Z
	??$?0VScanline@ScanSegmentParserOutput@sick_scansegment_xd@@@?$allocator@U_Container_proxy@std@@@std@@QEAA@AEBV?$allocator@VScanline@ScanSegmentParserOutput@sick_scansegment_xd@@@1@@Z
	??$?0VScannerBasicParam@sick_scan_xd@@@?$allocator@U_Container_proxy@std@@@std@@QEAA@AEBV?$allocator@VScannerBasicParam@sick_scan_xd@@@1@@Z
	??$?0VServiceServer@roswrap@@@?$rosServiceServer@UColaMsgSrv@sick_scan_xd@@@@QEAA@AEAVServiceServer@roswrap@@@Z
	??$?0VServiceServer@roswrap@@@?$rosServiceServer@UECRChangeArrSrv@sick_scan_xd@@@@QEAA@AEAVServiceServer@roswrap@@@Z
	??$?0VServiceServer@roswrap@@@?$rosServiceServer@UGetContaminationResultSrv@sick_scan_xd@@@@QEAA@AEAVServiceServer@roswrap@@@Z
	??$?0VServiceServer@roswrap@@@?$rosServiceServer@ULIDoutputstateSrv@sick_scan_xd@@@@QEAA@AEAVServiceServer@roswrap@@@Z
	??$?0VServiceServer@roswrap@@@?$rosServiceServer@USCdevicestateSrv@sick_scan_xd@@@@QEAA@AEAVServiceServer@roswrap@@@Z
	??$?0VServiceServer@roswrap@@@?$rosServiceServer@USCrebootSrv@sick_scan_xd@@@@QEAA@AEAVServiceServer@roswrap@@@Z
	??$?0VServiceServer@roswrap@@@?$rosServiceServer@USCsoftresetSrv@sick_scan_xd@@@@QEAA@AEAVServiceServer@roswrap@@@Z
	??$?0VServiceServer@roswrap@@@?$rosServiceServer@USickScanExitSrv@sick_scan_xd@@@@QEAA@AEAVServiceServer@roswrap@@@Z
	??$?0VSickScanMonField@sick_scan_xd@@@?$allocator@U_Container_proxy@std@@@std@@QEAA@AEBV?$allocator@VSickScanMonField@sick_scan_xd@@@1@@Z
	??$?0VSickScanRadarObject@sick_scan_xd@@@?$allocator@U_Container_proxy@std@@@std@@QEAA@AEBV?$allocator@VSickScanRadarObject@sick_scan_xd@@@1@@Z
	??$?0VSickScanRadarRawTarget@sick_scan_xd@@@?$allocator@U_Container_proxy@std@@@std@@QEAA@AEBV?$allocator@VSickScanRadarRawTarget@sick_scan_xd@@@1@@Z
	??$?0VparamEntryAscii@@@?$allocator@U_Container_proxy@std@@@std@@QEAA@AEBV?$allocator@VparamEntryAscii@@@1@@Z
	??$?0W4ReadBeamAzimOrderEnum@@@?$allocator@U_Container_proxy@std@@@std@@QEAA@AEBV?$allocator@W4ReadBeamAzimOrderEnum@@@1@@Z
	??$?0_J$0A@@?$duration@_JU?$ratio@$00$00@std@@@chrono@std@@QEAA@AEB_J@Z
	??$?0_J$0A@@?$duration@_JU?$ratio@$00$0DLJKMKAA@@std@@@chrono@std@@QEAA@AEB_J@Z
	??$?0_J$0A@@?$duration@_JU?$ratio@$00$0DOI@@std@@@chrono@std@@QEAA@AEB_J@Z
	??$?0_J$0A@@?$duration@_JU?$ratio@$00$0JIJGIA@@std@@@chrono@std@@QEAA@AEB_J@Z
	??$?0_JU?$ratio@$00$00@std@@$0A@@?$duration@_JU?$ratio@$00$0DLJKMKAA@@std@@@chrono@std@@QEAA@AEBV?$duration@_JU?$ratio@$00$00@std@@@12@@Z
	??$?0_JU?$ratio@$00$0DLJKMKAA@@std@@$0A@@?$duration@NU?$ratio@$00$0DLJKMKAA@@std@@@chrono@std@@QEAA@AEBV?$duration@_JU?$ratio@$00$0DLJKMKAA@@std@@@12@@Z
	??$?0_JU?$ratio@$00$0DOI@@std@@$0A@@?$duration@_JU?$ratio@$00$0DLJKMKAA@@std@@@chrono@std@@QEAA@AEBV?$duration@_JU?$ratio@$00$0DOI@@std@@@12@@Z
	??$?0_JU?$ratio@$00$0JIJGIA@@std@@$0A@@?$duration@NU?$ratio@$00$00@std@@@chrono@std@@QEAA@AEBV?$duration@_JU?$ratio@$00$0JIJGIA@@std@@@12@@Z
	??$?0_JU?$ratio@$00$0JIJGIA@@std@@$0A@@?$duration@NU?$ratio@$00$0JIJGIA@@std@@@chrono@std@@QEAA@AEBV?$duration@_JU?$ratio@$00$0JIJGIA@@std@@@12@@Z
	??$?0_JU?$ratio@$00$0JIJGIA@@std@@$0A@@?$duration@_JU?$ratio@$00$0DLJKMKAA@@std@@@chrono@std@@QEAA@AEBV?$duration@_JU?$ratio@$00$0JIJGIA@@std@@@12@@Z
	??$?0_JU?$ratio@$00$0PECEA@@std@@$0A@@?$duration@_JU?$ratio@$00$0DLJKMKAA@@std@@@chrono@std@@QEAA@AEBV?$duration@_JU?$ratio@$00$0PECEA@@std@@@12@@Z
	??$?0_JU?$ratio@$00$0PECEA@@std@@$0A@@?$duration@_JU?$ratio@$00$0JIJGIA@@std@@@chrono@std@@QEAA@AEBV?$duration@_JU?$ratio@$00$0PECEA@@std@@@12@@Z
	??$?0_K$0A@@?$duration@_JU?$ratio@$00$0PECEA@@std@@@chrono@std@@QEAA@AEB_K@Z
	??$?0_K@?$allocator@U_Container_proxy@std@@@std@@QEAA@AEBV?$allocator@_K@1@@Z
	??$?0_N@?$_Ref_count_obj2@VMsgPackBoolean@msgpack11@@@std@@QEAA@$$QEA_N@Z
	??$?0_N@?$allocator@I@std@@QEAA@AEBV?$allocator@_N@1@@Z
	??$?4V?$ServiceCallbackHelperT@U?$ServiceSpec@U?$ColaMsgSrvRequest_@V?$allocator@X@std@@@sick_scan_xd@@U?$ColaMsgSrvResponse_@V?$allocator@X@std@@@2@@roswrap@@@roswrap@@$0A@@?$shared_ptr@VServiceCallbackHelper@roswrap@@@std@@QEAAAEAV01@$$QEAV?$shared_ptr@V?$ServiceCallbackHelperT@U?$ServiceSpec@U?$ColaMsgSrvRequest_@V?$allocator@X@std@@@sick_scan_xd@@U?$ColaMsgSrvResponse_@V?$allocator@X@std@@@2@@roswrap@@@roswrap@@@1@@Z
	??$?4V?$ServiceCallbackHelperT@U?$ServiceSpec@U?$ECRChangeArrSrvRequest_@V?$allocator@X@std@@@sick_scan_xd@@U?$ECRChangeArrSrvResponse_@V?$allocator@X@std@@@2@@roswrap@@@roswrap@@$0A@@?$shared_ptr@VServiceCallbackHelper@roswrap@@@std@@QEAAAEAV01@$$QEAV?$shared_ptr@V?$ServiceCallbackHelperT@U?$ServiceSpec@U?$ECRChangeArrSrvRequest_@V?$allocator@X@std@@@sick_scan_xd@@U?$ECRChangeArrSrvResponse_@V?$allocator@X@std@@@2@@roswrap@@@roswrap@@@1@@Z
	??$?4V?$ServiceCallbackHelperT@U?$ServiceSpec@U?$GetContaminationResultSrvRequest_@V?$allocator@X@std@@@sick_scan_xd@@U?$GetContaminationResultSrvResponse_@V?$allocator@X@std@@@2@@roswrap@@@roswrap@@$0A@@?$shared_ptr@VServiceCallbackHelper@roswrap@@@std@@QEAAAEAV01@$$QEAV?$shared_ptr@V?$ServiceCallbackHelperT@U?$ServiceSpec@U?$GetContaminationResultSrvRequest_@V?$allocator@X@std@@@sick_scan_xd@@U?$GetContaminationResultSrvResponse_@V?$allocator@X@std@@@2@@roswrap@@@roswrap@@@1@@Z
	??$?4V?$ServiceCallbackHelperT@U?$ServiceSpec@U?$LIDoutputstateSrvRequest_@V?$allocator@X@std@@@sick_scan_xd@@U?$LIDoutputstateSrvResponse_@V?$allocator@X@std@@@2@@roswrap@@@roswrap@@$0A@@?$shared_ptr@VServiceCallbackHelper@roswrap@@@std@@QEAAAEAV01@$$QEAV?$shared_ptr@V?$ServiceCallbackHelperT@U?$ServiceSpec@U?$LIDoutputstateSrvRequest_@V?$allocator@X@std@@@sick_scan_xd@@U?$LIDoutputstateSrvResponse_@V?$allocator@X@std@@@2@@roswrap@@@roswrap@@@1@@Z
	??$?4V?$ServiceCallbackHelperT@U?$ServiceSpec@U?$SCdevicestateSrvRequest_@V?$allocator@X@std@@@sick_scan_xd@@U?$SCdevicestateSrvResponse_@V?$allocator@X@std@@@2@@roswrap@@@roswrap@@$0A@@?$shared_ptr@VServiceCallbackHelper@roswrap@@@std@@QEAAAEAV01@$$QEAV?$shared_ptr@V?$ServiceCallbackHelperT@U?$ServiceSpec@U?$SCdevicestateSrvRequest_@V?$allocator@X@std@@@sick_scan_xd@@U?$SCdevicestateSrvResponse_@V?$allocator@X@std@@@2@@roswrap@@@roswrap@@@1@@Z
	??$?4V?$ServiceCallbackHelperT@U?$ServiceSpec@U?$SCrebootSrvRequest_@V?$allocator@X@std@@@sick_scan_xd@@U?$SCrebootSrvResponse_@V?$allocator@X@std@@@2@@roswrap@@@roswrap@@$0A@@?$shared_ptr@VServiceCallbackHelper@roswrap@@@std@@QEAAAEAV01@$$QEAV?$shared_ptr@V?$ServiceCallbackHelperT@U?$ServiceSpec@U?$SCrebootSrvRequest_@V?$allocator@X@std@@@sick_scan_xd@@U?$SCrebootSrvResponse_@V?$allocator@X@std@@@2@@roswrap@@@roswrap@@@1@@Z
	??$?4V?$ServiceCallbackHelperT@U?$ServiceSpec@U?$SCsoftresetSrvRequest_@V?$allocator@X@std@@@sick_scan_xd@@U?$SCsoftresetSrvResponse_@V?$allocator@X@std@@@2@@roswrap@@@roswrap@@$0A@@?$shared_ptr@VServiceCallbackHelper@roswrap@@@std@@QEAAAEAV01@$$QEAV?$shared_ptr@V?$ServiceCallbackHelperT@U?$ServiceSpec@U?$SCsoftresetSrvRequest_@V?$allocator@X@std@@@sick_scan_xd@@U?$SCsoftresetSrvResponse_@V?$allocator@X@std@@@2@@roswrap@@@roswrap@@@1@@Z
	??$?4V?$ServiceCallbackHelperT@U?$ServiceSpec@U?$SickScanExitSrvRequest_@V?$allocator@X@std@@@sick_scan_xd@@U?$SickScanExitSrvResponse_@V?$allocator@X@std@@@2@@roswrap@@@roswrap@@$0A@@?$shared_ptr@VServiceCallbackHelper@roswrap@@@std@@QEAAAEAV01@$$QEAV?$shared_ptr@V?$ServiceCallbackHelperT@U?$ServiceSpec@U?$SickScanExitSrvRequest_@V?$allocator@X@std@@@sick_scan_xd@@U?$SickScanExitSrvResponse_@V?$allocator@X@std@@@2@@roswrap@@@roswrap@@@1@@Z
	??$?6DU?$char_traits@D@std@@@std@@YAAEAV?$basic_ostream@DU?$char_traits@D@std@@@0@AEAV10@AEBU?$_Fillobj@D@0@@Z
	??$?6DU?$char_traits@D@std@@@std@@YAAEAV?$basic_ostream@DU?$char_traits@D@std@@@0@AEAV10@AEBU?$_Smanip@_J@0@@Z
	??$?6DU?$char_traits@D@std@@@std@@YAAEAV?$basic_ostream@DU?$char_traits@D@std@@@0@AEAV10@AEBU?$_Timeobj@DPEBUtm@@@0@@Z
	??$?6DU?$char_traits@D@std@@V?$allocator@D@1@@std@@YAAEAV?$basic_ostream@DU?$char_traits@D@std@@@0@AEAV10@AEBV?$basic_string@DU?$char_traits@D@std@@V?$allocator@D@2@@0@@Z
	??$?6U?$char_traits@D@std@@@std@@YAAEAV?$basic_ostream@DU?$char_traits@D@std@@@0@AEAV10@PEBD@Z
	??$?6V?$allocator@X@std@@@geometry_msgs@@YAAEAV?$basic_ostream@DU?$char_traits@D@std@@@std@@AEAV12@AEBU?$Quaternion_@V?$allocator@X@std@@@0@@Z
	??$?6V?$allocator@X@std@@@geometry_msgs@@YAAEAV?$basic_ostream@DU?$char_traits@D@std@@@std@@AEAV12@AEBU?$Vector3_@V?$allocator@X@std@@@0@@Z
	??$?8$$CBVMsgPack@msgpack11@@V01@$$CBV01@V01@@std@@YA_NAEBU?$pair@$$CBVMsgPack@msgpack11@@V12@@0@0@Z
	??$?8CV?$vector@EV?$allocator@E@std@@@std@@$$ZCV01@@std@@YA_NAEBV?$tuple@CV?$vector@EV?$allocator@E@std@@@std@@@0@0@Z
	??$?8DU?$char_traits@D@std@@@std@@YA_NAEBV?$istreambuf_iterator@DU?$char_traits@D@std@@@0@0@Z
	??$?8DU?$char_traits@D@std@@V?$allocator@D@1@@std@@YA_NAEBV?$basic_string@DU?$char_traits@D@std@@V?$allocator@D@2@@0@0@Z
	??$?8DU?$char_traits@D@std@@V?$allocator@D@1@@std@@YA_NAEBV?$basic_string@DU?$char_traits@D@std@@V?$allocator@D@2@@0@QEBD@Z
	??$?8EV?$allocator@E@std@@@std@@YA_NAEBV?$vector@EV?$allocator@E@std@@@0@0@Z
	??$?8VMsgPack@msgpack11@@V01@U?$less@VMsgPack@msgpack11@@@std@@V?$allocator@U?$pair@$$CBVMsgPack@msgpack11@@V12@@std@@@3@@std@@YA_NAEBV?$map@VMsgPack@msgpack11@@V12@U?$less@VMsgPack@msgpack11@@@std@@V?$allocator@U?$pair@$$CBVMsgPack@msgpack11@@V12@@std@@@4@@0@0@Z
	??$?8VMsgPack@msgpack11@@V?$allocator@VMsgPack@msgpack11@@@std@@@std@@YA_NAEBV?$vector@VMsgPack@msgpack11@@V?$allocator@VMsgPack@msgpack11@@@std@@@0@0@Z
	??$?9DU?$char_traits@D@std@@@std@@YA_NAEBV?$istreambuf_iterator@DU?$char_traits@D@std@@@0@0@Z
	??$?9DU?$char_traits@D@std@@V?$allocator@D@1@@std@@YA_NAEBV?$basic_string@DU?$char_traits@D@std@@V?$allocator@D@2@@0@0@Z
	??$?9DU?$char_traits@D@std@@V?$allocator@D@1@@std@@YA_NAEBV?$basic_string@DU?$char_traits@D@std@@V?$allocator@D@2@@0@QEBD@Z
	??$?9PEBDPEBD@std@@YA_NAEBV?$reverse_iterator@PEBD@0@0@Z
	??$?CVImpl@Publisher@roswrap@@$0A@@?$shared_ptr@VImpl@Publisher@roswrap@@@std@@QEBAPEAVImpl@Publisher@roswrap@@XZ
	??$?CVMsgPackValue@msgpack11@@$0A@@?$shared_ptr@VMsgPackValue@msgpack11@@@std@@QEBAPEAVMsgPackValue@msgpack11@@XZ
	??$?CVRosMsgpackPublisher@sick_scansegment_xd@@$0A@@?$shared_ptr@VRosMsgpackPublisher@sick_scansegment_xd@@@std@@QEBAPEAVRosMsgpackPublisher@sick_scansegment_xd@@XZ
	??$?DU?$ColaMsgSrvRequest_@V?$allocator@X@std@@@sick_scan_xd@@$0A@@?$shared_ptr@U?$ColaMsgSrvRequest_@V?$allocator@X@std@@@sick_scan_xd@@@std@@QEBAAEAU?$ColaMsgSrvRequest_@V?$allocator@X@std@@@sick_scan_xd@@XZ
	??$?DU?$ColaMsgSrvResponse_@V?$allocator@X@std@@@sick_scan_xd@@$0A@@?$shared_ptr@U?$ColaMsgSrvResponse_@V?$allocator@X@std@@@sick_scan_xd@@@std@@QEBAAEAU?$ColaMsgSrvResponse_@V?$allocator@X@std@@@sick_scan_xd@@XZ
	??$?DU?$ECRChangeArrSrvRequest_@V?$allocator@X@std@@@sick_scan_xd@@$0A@@?$shared_ptr@U?$ECRChangeArrSrvRequest_@V?$allocator@X@std@@@sick_scan_xd@@@std@@QEBAAEAU?$ECRChangeArrSrvRequest_@V?$allocator@X@std@@@sick_scan_xd@@XZ
	??$?DU?$ECRChangeArrSrvResponse_@V?$allocator@X@std@@@sick_scan_xd@@$0A@@?$shared_ptr@U?$ECRChangeArrSrvResponse_@V?$allocator@X@std@@@sick_scan_xd@@@std@@QEBAAEAU?$ECRChangeArrSrvResponse_@V?$allocator@X@std@@@sick_scan_xd@@XZ
	??$?DU?$GetContaminationResultSrvRequest_@V?$allocator@X@std@@@sick_scan_xd@@$0A@@?$shared_ptr@U?$GetContaminationResultSrvRequest_@V?$allocator@X@std@@@sick_scan_xd@@@std@@QEBAAEAU?$GetContaminationResultSrvRequest_@V?$allocator@X@std@@@sick_scan_xd@@XZ
	??$?DU?$GetContaminationResultSrvResponse_@V?$allocator@X@std@@@sick_scan_xd@@$0A@@?$shared_ptr@U?$GetContaminationResultSrvResponse_@V?$allocator@X@std@@@sick_scan_xd@@@std@@QEBAAEAU?$GetContaminationResultSrvResponse_@V?$allocator@X@std@@@sick_scan_xd@@XZ
	??$?DU?$LIDoutputstateSrvRequest_@V?$allocator@X@std@@@sick_scan_xd@@$0A@@?$shared_ptr@U?$LIDoutputstateSrvRequest_@V?$allocator@X@std@@@sick_scan_xd@@@std@@QEBAAEAU?$LIDoutputstateSrvRequest_@V?$allocator@X@std@@@sick_scan_xd@@XZ
	??$?DU?$LIDoutputstateSrvResponse_@V?$allocator@X@std@@@sick_scan_xd@@$0A@@?$shared_ptr@U?$LIDoutputstateSrvResponse_@V?$allocator@X@std@@@sick_scan_xd@@@std@@QEBAAEAU?$LIDoutputstateSrvResponse_@V?$allocator@X@std@@@sick_scan_xd@@XZ
	??$?DU?$PointCloud2_@V?$allocator@X@std@@@sensor_msgs@@$0A@@?$shared_ptr@U?$PointCloud2_@V?$allocator@X@std@@@sensor_msgs@@@std@@QEBAAEAU?$PointCloud2_@V?$allocator@X@std@@@sensor_msgs@@XZ
	??$?DU?$SCdevicestateSrvRequest_@V?$allocator@X@std@@@sick_scan_xd@@$0A@@?$shared_ptr@U?$SCdevicestateSrvRequest_@V?$allocator@X@std@@@sick_scan_xd@@@std@@QEBAAEAU?$SCdevicestateSrvRequest_@V?$allocator@X@std@@@sick_scan_xd@@XZ
	??$?DU?$SCdevicestateSrvResponse_@V?$allocator@X@std@@@sick_scan_xd@@$0A@@?$shared_ptr@U?$SCdevicestateSrvResponse_@V?$allocator@X@std@@@sick_scan_xd@@@std@@QEBAAEAU?$SCdevicestateSrvResponse_@V?$allocator@X@std@@@sick_scan_xd@@XZ
	??$?DU?$SCrebootSrvRequest_@V?$allocator@X@std@@@sick_scan_xd@@$0A@@?$shared_ptr@U?$SCrebootSrvRequest_@V?$allocator@X@std@@@sick_scan_xd@@@std@@QEBAAEAU?$SCrebootSrvRequest_@V?$allocator@X@std@@@sick_scan_xd@@XZ
	??$?DU?$SCrebootSrvResponse_@V?$allocator@X@std@@@sick_scan_xd@@$0A@@?$shared_ptr@U?$SCrebootSrvResponse_@V?$allocator@X@std@@@sick_scan_xd@@@std@@QEBAAEAU?$SCrebootSrvResponse_@V?$allocator@X@std@@@sick_scan_xd@@XZ
	??$?DU?$SCsoftresetSrvRequest_@V?$allocator@X@std@@@sick_scan_xd@@$0A@@?$shared_ptr@U?$SCsoftresetSrvRequest_@V?$allocator@X@std@@@sick_scan_xd@@@std@@QEBAAEAU?$SCsoftresetSrvRequest_@V?$allocator@X@std@@@sick_scan_xd@@XZ
	??$?DU?$SCsoftresetSrvResponse_@V?$allocator@X@std@@@sick_scan_xd@@$0A@@?$shared_ptr@U?$SCsoftresetSrvResponse_@V?$allocator@X@std@@@sick_scan_xd@@@std@@QEBAAEAU?$SCsoftresetSrvResponse_@V?$allocator@X@std@@@sick_scan_xd@@XZ
	??$?DU?$SickScanExitSrvRequest_@V?$allocator@X@std@@@sick_scan_xd@@$0A@@?$shared_ptr@U?$SickScanExitSrvRequest_@V?$allocator@X@std@@@sick_scan_xd@@@std@@QEBAAEAU?$SickScanExitSrvRequest_@V?$allocator@X@std@@@sick_scan_xd@@XZ
	??$?DU?$SickScanExitSrvResponse_@V?$allocator@X@std@@@sick_scan_xd@@$0A@@?$shared_ptr@U?$SickScanExitSrvResponse_@V?$allocator@X@std@@@sick_scan_xd@@@std@@QEBAAEAU?$SickScanExitSrvResponse_@V?$allocator@X@std@@@sick_scan_xd@@XZ
	??$?DVMsgPackValue@msgpack11@@$0A@@?$shared_ptr@VMsgPackValue@msgpack11@@@std@@QEBAAEAVMsgPackValue@msgpack11@@XZ
	??$?GPEBDPEBD@std@@YA_JAEBV?$reverse_iterator@PEBD@0@0@Z
	??$?GUsteady_clock@chrono@std@@V?$duration@_JU?$ratio@$00$0DLJKMKAA@@std@@@12@V312@@chrono@std@@YA?AV?$duration@_JU?$ratio@$00$0DLJKMKAA@@std@@@01@AEBV?$time_point@Usteady_clock@chrono@std@@V?$duration@_JU?$ratio@$00$0DLJKMKAA@@std@@@23@@01@0@Z
	??$?GUsteady_clock@chrono@std@@V?$duration@_JU?$ratio@$00$0DLJKMKAA@@std@@@12@_JU?$ratio@$00$00@2@@chrono@std@@YA?AV?$time_point@Usteady_clock@chrono@std@@V?$duration@_JU?$ratio@$00$0DLJKMKAA@@std@@@23@@01@AEBV201@AEBV?$duration@_JU?$ratio@$00$00@std@@@01@@Z
	??$?GUsteady_clock@chrono@std@@V?$duration@_JU?$ratio@$00$0DLJKMKAA@@std@@@12@_JU?$ratio@$00$0DOI@@2@@chrono@std@@YA?AV?$time_point@Usteady_clock@chrono@std@@V?$duration@_JU?$ratio@$00$0DLJKMKAA@@std@@@23@@01@AEBV201@AEBV?$duration@_JU?$ratio@$00$0DOI@@std@@@01@@Z
	??$?GUsteady_clock@chrono@std@@V?$duration@_JU?$ratio@$00$0DLJKMKAA@@std@@@12@_JU?$ratio@$00$0PECEA@@2@@chrono@std@@YA?AV?$time_point@Usteady_clock@chrono@std@@V?$duration@_JU?$ratio@$00$0DLJKMKAA@@std@@@23@@01@AEBV201@AEBV?$duration@_JU?$ratio@$00$0PECEA@@std@@@01@@Z
	??$?GUsystem_clock@chrono@std@@V?$duration@_JU?$ratio@$00$0JIJGIA@@std@@@12@V312@@chrono@std@@YA?AV?$duration@_JU?$ratio@$00$0JIJGIA@@std@@@01@AEBV?$time_point@Usystem_clock@chrono@std@@V?$duration@_JU?$ratio@$00$0JIJGIA@@std@@@23@@01@0@Z
	??$?G_JU?$ratio@$00$0DLJKMKAA@@std@@_JU01@@chrono@std@@YA?AV?$duration@_JU?$ratio@$00$0DLJKMKAA@@std@@@01@AEBV201@0@Z
	??$?G_JU?$ratio@$00$0DLJKMKAA@@std@@_JU?$ratio@$00$00@1@@chrono@std@@YA?AV?$duration@_JU?$ratio@$00$0DLJKMKAA@@std@@@01@AEBV201@AEBV?$duration@_JU?$ratio@$00$00@std@@@01@@Z
	??$?G_JU?$ratio@$00$0DLJKMKAA@@std@@_JU?$ratio@$00$0DOI@@1@@chrono@std@@YA?AV?$duration@_JU?$ratio@$00$0DLJKMKAA@@std@@@01@AEBV201@AEBV?$duration@_JU?$ratio@$00$0DOI@@std@@@01@@Z
	??$?G_JU?$ratio@$00$0DLJKMKAA@@std@@_JU?$ratio@$00$0PECEA@@1@@chrono@std@@YA?AV?$duration@_JU?$ratio@$00$0DLJKMKAA@@std@@@01@AEBV201@AEBV?$duration@_JU?$ratio@$00$0PECEA@@std@@@01@@Z
	??$?G_JU?$ratio@$00$0JIJGIA@@std@@_JU01@@chrono@std@@YA?AV?$duration@_JU?$ratio@$00$0JIJGIA@@std@@@01@AEBV201@0@Z
	??$?HDU?$char_traits@D@std@@V?$allocator@D@1@@std@@YA?AV?$basic_string@DU?$char_traits@D@std@@V?$allocator@D@2@@0@$$QEAV10@0@Z
	??$?HDU?$char_traits@D@std@@V?$allocator@D@1@@std@@YA?AV?$basic_string@DU?$char_traits@D@std@@V?$allocator@D@2@@0@$$QEAV10@AEBV10@@Z
	??$?HDU?$char_traits@D@std@@V?$allocator@D@1@@std@@YA?AV?$basic_string@DU?$char_traits@D@std@@V?$allocator@D@2@@0@$$QEAV10@QEBD@Z
	??$?HDU?$char_traits@D@std@@V?$allocator@D@1@@std@@YA?AV?$basic_string@DU?$char_traits@D@std@@V?$allocator@D@2@@0@AEBV10@0@Z
	??$?HDU?$char_traits@D@std@@V?$allocator@D@1@@std@@YA?AV?$basic_string@DU?$char_traits@D@std@@V?$allocator@D@2@@0@AEBV10@QEBD@Z
	??$?HDU?$char_traits@D@std@@V?$allocator@D@1@@std@@YA?AV?$basic_string@DU?$char_traits@D@std@@V?$allocator@D@2@@0@QEBD$$QEAV10@@Z
	??$?HDU?$char_traits@D@std@@V?$allocator@D@1@@std@@YA?AV?$basic_string@DU?$char_traits@D@std@@V?$allocator@D@2@@0@QEBDAEBV10@@Z
	??$?HUsystem_clock@chrono@std@@V?$duration@_JU?$ratio@$00$0JIJGIA@@std@@@12@_JU?$ratio@$00$0PECEA@@2@@chrono@std@@YA?AV?$time_point@Usystem_clock@chrono@std@@V?$duration@_JU?$ratio@$00$0JIJGIA@@std@@@23@@01@AEBV201@AEBV?$duration@_JU?$ratio@$00$0PECEA@@std@@@01@@Z
	??$?H_JU?$ratio@$00$0JIJGIA@@std@@_JU?$ratio@$00$0PECEA@@1@@chrono@std@@YA?AV?$duration@_JU?$ratio@$00$0JIJGIA@@std@@@01@AEBV201@AEBV?$duration@_JU?$ratio@$00$0PECEA@@std@@@01@@Z
	??$?L_JU?$ratio@$00$0DOI@@std@@H@chrono@std@@YA?AV?$duration@_JU?$ratio@$00$0DOI@@std@@@01@AEBV201@AEBH@Z
	??$?M$$CBVMsgPack@msgpack11@@V01@$$CBV01@V01@@std@@YA_NAEBU?$pair@$$CBVMsgPack@msgpack11@@V12@@0@0@Z
	??$?MCV?$vector@EV?$allocator@E@std@@@std@@$$ZCV01@@std@@YA_NAEBV?$tuple@CV?$vector@EV?$allocator@E@std@@@std@@@0@0@Z
	??$?MDU?$char_traits@D@std@@V?$allocator@D@1@@std@@YA_NAEBV?$basic_string@DU?$char_traits@D@std@@V?$allocator@D@2@@0@0@Z
	??$?MEV?$allocator@E@std@@@std@@YA_NAEBV?$vector@EV?$allocator@E@std@@@0@0@Z
	??$?MNU?$ratio@$00$00@std@@_JU?$ratio@$00$0DLJKMKAA@@1@@chrono@std@@YA_NAEBV?$duration@NU?$ratio@$00$00@std@@@01@AEBV?$duration@_JU?$ratio@$00$0DLJKMKAA@@std@@@01@@Z
	??$?MNU?$ratio@$00$00@std@@_JU?$ratio@$00$0JIJGIA@@1@@chrono@std@@YA_NAEBV?$duration@NU?$ratio@$00$00@std@@@01@AEBV?$duration@_JU?$ratio@$00$0JIJGIA@@std@@@01@@Z
	??$?MUsteady_clock@chrono@std@@V?$duration@_JU?$ratio@$00$0DLJKMKAA@@std@@@12@V312@@chrono@std@@YA_NAEBV?$time_point@Usteady_clock@chrono@std@@V?$duration@_JU?$ratio@$00$0DLJKMKAA@@std@@@23@@01@0@Z
	??$?MUsystem_clock@chrono@std@@V?$duration@_JU?$ratio@$00$0JIJGIA@@std@@@12@V312@@chrono@std@@YA_NAEBV?$time_point@Usystem_clock@chrono@std@@V?$duration@_JU?$ratio@$00$0JIJGIA@@std@@@23@@01@0@Z
	??$?MVMsgPack@msgpack11@@V01@U?$less@VMsgPack@msgpack11@@@std@@V?$allocator@U?$pair@$$CBVMsgPack@msgpack11@@V12@@std@@@3@@std@@YA_NAEBV?$map@VMsgPack@msgpack11@@V12@U?$less@VMsgPack@msgpack11@@@std@@V?$allocator@U?$pair@$$CBVMsgPack@msgpack11@@V12@@std@@@4@@0@0@Z
	??$?MVMsgPack@msgpack11@@V?$allocator@VMsgPack@msgpack11@@@std@@@std@@YA_NAEBV?$vector@VMsgPack@msgpack11@@V?$allocator@VMsgPack@msgpack11@@@std@@@0@0@Z
	??$?M_JU?$ratio@$00$00@std@@_JU01@@chrono@std@@YA_NAEBV?$duration@_JU?$ratio@$00$00@std@@@01@0@Z
	??$?M_JU?$ratio@$00$0DLJKMKAA@@std@@_JU01@@chrono@std@@YA_NAEBV?$duration@_JU?$ratio@$00$0DLJKMKAA@@std@@@01@0@Z
	??$?M_JU?$ratio@$00$0DLJKMKAA@@std@@_JU?$ratio@$00$0DOI@@1@@chrono@std@@YA_NAEBV?$duration@_JU?$ratio@$00$0DLJKMKAA@@std@@@01@AEBV?$duration@_JU?$ratio@$00$0DOI@@std@@@01@@Z
	??$?M_JU?$ratio@$00$0DOI@@std@@_JU01@@chrono@std@@YA_NAEBV?$duration@_JU?$ratio@$00$0DOI@@std@@@01@0@Z
	??$?M_JU?$ratio@$00$0DOI@@std@@_JU?$ratio@$00$0DLJKMKAA@@1@@chrono@std@@YA_NAEBV?$duration@_JU?$ratio@$00$0DOI@@std@@@01@AEBV?$duration@_JU?$ratio@$00$0DLJKMKAA@@std@@@01@@Z
	??$?M_JU?$ratio@$00$0JIJGIA@@std@@_JU01@@chrono@std@@YA_NAEBV?$duration@_JU?$ratio@$00$0JIJGIA@@std@@@01@0@Z
	??$?M_JU?$ratio@$00$0PECEA@@std@@_JU01@@chrono@std@@YA_NAEBV?$duration@_JU?$ratio@$00$0PECEA@@std@@@01@0@Z
	??$?NUsteady_clock@chrono@std@@V?$duration@_JU?$ratio@$00$0DLJKMKAA@@std@@@12@V312@@chrono@std@@YA_NAEBV?$time_point@Usteady_clock@chrono@std@@V?$duration@_JU?$ratio@$00$0DLJKMKAA@@std@@@23@@01@0@Z
	??$?NUsystem_clock@chrono@std@@V?$duration@_JU?$ratio@$00$0JIJGIA@@std@@@12@V312@@chrono@std@@YA_NAEBV?$time_point@Usystem_clock@chrono@std@@V?$duration@_JU?$ratio@$00$0JIJGIA@@std@@@23@@01@0@Z
	??$?N_JU?$ratio@$00$0DOI@@std@@_JU01@@chrono@std@@YA_NAEBV?$duration@_JU?$ratio@$00$0DOI@@std@@@01@0@Z
	??$?O_JU?$ratio@$00$00@std@@_JU01@@chrono@std@@YA_NAEBV?$duration@_JU?$ratio@$00$00@std@@@01@0@Z
	??$?O_JU?$ratio@$00$0DOI@@std@@_JU01@@chrono@std@@YA_NAEBV?$duration@_JU?$ratio@$00$0DOI@@std@@@01@0@Z
	??$?O_JU?$ratio@$00$0PECEA@@std@@_JU01@@chrono@std@@YA_NAEBV?$duration@_JU?$ratio@$00$0PECEA@@std@@@01@0@Z
	??$?PUsystem_clock@chrono@std@@V?$duration@_JU?$ratio@$00$0JIJGIA@@std@@@12@V312@@chrono@std@@YA_NAEBV?$time_point@Usystem_clock@chrono@std@@V?$duration@_JU?$ratio@$00$0JIJGIA@@std@@@23@@01@0@Z
	??$?P_JU?$ratio@$00$0DLJKMKAA@@std@@_JU?$ratio@$00$0DOI@@1@@chrono@std@@YA_NAEBV?$duration@_JU?$ratio@$00$0DLJKMKAA@@std@@@01@AEBV?$duration@_JU?$ratio@$00$0DOI@@std@@@01@@Z
	??$?R$$V$0A@@?$_Binder@U_Unforced@std@@A6A?AVSerializedMessage@roswrap@@AEBU?$Imu_@V?$allocator@X@std@@@sensor_msgs@@@ZV?$reference_wrapper@$$CBU?$Imu_@V?$allocator@X@std@@@sensor_msgs@@@2@@std@@QEAA?A_TXZ
	??$?R$$V$0A@@?$_Binder@U_Unforced@std@@A6A?AVSerializedMessage@roswrap@@AEBU?$LFErecMsg_@V?$allocator@X@std@@@sick_scan_xd@@@ZV?$reference_wrapper@$$CBU?$LFErecMsg_@V?$allocator@X@std@@@sick_scan_xd@@@2@@std@@QEAA?A_TXZ
	??$?R$$V$0A@@?$_Binder@U_Unforced@std@@A6A?AVSerializedMessage@roswrap@@AEBU?$LIDinputstateMsg_@V?$allocator@X@std@@@sick_scan_xd@@@ZV?$reference_wrapper@$$CBU?$LIDinputstateMsg_@V?$allocator@X@std@@@sick_scan_xd@@@2@@std@@QEAA?A_TXZ
	??$?R$$V$0A@@?$_Binder@U_Unforced@std@@A6A?AVSerializedMessage@roswrap@@AEBU?$LIDoutputstateMsg_@V?$allocator@X@std@@@sick_scan_xd@@@ZV?$reference_wrapper@$$CBU?$LIDoutputstateMsg_@V?$allocator@X@std@@@sick_scan_xd@@@2@@std@@QEAA?A_TXZ
	??$?R$$V$0A@@?$_Binder@U_Unforced@std@@A6A?AVSerializedMessage@roswrap@@AEBU?$MarkerArray_@V?$allocator@X@std@@@visualization_msgs@@@ZV?$reference_wrapper@$$CBU?$MarkerArray_@V?$allocator@X@std@@@visualization_msgs@@@2@@std@@QEAA?A_TXZ
	??$?R$$V$0A@@?$_Binder@U_Unforced@std@@A6A?AVSerializedMessage@roswrap@@AEBU?$NAVLandmarkData_@V?$allocator@X@std@@@sick_scan_xd@@@ZV?$reference_wrapper@$$CBU?$NAVLandmarkData_@V?$allocator@X@std@@@sick_scan_xd@@@2@@std@@QEAA?A_TXZ
	??$?R$$V$0A@@?$_Binder@U_Unforced@std@@A6A?AVSerializedMessage@roswrap@@AEBU?$NAVPoseData_@V?$allocator@X@std@@@sick_scan_xd@@@ZV?$reference_wrapper@$$CBU?$NAVPoseData_@V?$allocator@X@std@@@sick_scan_xd@@@2@@std@@QEAA?A_TXZ
	??$?R$$V$0A@@?$_Binder@U_Unforced@std@@A6A?AVSerializedMessage@roswrap@@AEBU?$RadarScan_@V?$allocator@X@std@@@sick_scan_xd@@@ZV?$reference_wrapper@$$CBU?$RadarScan_@V?$allocator@X@std@@@sick_scan_xd@@@2@@std@@QEAA?A_TXZ
	??$?R$$V$0A@@?$_Binder@U_Unforced@std@@A6A?AVSerializedMessage@roswrap@@AEBU?$String_@V?$allocator@X@std@@@std_msgs@@@ZV?$reference_wrapper@$$CBU?$String_@V?$allocator@X@std@@@std_msgs@@@2@@std@@QEAA?A_TXZ
	??$?RAEAEAEAE@?$equal_to@X@std@@QEBA_NAEAE0@Z
	??$?RAEAEAEBE@?$equal_to@X@std@@QEBA_NAEAEAEBE@Z
	??$?RAEAU?$ColaMsgSrvRequest_@V?$allocator@X@std@@@sick_scan_xd@@AEAU?$ColaMsgSrvResponse_@V?$allocator@X@std@@@1@$0A@@?$_Binder@U_Unforced@std@@AEAP8SickScanServices@sick_scan_xd@@EAA_NAEAU?$ColaMsgSrvRequest_@V?$allocator@X@std@@@4@AEAU?$ColaMsgSrvResponse_@V?$allocator@X@std@@@4@@ZAEAPEAV34@AEBU?$_Ph@$00@2@AEBU?$_Ph@$01@2@@std@@QEAA?A_TAEAU?$ColaMsgSrvRequest_@V?$allocator@X@std@@@sick_scan_xd@@AEAU?$ColaMsgSrvResponse_@V?$allocator@X@std@@@3@@Z
	??$?RAEAU?$ECRChangeArrSrvRequest_@V?$allocator@X@std@@@sick_scan_xd@@AEAU?$ECRChangeArrSrvResponse_@V?$allocator@X@std@@@1@$0A@@?$_Binder@U_Unforced@std@@AEAP8SickScanServices@sick_scan_xd@@EAA_NAEAU?$ECRChangeArrSrvRequest_@V?$allocator@X@std@@@4@AEAU?$ECRChangeArrSrvResponse_@V?$allocator@X@std@@@4@@ZAEAPEAV34@AEBU?$_Ph@$00@2@AEBU?$_Ph@$01@2@@std@@QEAA?A_TAEAU?$ECRChangeArrSrvRequest_@V?$allocator@X@std@@@sick_scan_xd@@AEAU?$ECRChangeArrSrvResponse_@V?$allocator@X@std@@@3@@Z
	??$?RAEAU?$GetContaminationResultSrvRequest_@V?$allocator@X@std@@@sick_scan_xd@@AEAU?$GetContaminationResultSrvResponse_@V?$allocator@X@std@@@1@$0A@@?$_Binder@U_Unforced@std@@AEAP8SickScanServices@sick_scan_xd@@EAA_NAEAU?$GetContaminationResultSrvRequest_@V?$allocator@X@std@@@4@AEAU?$GetContaminationResultSrvResponse_@V?$allocator@X@std@@@4@@ZAEAPEAV34@AEBU?$_Ph@$00@2@AEBU?$_Ph@$01@2@@std@@QEAA?A_TAEAU?$GetContaminationResultSrvRequest_@V?$allocator@X@std@@@sick_scan_xd@@AEAU?$GetContaminationResultSrvResponse_@V?$allocator@X@std@@@3@@Z
	??$?RAEAU?$LIDoutputstateSrvRequest_@V?$allocator@X@std@@@sick_scan_xd@@AEAU?$LIDoutputstateSrvResponse_@V?$allocator@X@std@@@1@$0A@@?$_Binder@U_Unforced@std@@AEAP8SickScanServices@sick_scan_xd@@EAA_NAEAU?$LIDoutputstateSrvRequest_@V?$allocator@X@std@@@4@AEAU?$LIDoutputstateSrvResponse_@V?$allocator@X@std@@@4@@ZAEAPEAV34@AEBU?$_Ph@$00@2@AEBU?$_Ph@$01@2@@std@@QEAA?A_TAEAU?$LIDoutputstateSrvRequest_@V?$allocator@X@std@@@sick_scan_xd@@AEAU?$LIDoutputstateSrvResponse_@V?$allocator@X@std@@@3@@Z
	??$?RAEAU?$SCdevicestateSrvRequest_@V?$allocator@X@std@@@sick_scan_xd@@AEAU?$SCdevicestateSrvResponse_@V?$allocator@X@std@@@1@$0A@@?$_Binder@U_Unforced@std@@AEAP8SickScanServices@sick_scan_xd@@EAA_NAEAU?$SCdevicestateSrvRequest_@V?$allocator@X@std@@@4@AEAU?$SCdevicestateSrvResponse_@V?$allocator@X@std@@@4@@ZAEAPEAV34@AEBU?$_Ph@$00@2@AEBU?$_Ph@$01@2@@std@@QEAA?A_TAEAU?$SCdevicestateSrvRequest_@V?$allocator@X@std@@@sick_scan_xd@@AEAU?$SCdevicestateSrvResponse_@V?$allocator@X@std@@@3@@Z
	??$?RAEAU?$SCrebootSrvRequest_@V?$allocator@X@std@@@sick_scan_xd@@AEAU?$SCrebootSrvResponse_@V?$allocator@X@std@@@1@$0A@@?$_Binder@U_Unforced@std@@AEAP8SickScanServices@sick_scan_xd@@EAA_NAEAU?$SCrebootSrvRequest_@V?$allocator@X@std@@@4@AEAU?$SCrebootSrvResponse_@V?$allocator@X@std@@@4@@ZAEAPEAV34@AEBU?$_Ph@$00@2@AEBU?$_Ph@$01@2@@std@@QEAA?A_TAEAU?$SCrebootSrvRequest_@V?$allocator@X@std@@@sick_scan_xd@@AEAU?$SCrebootSrvResponse_@V?$allocator@X@std@@@3@@Z
	??$?RAEAU?$SCsoftresetSrvRequest_@V?$allocator@X@std@@@sick_scan_xd@@AEAU?$SCsoftresetSrvResponse_@V?$allocator@X@std@@@1@$0A@@?$_Binder@U_Unforced@std@@AEAP8SickScanServices@sick_scan_xd@@EAA_NAEAU?$SCsoftresetSrvRequest_@V?$allocator@X@std@@@4@AEAU?$SCsoftresetSrvResponse_@V?$allocator@X@std@@@4@@ZAEAPEAV34@AEBU?$_Ph@$00@2@AEBU?$_Ph@$01@2@@std@@QEAA?A_TAEAU?$SCsoftresetSrvRequest_@V?$allocator@X@std@@@sick_scan_xd@@AEAU?$SCsoftresetSrvResponse_@V?$allocator@X@std@@@3@@Z
	??$?RAEAU?$SickScanExitSrvRequest_@V?$allocator@X@std@@@sick_scan_xd@@AEAU?$SickScanExitSrvResponse_@V?$allocator@X@std@@@1@$0A@@?$_Binder@U_Unforced@std@@AEAP8SickScanServices@sick_scan_xd@@EAA_NAEAU?$SickScanExitSrvRequest_@V?$allocator@X@std@@@4@AEAU?$SickScanExitSrvResponse_@V?$allocator@X@std@@@4@@ZAEAPEAV34@AEBU?$_Ph@$00@2@AEBU?$_Ph@$01@2@@std@@QEAA?A_TAEAU?$SickScanExitSrvRequest_@V?$allocator@X@std@@@sick_scan_xd@@AEAU?$SickScanExitSrvResponse_@V?$allocator@X@std@@@3@@Z
	??$?RAEBDAEBD@?$equal_to@X@std@@QEBA_NAEBD0@Z
	??$?RAEBEAEBE@?$equal_to@X@std@@QEBA_NAEBE0@Z
	??$?RAEBEAEBE@?$less@X@std@@QEBA_NAEBE0@Z
	??$?RAEBU?$pair@$$CBVMsgPack@msgpack11@@V12@@std@@AEBU01@@?$equal_to@X@std@@QEBA_NAEBU?$pair@$$CBVMsgPack@msgpack11@@V12@@1@0@Z
	??$?RAEBU?$pair@$$CBVMsgPack@msgpack11@@V12@@std@@AEBU01@@?$less@X@std@@QEBA_NAEBU?$pair@$$CBVMsgPack@msgpack11@@V12@@1@0@Z
	??$?RAEBVMsgPack@msgpack11@@AEBV01@@?$equal_to@X@std@@QEBA_NAEBVMsgPack@msgpack11@@0@Z
	??$?RAEBVMsgPack@msgpack11@@AEBV01@@?$less@X@std@@QEBA_NAEBVMsgPack@msgpack11@@0@Z
	??$_Adl_verify_range@PEADPEAD@std@@YAXAEBQEAD0@Z
	??$_Adl_verify_range@PEAEPEAE@std@@YAXAEBQEAE0@Z
	??$_Adl_verify_range@PEAPEAV?$tuple@V?$vector@EV?$allocator@E@std@@@std@@V?$time_point@Usystem_clock@chrono@std@@V?$duration@_JU?$ratio@$00$0JIJGIA@@std@@@23@@chrono@2@_K@std@@PEAPEAV12@@std@@YAXAEBQEAPEAV?$tuple@V?$vector@EV?$allocator@E@std@@@std@@V?$time_point@Usystem_clock@chrono@std@@V?$duration@_JU?$ratio@$00$0JIJGIA@@std@@@23@@chrono@2@_K@0@0@Z
	??$_Adl_verify_range@PEAPEAV?$tuple@VScanSegmentParserOutput@sick_scansegment_xd@@V?$time_point@Usystem_clock@chrono@std@@V?$duration@_JU?$ratio@$00$0JIJGIA@@std@@@23@@chrono@std@@_K@std@@PEAPEAV12@@std@@YAXAEBQEAPEAV?$tuple@VScanSegmentParserOutput@sick_scansegment_xd@@V?$time_point@Usystem_clock@chrono@std@@V?$duration@_JU?$ratio@$00$0JIJGIA@@std@@@23@@chrono@std@@_K@0@0@Z
	??$_Adl_verify_range@PEBEPEBE@std@@YAXAEBQEBE0@Z
	??$_Adl_verify_range@PEBVMsgPack@msgpack11@@PEBV12@@std@@YAXAEBQEBVMsgPack@msgpack11@@0@Z
	??$_Adl_verify_range@V?$_Array_const_iterator@V?$tuple@EP6A?AVMsgPack@msgpack11@@AEAV?$basic_istream@DU?$char_traits@D@std@@@std@@EH@Z@std@@$0CE@@std@@V12@@std@@YAXAEBV?$_Array_const_iterator@V?$tuple@EP6A?AVMsgPack@msgpack11@@AEAV?$basic_istream@DU?$char_traits@D@std@@@std@@EH@Z@std@@$0CE@@0@0@Z
	??$_Adl_verify_range@V?$_String_const_iterator@V?$_String_val@U?$_Simple_types@D@std@@@std@@@std@@V12@@std@@YAXAEBV?$_String_const_iterator@V?$_String_val@U?$_Simple_types@D@std@@@std@@@0@0@Z
	??$_Adl_verify_range@V?$_String_iterator@V?$_String_val@U?$_Simple_types@D@std@@@std@@@std@@V12@@std@@YAXAEBV?$_String_iterator@V?$_String_val@U?$_Simple_types@D@std@@@std@@@0@0@Z
	??$_Adl_verify_range@V?$_Tree_const_iterator@V?$_Tree_val@U?$_Tree_simple_types@U?$pair@$$CBVMsgPack@msgpack11@@V12@@std@@@std@@@std@@@std@@V12@@std@@YAXAEBV?$_Tree_const_iterator@V?$_Tree_val@U?$_Tree_simple_types@U?$pair@$$CBVMsgPack@msgpack11@@V12@@std@@@std@@@std@@@0@0@Z
	??$_Adl_verify_range@V?$_Tree_unchecked_const_iterator@V?$_Tree_val@U?$_Tree_simple_types@U?$pair@$$CBVMsgPack@msgpack11@@V12@@std@@@std@@@std@@U_Iterator_base0@2@@std@@V12@@std@@YAXAEBV?$_Tree_unchecked_const_iterator@V?$_Tree_val@U?$_Tree_simple_types@U?$pair@$$CBVMsgPack@msgpack11@@V12@@std@@@std@@@std@@U_Iterator_base0@2@@0@0@Z
	??$_Adl_verify_range@V?$_Vb_iterator@U?$_Wrap_alloc@V?$allocator@I@std@@@std@@@std@@V12@@std@@YAXAEBV?$_Vb_iterator@U?$_Wrap_alloc@V?$allocator@I@std@@@std@@@0@0@Z
	??$_Adl_verify_range@V?$_Vector_const_iterator@V?$_Vector_val@U?$_Simple_types@H@std@@@std@@@std@@V12@@std@@YAXAEBV?$_Vector_const_iterator@V?$_Vector_val@U?$_Simple_types@H@std@@@std@@@0@0@Z
	??$_Adl_verify_range@V?$_Vector_const_iterator@V?$_Vector_val@U?$_Simple_types@VMsgPack@msgpack11@@@std@@@std@@@std@@V12@@std@@YAXAEBV?$_Vector_const_iterator@V?$_Vector_val@U?$_Simple_types@VMsgPack@msgpack11@@@std@@@std@@@0@0@Z
	??$_Adl_verify_range@V?$_Vector_const_iterator@V?$_Vector_val@U?$_Simple_types@VPointXYZRAEI32f@sick_scansegment_xd@@@std@@@std@@@std@@V12@@std@@YAXAEBV?$_Vector_const_iterator@V?$_Vector_val@U?$_Simple_types@VPointXYZRAEI32f@sick_scansegment_xd@@@std@@@std@@@0@0@Z
	??$_Adl_verify_range@V?$_Vector_iterator@V?$_Vector_val@U?$_Simple_types@E@std@@@std@@@std@@V12@@std@@YAXAEBV?$_Vector_iterator@V?$_Vector_val@U?$_Simple_types@E@std@@@std@@@0@0@Z
	??$_Adl_verify_range@V?$_Vector_iterator@V?$_Vector_val@U?$_Simple_types@M@std@@@std@@@std@@V12@@std@@YAXAEBV?$_Vector_iterator@V?$_Vector_val@U?$_Simple_types@M@std@@@std@@@0@0@Z
	??$_Adl_verify_range@V?$_Vector_iterator@V?$_Vector_val@U?$_Simple_types@VNAV350ImkLandmark@sick_scan_xd@@@std@@@std@@@std@@V12@@std@@YAXAEBV?$_Vector_iterator@V?$_Vector_val@U?$_Simple_types@VNAV350ImkLandmark@sick_scan_xd@@@std@@@std@@@0@0@Z
	??$_Adl_verify_range@V?$istreambuf_iterator@DU?$char_traits@D@std@@@std@@V12@@std@@YAXAEBV?$istreambuf_iterator@DU?$char_traits@D@std@@@0@0@Z
	??$_Adl_verify_range@V?$reverse_iterator@V?$_String_const_iterator@V?$_String_val@U?$_Simple_types@D@std@@@std@@@std@@@std@@V12@@std@@YAXAEBV?$reverse_iterator@V?$_String_const_iterator@V?$_String_val@U?$_Simple_types@D@std@@@std@@@std@@@0@0@Z
	??$_Alloc_proxy@V?$allocator@U_Container_proxy@std@@@std@@@_Container_base12@std@@QEAAX$$QEAV?$allocator@U_Container_proxy@std@@@1@@Z
	??$_Allocate@$0BA@U_Default_allocate_traits@std@@$0A@@std@@YAPEAX_K@Z
	??$_Allocate_at_least_helper@V?$allocator@D@std@@@std@@YAPEADAEAV?$allocator@D@0@AEA_K@Z
	??$_Allocate_at_least_helper@V?$allocator@E@std@@@std@@YAPEAEAEAV?$allocator@E@0@AEA_K@Z
	??$_Allocate_at_least_helper@V?$allocator@G@std@@@std@@YAPEAGAEAV?$allocator@G@0@AEA_K@Z
	??$_Allocate_at_least_helper@V?$allocator@H@std@@@std@@YAPEAHAEAV?$allocator@H@0@AEA_K@Z
	??$_Allocate_at_least_helper@V?$allocator@I@std@@@std@@YAPEAIAEAV?$allocator@I@0@AEA_K@Z
	??$_Allocate_at_least_helper@V?$allocator@M@std@@@std@@YAPEAMAEAV?$allocator@M@0@AEA_K@Z
	??$_Allocate_at_least_helper@V?$allocator@N@std@@@std@@YAPEANAEAV?$allocator@N@0@AEA_K@Z
	??$_Allocate_at_least_helper@V?$allocator@PEAD@std@@@std@@YAPEAPEADAEAV?$allocator@PEAD@0@AEA_K@Z
	??$_Allocate_at_least_helper@V?$allocator@PEAV?$tuple@V?$vector@EV?$allocator@E@std@@@std@@V?$time_point@Usystem_clock@chrono@std@@V?$duration@_JU?$ratio@$00$0JIJGIA@@std@@@23@@chrono@2@_K@std@@@std@@@std@@YAPEAPEAV?$tuple@V?$vector@EV?$allocator@E@std@@@std@@V?$time_point@Usystem_clock@chrono@std@@V?$duration@_JU?$ratio@$00$0JIJGIA@@std@@@23@@chrono@2@_K@0@AEAV?$allocator@PEAV?$tuple@V?$vector@EV?$allocator@E@std@@@std@@V?$time_point@Usystem_clock@chrono@std@@V?$duration@_JU?$ratio@$00$0JIJGIA@@std@@@23@@chrono@2@_K@std@@@0@AEA_K@Z
	??$_Allocate_at_least_helper@V?$allocator@PEAV?$tuple@VScanSegmentParserOutput@sick_scansegment_xd@@V?$time_point@Usystem_clock@chrono@std@@V?$duration@_JU?$ratio@$00$0JIJGIA@@std@@@23@@chrono@std@@_K@std@@@std@@@std@@YAPEAPEAV?$tuple@VScanSegmentParserOutput@sick_scansegment_xd@@V?$time_point@Usystem_clock@chrono@std@@V?$duration@_JU?$ratio@$00$0JIJGIA@@std@@@23@@chrono@std@@_K@0@AEAV?$allocator@PEAV?$tuple@VScanSegmentParserOutput@sick_scansegment_xd@@V?$time_point@Usystem_clock@chrono@std@@V?$duration@_JU?$ratio@$00$0JIJGIA@@std@@@23@@chrono@std@@_K@std@@@0@AEA_K@Z
	??$_Allocate_at_least_helper@V?$allocator@PEAX@std@@@std@@YAPEAPEAXAEAV?$allocator@PEAX@0@AEA_K@Z
	??$_Allocate_at_least_helper@V?$allocator@U?$ColorRGBA_@V?$allocator@X@std@@@std_msgs@@@std@@@std@@YAPEAU?$ColorRGBA_@V?$allocator@X@std@@@std_msgs@@AEAV?$allocator@U?$ColorRGBA_@V?$allocator@X@std@@@std_msgs@@@0@AEA_K@Z
	??$_Allocate_at_least_helper@V?$allocator@U?$LFErecFieldMsg_@V?$allocator@X@std@@@sick_scan_xd@@@std@@@std@@YAPEAU?$LFErecFieldMsg_@V?$allocator@X@std@@@sick_scan_xd@@AEAV?$allocator@U?$LFErecFieldMsg_@V?$allocator@X@std@@@sick_scan_xd@@@0@AEA_K@Z
	??$_Allocate_at_least_helper@V?$allocator@U?$Marker_@V?$allocator@X@std@@@visualization_msgs@@@std@@@std@@YAPEAU?$Marker_@V?$allocator@X@std@@@visualization_msgs@@AEAV?$allocator@U?$Marker_@V?$allocator@X@std@@@visualization_msgs@@@0@AEA_K@Z
	??$_Allocate_at_least_helper@V?$allocator@U?$NAVReflectorData_@V?$allocator@X@std@@@sick_scan_xd@@@std@@@std@@YAPEAU?$NAVReflectorData_@V?$allocator@X@std@@@sick_scan_xd@@AEAV?$allocator@U?$NAVReflectorData_@V?$allocator@X@std@@@sick_scan_xd@@@0@AEA_K@Z
	??$_Allocate_at_least_helper@V?$allocator@U?$PointField_@V?$allocator@X@std@@@sensor_msgs@@@std@@@std@@YAPEAU?$PointField_@V?$allocator@X@std@@@sensor_msgs@@AEAV?$allocator@U?$PointField_@V?$allocator@X@std@@@sensor_msgs@@@0@AEA_K@Z
	??$_Allocate_at_least_helper@V?$allocator@U?$Point_@V?$allocator@X@std@@@geometry_msgs@@@std@@@std@@YAPEAU?$Point_@V?$allocator@X@std@@@geometry_msgs@@AEAV?$allocator@U?$Point_@V?$allocator@X@std@@@geometry_msgs@@@0@AEA_K@Z
	??$_Allocate_at_least_helper@V?$allocator@U?$RadarObject_@V?$allocator@X@std@@@sick_scan_xd@@@std@@@std@@YAPEAU?$RadarObject_@V?$allocator@X@std@@@sick_scan_xd@@AEAV?$allocator@U?$RadarObject_@V?$allocator@X@std@@@sick_scan_xd@@@0@AEA_K@Z
	??$_Allocate_at_least_helper@V?$allocator@U?$RadarPreHeaderEncoderBlock_@V?$allocator@X@std@@@sick_scan_xd@@@std@@@std@@YAPEAU?$RadarPreHeaderEncoderBlock_@V?$allocator@X@std@@@sick_scan_xd@@AEAV?$allocator@U?$RadarPreHeaderEncoderBlock_@V?$allocator@X@std@@@sick_scan_xd@@@0@AEA_K@Z
	??$_Allocate_at_least_helper@V?$allocator@U?$SickLdmrsObject_@V?$allocator@X@std@@@sick_scan_xd@@@std@@@std@@YAPEAU?$SickLdmrsObject_@V?$allocator@X@std@@@sick_scan_xd@@AEAV?$allocator@U?$SickLdmrsObject_@V?$allocator@X@std@@@sick_scan_xd@@@0@AEA_K@Z
	??$_Allocate_at_least_helper@V?$allocator@USickScanPointFieldMsgType@@@std@@@std@@YAPEAUSickScanPointFieldMsgType@@AEAV?$allocator@USickScanPointFieldMsgType@@@0@AEA_K@Z
	??$_Allocate_at_least_helper@V?$allocator@V?$basic_string@DU?$char_traits@D@std@@V?$allocator@D@2@@std@@@std@@@std@@YAPEAV?$basic_string@DU?$char_traits@D@std@@V?$allocator@D@2@@0@AEAV?$allocator@V?$basic_string@DU?$char_traits@D@std@@V?$allocator@D@2@@std@@@0@AEA_K@Z
	??$_Allocate_at_least_helper@V?$allocator@V?$vector@EV?$allocator@E@std@@@std@@@std@@@std@@YAPEAV?$vector@EV?$allocator@E@std@@@0@AEAV?$allocator@V?$vector@EV?$allocator@E@std@@@std@@@0@AEA_K@Z
	??$_Allocate_at_least_helper@V?$allocator@V?$vector@V?$basic_string@DU?$char_traits@D@std@@V?$allocator@D@2@@std@@V?$allocator@V?$basic_string@DU?$char_traits@D@std@@V?$allocator@D@2@@std@@@2@@std@@@std@@@std@@YAPEAV?$vector@V?$basic_string@DU?$char_traits@D@std@@V?$allocator@D@2@@std@@V?$allocator@V?$basic_string@DU?$char_traits@D@std@@V?$allocator@D@2@@std@@@2@@0@AEAV?$allocator@V?$vector@V?$basic_string@DU?$char_traits@D@std@@V?$allocator@D@2@@std@@V?$allocator@V?$basic_string@DU?$char_traits@D@std@@V?$allocator@D@2@@std@@@2@@std@@@0@AEA_K@Z
	??$_Allocate_at_least_helper@V?$allocator@V?$vector@VPointXYZRAEI32f@sick_scansegment_xd@@V?$allocator@VPointXYZRAEI32f@sick_scansegment_xd@@@std@@@std@@@std@@@std@@YAPEAV?$vector@VPointXYZRAEI32f@sick_scansegment_xd@@V?$allocator@VPointXYZRAEI32f@sick_scansegment_xd@@@std@@@0@AEAV?$allocator@V?$vector@VPointXYZRAEI32f@sick_scansegment_xd@@V?$allocator@VPointXYZRAEI32f@sick_scansegment_xd@@@std@@@std@@@0@AEA_K@Z
	??$_Allocate_at_least_helper@V?$allocator@VCompactModuleData@sick_scansegment_xd@@@std@@@std@@YAPEAVCompactModuleData@sick_scansegment_xd@@AEAV?$allocator@VCompactModuleData@sick_scansegment_xd@@@0@AEA_K@Z
	??$_Allocate_at_least_helper@V?$allocator@VCustomPointCloudConfiguration@sick_scansegment_xd@@@std@@@std@@YAPEAVCustomPointCloudConfiguration@sick_scansegment_xd@@AEAV?$allocator@VCustomPointCloudConfiguration@sick_scansegment_xd@@@0@AEA_K@Z
	??$_Allocate_at_least_helper@V?$allocator@VFieldInfo@SickScanMarker@sick_scan_xd@@@std@@@std@@YAPEAVFieldInfo@SickScanMarker@sick_scan_xd@@AEAV?$allocator@VFieldInfo@SickScanMarker@sick_scan_xd@@@0@AEA_K@Z
	??$_Allocate_at_least_helper@V?$allocator@VLMPscancfgSector@SickScanParseUtil@sick_scan_xd@@@std@@@std@@YAPEAVLMPscancfgSector@SickScanParseUtil@sick_scan_xd@@AEAV?$allocator@VLMPscancfgSector@SickScanParseUtil@sick_scan_xd@@@0@AEA_K@Z
	??$_Allocate_at_least_helper@V?$allocator@VLidarPoint@ScanSegmentParserOutput@sick_scansegment_xd@@@std@@@std@@YAPEAVLidarPoint@ScanSegmentParserOutput@sick_scansegment_xd@@AEAV?$allocator@VLidarPoint@ScanSegmentParserOutput@sick_scansegment_xd@@@0@AEA_K@Z
	??$_Allocate_at_least_helper@V?$allocator@VMsgPack@msgpack11@@@std@@@std@@YAPEAVMsgPack@msgpack11@@AEAV?$allocator@VMsgPack@msgpack11@@@0@AEA_K@Z
	??$_Allocate_at_least_helper@V?$allocator@VMsgPackElement@@@std@@@std@@YAPEAVMsgPackElement@@AEAV?$allocator@VMsgPackElement@@@0@AEA_K@Z
	??$_Allocate_at_least_helper@V?$allocator@VMsgPackToFloat32VectorConverter@@@std@@@std@@YAPEAVMsgPackToFloat32VectorConverter@@AEAV?$allocator@VMsgPackToFloat32VectorConverter@@@0@AEA_K@Z
	??$_Allocate_at_least_helper@V?$allocator@VNAV350ImkLandmark@sick_scan_xd@@@std@@@std@@YAPEAVNAV350ImkLandmark@sick_scan_xd@@AEAV?$allocator@VNAV350ImkLandmark@sick_scan_xd@@@0@AEA_K@Z
	??$_Allocate_at_least_helper@V?$allocator@VNAV350ReflectorData@sick_scan_xd@@@std@@@std@@YAPEAVNAV350ReflectorData@sick_scan_xd@@AEAV?$allocator@VNAV350ReflectorData@sick_scan_xd@@@0@AEA_K@Z
	??$_Allocate_at_least_helper@V?$allocator@VNAV350ScanData@sick_scan_xd@@@std@@@std@@YAPEAVNAV350ScanData@sick_scan_xd@@AEAV?$allocator@VNAV350ScanData@sick_scan_xd@@@0@AEA_K@Z
	??$_Allocate_at_least_helper@V?$allocator@VPointCloudFieldProperty@sick_scansegment_xd@@@std@@@std@@YAPEAVPointCloudFieldProperty@sick_scansegment_xd@@AEAV?$allocator@VPointCloudFieldProperty@sick_scansegment_xd@@@0@AEA_K@Z
	??$_Allocate_at_least_helper@V?$allocator@VPointXYZRAEI32f@sick_scansegment_xd@@@std@@@std@@YAPEAVPointXYZRAEI32f@sick_scansegment_xd@@AEAV?$allocator@VPointXYZRAEI32f@sick_scansegment_xd@@@0@AEA_K@Z
	??$_Allocate_at_least_helper@V?$allocator@VRadarDatagramField@sick_scan_xd@@@std@@@std@@YAPEAVRadarDatagramField@sick_scan_xd@@AEAV?$allocator@VRadarDatagramField@sick_scan_xd@@@0@AEA_K@Z
	??$_Allocate_at_least_helper@V?$allocator@VScanSegmentParserOutput@sick_scansegment_xd@@@std@@@std@@YAPEAVScanSegmentParserOutput@sick_scansegment_xd@@AEAV?$allocator@VScanSegmentParserOutput@sick_scansegment_xd@@@0@AEA_K@Z
	??$_Allocate_at_least_helper@V?$allocator@VScangroup@ScanSegmentParserOutput@sick_scansegment_xd@@@std@@@std@@YAPEAVScangroup@ScanSegmentParserOutput@sick_scansegment_xd@@AEAV?$allocator@VScangroup@ScanSegmentParserOutput@sick_scansegment_xd@@@0@AEA_K@Z
	??$_Allocate_at_least_helper@V?$allocator@VScanline@ScanSegmentParserOutput@sick_scansegment_xd@@@std@@@std@@YAPEAVScanline@ScanSegmentParserOutput@sick_scansegment_xd@@AEAV?$allocator@VScanline@ScanSegmentParserOutput@sick_scansegment_xd@@@0@AEA_K@Z
	??$_Allocate_at_least_helper@V?$allocator@VScannerBasicParam@sick_scan_xd@@@std@@@std@@YAPEAVScannerBasicParam@sick_scan_xd@@AEAV?$allocator@VScannerBasicParam@sick_scan_xd@@@0@AEA_K@Z
	??$_Allocate_at_least_helper@V?$allocator@VSickScanMonField@sick_scan_xd@@@std@@@std@@YAPEAVSickScanMonField@sick_scan_xd@@AEAV?$allocator@VSickScanMonField@sick_scan_xd@@@0@AEA_K@Z
	??$_Allocate_at_least_helper@V?$allocator@VSickScanRadarObject@sick_scan_xd@@@std@@@std@@YAPEAVSickScanRadarObject@sick_scan_xd@@AEAV?$allocator@VSickScanRadarObject@sick_scan_xd@@@0@AEA_K@Z
	??$_Allocate_at_least_helper@V?$allocator@VSickScanRadarRawTarget@sick_scan_xd@@@std@@@std@@YAPEAVSickScanRadarRawTarget@sick_scan_xd@@AEAV?$allocator@VSickScanRadarRawTarget@sick_scan_xd@@@0@AEA_K@Z
	??$_Allocate_at_least_helper@V?$allocator@VparamEntryAscii@@@std@@@std@@YAPEAVparamEntryAscii@@AEAV?$allocator@VparamEntryAscii@@@0@AEA_K@Z
	??$_Allocate_at_least_helper@V?$allocator@W4ReadBeamAzimOrderEnum@@@std@@@std@@YAPEAW4ReadBeamAzimOrderEnum@@AEAV?$allocator@W4ReadBeamAzimOrderEnum@@@0@AEA_K@Z
	??$_Allocate_at_least_helper@V?$allocator@_K@std@@@std@@YAPEA_KAEAV?$allocator@_K@0@AEA_K@Z
	??$_Allocate_for_capacity@$0A@@?$basic_string@DU?$char_traits@D@std@@V?$allocator@D@2@@std@@CAPEADAEAV?$allocator@D@1@AEA_K@Z
	??$_Allocate_manually_vector_aligned@U_Default_allocate_traits@std@@@std@@YAPEAX_K@Z
	??$_Allocators_equal@V?$allocator@D@std@@@std@@YA_NAEBV?$allocator@D@0@0@Z
	??$_Append_range_unchecked@V?$_List_unchecked_const_iterator@V?$_List_val@U?$_List_simple_types@P6AXPEAVNodeHandle@roswrap@@PEBU?$Imu_@V?$allocator@X@std@@@sensor_msgs@@@Z@std@@@std@@U_Iterator_base0@2@@std@@V12@@?$_List_node_insert_op2@V?$allocator@U?$_List_node@P6AXPEAVNodeHandle@roswrap@@PEBU?$Imu_@V?$allocator@X@std@@@sensor_msgs@@@ZPEAX@std@@@std@@@std@@QEAAXV?$_List_unchecked_const_iterator@V?$_List_val@U?$_List_simple_types@P6AXPEAVNodeHandle@roswrap@@PEBU?$Imu_@V?$allocator@X@std@@@sensor_msgs@@@Z@std@@@std@@U_Iterator_base0@2@@1@V21@@Z
	??$_Append_range_unchecked@V?$_List_unchecked_const_iterator@V?$_List_val@U?$_List_simple_types@P6AXPEAVNodeHandle@roswrap@@PEBU?$LFErecMsg_@V?$allocator@X@std@@@sick_scan_xd@@@Z@std@@@std@@U_Iterator_base0@2@@std@@V12@@?$_List_node_insert_op2@V?$allocator@U?$_List_node@P6AXPEAVNodeHandle@roswrap@@PEBU?$LFErecMsg_@V?$allocator@X@std@@@sick_scan_xd@@@ZPEAX@std@@@std@@@std@@QEAAXV?$_List_unchecked_const_iterator@V?$_List_val@U?$_List_simple_types@P6AXPEAVNodeHandle@roswrap@@PEBU?$LFErecMsg_@V?$allocator@X@std@@@sick_scan_xd@@@Z@std@@@std@@U_Iterator_base0@2@@1@V21@@Z
	??$_Append_range_unchecked@V?$_List_unchecked_const_iterator@V?$_List_val@U?$_List_simple_types@P6AXPEAVNodeHandle@roswrap@@PEBU?$LIDoutputstateMsg_@V?$allocator@X@std@@@sick_scan_xd@@@Z@std@@@std@@U_Iterator_base0@2@@std@@V12@@?$_List_node_insert_op2@V?$allocator@U?$_List_node@P6AXPEAVNodeHandle@roswrap@@PEBU?$LIDoutputstateMsg_@V?$allocator@X@std@@@sick_scan_xd@@@ZPEAX@std@@@std@@@std@@QEAAXV?$_List_unchecked_const_iterator@V?$_List_val@U?$_List_simple_types@P6AXPEAVNodeHandle@roswrap@@PEBU?$LIDoutputstateMsg_@V?$allocator@X@std@@@sick_scan_xd@@@Z@std@@@std@@U_Iterator_base0@2@@1@V21@@Z
	??$_Append_range_unchecked@V?$_List_unchecked_const_iterator@V?$_List_val@U?$_List_simple_types@P6AXPEAVNodeHandle@roswrap@@PEBU?$MarkerArray_@V?$allocator@X@std@@@visualization_msgs@@@Z@std@@@std@@U_Iterator_base0@2@@std@@V12@@?$_List_node_insert_op2@V?$allocator@U?$_List_node@P6AXPEAVNodeHandle@roswrap@@PEBU?$MarkerArray_@V?$allocator@X@std@@@visualization_msgs@@@ZPEAX@std@@@std@@@std@@QEAAXV?$_List_unchecked_const_iterator@V?$_List_val@U?$_List_simple_types@P6AXPEAVNodeHandle@roswrap@@PEBU?$MarkerArray_@V?$allocator@X@std@@@visualization_msgs@@@Z@std@@@std@@U_Iterator_base0@2@@1@V21@@Z
	??$_Append_range_unchecked@V?$_List_unchecked_const_iterator@V?$_List_val@U?$_List_simple_types@P6AXPEAVNodeHandle@roswrap@@PEBU?$RadarScan_@V?$allocator@X@std@@@sick_scan_xd@@@Z@std@@@std@@U_Iterator_base0@2@@std@@V12@@?$_List_node_insert_op2@V?$allocator@U?$_List_node@P6AXPEAVNodeHandle@roswrap@@PEBU?$RadarScan_@V?$allocator@X@std@@@sick_scan_xd@@@ZPEAX@std@@@std@@@std@@QEAAXV?$_List_unchecked_const_iterator@V?$_List_val@U?$_List_simple_types@P6AXPEAVNodeHandle@roswrap@@PEBU?$RadarScan_@V?$allocator@X@std@@@sick_scan_xd@@@Z@std@@@std@@U_Iterator_base0@2@@1@V21@@Z
	??$_Append_range_unchecked@V?$_List_unchecked_const_iterator@V?$_List_val@U?$_List_simple_types@P6AXPEAVNodeHandle@roswrap@@PEBU?$SickLdmrsObjectArray_@V?$allocator@X@std@@@sick_scan_xd@@@Z@std@@@std@@U_Iterator_base0@2@@std@@V12@@?$_List_node_insert_op2@V?$allocator@U?$_List_node@P6AXPEAVNodeHandle@roswrap@@PEBU?$SickLdmrsObjectArray_@V?$allocator@X@std@@@sick_scan_xd@@@ZPEAX@std@@@std@@@std@@QEAAXV?$_List_unchecked_const_iterator@V?$_List_val@U?$_List_simple_types@P6AXPEAVNodeHandle@roswrap@@PEBU?$SickLdmrsObjectArray_@V?$allocator@X@std@@@sick_scan_xd@@@Z@std@@@std@@U_Iterator_base0@2@@1@V21@@Z
	??$_Append_range_unchecked@V?$_List_unchecked_const_iterator@V?$_List_val@U?$_List_simple_types@P6AXPEAVNodeHandle@roswrap@@PEBUPointCloud2withEcho@sick_scan_xd@@@Z@std@@@std@@U_Iterator_base0@2@@std@@V12@@?$_List_node_insert_op2@V?$allocator@U?$_List_node@P6AXPEAVNodeHandle@roswrap@@PEBUPointCloud2withEcho@sick_scan_xd@@@ZPEAX@std@@@std@@@std@@QEAAXV?$_List_unchecked_const_iterator@V?$_List_val@U?$_List_simple_types@P6AXPEAVNodeHandle@roswrap@@PEBUPointCloud2withEcho@sick_scan_xd@@@Z@std@@@std@@U_Iterator_base0@2@@1@V21@@Z
	??$_Append_range_unchecked@V?$_List_unchecked_const_iterator@V?$_List_val@U?$_List_simple_types@P6AXPEAVNodeHandle@roswrap@@PEBVNAV350mNPOSData@sick_scan_xd@@@Z@std@@@std@@U_Iterator_base0@2@@std@@V12@@?$_List_node_insert_op2@V?$allocator@U?$_List_node@P6AXPEAVNodeHandle@roswrap@@PEBVNAV350mNPOSData@sick_scan_xd@@@ZPEAX@std@@@std@@@std@@QEAAXV?$_List_unchecked_const_iterator@V?$_List_val@U?$_List_simple_types@P6AXPEAVNodeHandle@roswrap@@PEBVNAV350mNPOSData@sick_scan_xd@@@Z@std@@@std@@U_Iterator_base0@2@@1@V21@@Z
	??$_Append_range_unchecked@V?$_List_unchecked_const_iterator@V?$_List_val@U?$_List_simple_types@P6AXPEAXPEBUSickScanDiagnosticMsgType@@@Z@std@@@std@@U_Iterator_base0@2@@std@@V12@@?$_List_node_insert_op2@V?$allocator@U?$_List_node@P6AXPEAXPEBUSickScanDiagnosticMsgType@@@ZPEAX@std@@@std@@@std@@QEAAXV?$_List_unchecked_const_iterator@V?$_List_val@U?$_List_simple_types@P6AXPEAXPEBUSickScanDiagnosticMsgType@@@Z@std@@@std@@U_Iterator_base0@2@@1@V21@@Z
	??$_Append_range_unchecked@V?$_List_unchecked_const_iterator@V?$_List_val@U?$_List_simple_types@P6AXPEAXPEBUSickScanImuMsgType@@@Z@std@@@std@@U_Iterator_base0@2@@std@@V12@@?$_List_node_insert_op2@V?$allocator@U?$_List_node@P6AXPEAXPEBUSickScanImuMsgType@@@ZPEAX@std@@@std@@@std@@QEAAXV?$_List_unchecked_const_iterator@V?$_List_val@U?$_List_simple_types@P6AXPEAXPEBUSickScanImuMsgType@@@Z@std@@@std@@U_Iterator_base0@2@@1@V21@@Z
	??$_Append_range_unchecked@V?$_List_unchecked_const_iterator@V?$_List_val@U?$_List_simple_types@P6AXPEAXPEBUSickScanLFErecMsgType@@@Z@std@@@std@@U_Iterator_base0@2@@std@@V12@@?$_List_node_insert_op2@V?$allocator@U?$_List_node@P6AXPEAXPEBUSickScanLFErecMsgType@@@ZPEAX@std@@@std@@@std@@QEAAXV?$_List_unchecked_const_iterator@V?$_List_val@U?$_List_simple_types@P6AXPEAXPEBUSickScanLFErecMsgType@@@Z@std@@@std@@U_Iterator_base0@2@@1@V21@@Z
	??$_Append_range_unchecked@V?$_List_unchecked_const_iterator@V?$_List_val@U?$_List_simple_types@P6AXPEAXPEBUSickScanLIDoutputstateMsgType@@@Z@std@@@std@@U_Iterator_base0@2@@std@@V12@@?$_List_node_insert_op2@V?$allocator@U?$_List_node@P6AXPEAXPEBUSickScanLIDoutputstateMsgType@@@ZPEAX@std@@@std@@@std@@QEAAXV?$_List_unchecked_const_iterator@V?$_List_val@U?$_List_simple_types@P6AXPEAXPEBUSickScanLIDoutputstateMsgType@@@Z@std@@@std@@U_Iterator_base0@2@@1@V21@@Z
	??$_Append_range_unchecked@V?$_List_unchecked_const_iterator@V?$_List_val@U?$_List_simple_types@P6AXPEAXPEBUSickScanLdmrsObjectArrayType@@@Z@std@@@std@@U_Iterator_base0@2@@std@@V12@@?$_List_node_insert_op2@V?$allocator@U?$_List_node@P6AXPEAXPEBUSickScanLdmrsObjectArrayType@@@ZPEAX@std@@@std@@@std@@QEAAXV?$_List_unchecked_const_iterator@V?$_List_val@U?$_List_simple_types@P6AXPEAXPEBUSickScanLdmrsObjectArrayType@@@Z@std@@@std@@U_Iterator_base0@2@@1@V21@@Z
	??$_Append_range_unchecked@V?$_List_unchecked_const_iterator@V?$_List_val@U?$_List_simple_types@P6AXPEAXPEBUSickScanLogMsgType@@@Z@std@@@std@@U_Iterator_base0@2@@std@@V12@@?$_List_node_insert_op2@V?$allocator@U?$_List_node@P6AXPEAXPEBUSickScanLogMsgType@@@ZPEAX@std@@@std@@@std@@QEAAXV?$_List_unchecked_const_iterator@V?$_List_val@U?$_List_simple_types@P6AXPEAXPEBUSickScanLogMsgType@@@Z@std@@@std@@U_Iterator_base0@2@@1@V21@@Z
	??$_Append_range_unchecked@V?$_List_unchecked_const_iterator@V?$_List_val@U?$_List_simple_types@P6AXPEAXPEBUSickScanNavPoseLandmarkMsgType@@@Z@std@@@std@@U_Iterator_base0@2@@std@@V12@@?$_List_node_insert_op2@V?$allocator@U?$_List_node@P6AXPEAXPEBUSickScanNavPoseLandmarkMsgType@@@ZPEAX@std@@@std@@@std@@QEAAXV?$_List_unchecked_const_iterator@V?$_List_val@U?$_List_simple_types@P6AXPEAXPEBUSickScanNavPoseLandmarkMsgType@@@Z@std@@@std@@U_Iterator_base0@2@@1@V21@@Z
	??$_Append_range_unchecked@V?$_List_unchecked_const_iterator@V?$_List_val@U?$_List_simple_types@P6AXPEAXPEBUSickScanPointCloudMsgType@@@Z@std@@@std@@U_Iterator_base0@2@@std@@V12@@?$_List_node_insert_op2@V?$allocator@U?$_List_node@P6AXPEAXPEBUSickScanPointCloudMsgType@@@ZPEAX@std@@@std@@@std@@QEAAXV?$_List_unchecked_const_iterator@V?$_List_val@U?$_List_simple_types@P6AXPEAXPEBUSickScanPointCloudMsgType@@@Z@std@@@std@@U_Iterator_base0@2@@1@V21@@Z
	??$_Append_range_unchecked@V?$_List_unchecked_const_iterator@V?$_List_val@U?$_List_simple_types@P6AXPEAXPEBUSickScanRadarScanType@@@Z@std@@@std@@U_Iterator_base0@2@@std@@V12@@?$_List_node_insert_op2@V?$allocator@U?$_List_node@P6AXPEAXPEBUSickScanRadarScanType@@@ZPEAX@std@@@std@@@std@@QEAAXV?$_List_unchecked_const_iterator@V?$_List_val@U?$_List_simple_types@P6AXPEAXPEBUSickScanRadarScanType@@@Z@std@@@std@@U_Iterator_base0@2@@1@V21@@Z
	??$_Append_range_unchecked@V?$_List_unchecked_const_iterator@V?$_List_val@U?$_List_simple_types@P6AXPEAXPEBUSickScanVisualizationMarkerMsgType@@@Z@std@@@std@@U_Iterator_base0@2@@std@@V12@@?$_List_node_insert_op2@V?$allocator@U?$_List_node@P6AXPEAXPEBUSickScanVisualizationMarkerMsgType@@@ZPEAX@std@@@std@@@std@@QEAAXV?$_List_unchecked_const_iterator@V?$_List_val@U?$_List_simple_types@P6AXPEAXPEBUSickScanVisualizationMarkerMsgType@@@Z@std@@@std@@U_Iterator_base0@2@@1@V21@@Z
	??$_Append_range_unchecked@V?$_List_unchecked_const_iterator@V?$_List_val@U?$_List_simple_types@PEAVMsgPackExportListenerIF@sick_scansegment_xd@@@std@@@std@@U_Iterator_base0@2@@std@@V12@@?$_List_node_insert_op2@V?$allocator@U?$_List_node@PEAVMsgPackExportListenerIF@sick_scansegment_xd@@PEAX@std@@@std@@@std@@QEAAXV?$_List_unchecked_const_iterator@V?$_List_val@U?$_List_simple_types@PEAVMsgPackExportListenerIF@sick_scansegment_xd@@@std@@@std@@U_Iterator_base0@2@@1@V21@@Z
	??$_Append_uncounted_range@V?$istreambuf_iterator@DU?$char_traits@D@std@@@std@@V12@@?$vector@EV?$allocator@E@std@@@std@@AEAAXV?$istreambuf_iterator@DU?$char_traits@D@std@@@1@V21@@Z
	??$_Assign_counted_range@PEAE@?$vector@EV?$allocator@E@std@@@std@@AEAAXPEAE_K@Z
	??$_Assign_counted_range@PEAG@?$vector@GV?$allocator@G@std@@@std@@AEAAXPEAG_K@Z
	??$_Assign_counted_range@PEAH@?$vector@HV?$allocator@H@std@@@std@@AEAAXPEAH_K@Z
	??$_Assign_counted_range@PEAI@?$vector@IV?$allocator@I@std@@@std@@AEAAXPEAI_K@Z
	??$_Assign_counted_range@PEAM@?$vector@MV?$allocator@M@std@@@std@@AEAAXPEAM_K@Z
	??$_Assign_counted_range@PEAU?$ColorRGBA_@V?$allocator@X@std@@@std_msgs@@@?$vector@U?$ColorRGBA_@V?$allocator@X@std@@@std_msgs@@V?$allocator@U?$ColorRGBA_@V?$allocator@X@std@@@std_msgs@@@std@@@std@@AEAAXPEAU?$ColorRGBA_@V?$allocator@X@std@@@std_msgs@@_K@Z
	??$_Assign_counted_range@PEAU?$LFErecFieldMsg_@V?$allocator@X@std@@@sick_scan_xd@@@?$vector@U?$LFErecFieldMsg_@V?$allocator@X@std@@@sick_scan_xd@@V?$allocator@U?$LFErecFieldMsg_@V?$allocator@X@std@@@sick_scan_xd@@@std@@@std@@AEAAXPEAU?$LFErecFieldMsg_@V?$allocator@X@std@@@sick_scan_xd@@_K@Z
	??$_Assign_counted_range@PEAU?$Marker_@V?$allocator@X@std@@@visualization_msgs@@@?$vector@U?$Marker_@V?$allocator@X@std@@@visualization_msgs@@V?$allocator@U?$Marker_@V?$allocator@X@std@@@visualization_msgs@@@std@@@std@@AEAAXPEAU?$Marker_@V?$allocator@X@std@@@visualization_msgs@@_K@Z
	??$_Assign_counted_range@PEAU?$PointField_@V?$allocator@X@std@@@sensor_msgs@@@?$vector@U?$PointField_@V?$allocator@X@std@@@sensor_msgs@@V?$allocator@U?$PointField_@V?$allocator@X@std@@@sensor_msgs@@@std@@@std@@AEAAXPEAU?$PointField_@V?$allocator@X@std@@@sensor_msgs@@_K@Z
	??$_Assign_counted_range@PEAU?$Point_@V?$allocator@X@std@@@geometry_msgs@@@?$vector@U?$Point_@V?$allocator@X@std@@@geometry_msgs@@V?$allocator@U?$Point_@V?$allocator@X@std@@@geometry_msgs@@@std@@@std@@AEAAXPEAU?$Point_@V?$allocator@X@std@@@geometry_msgs@@_K@Z
	??$_Assign_counted_range@PEAU?$RadarObject_@V?$allocator@X@std@@@sick_scan_xd@@@?$vector@U?$RadarObject_@V?$allocator@X@std@@@sick_scan_xd@@V?$allocator@U?$RadarObject_@V?$allocator@X@std@@@sick_scan_xd@@@std@@@std@@AEAAXPEAU?$RadarObject_@V?$allocator@X@std@@@sick_scan_xd@@_K@Z
	??$_Assign_counted_range@PEAU?$RadarPreHeaderEncoderBlock_@V?$allocator@X@std@@@sick_scan_xd@@@?$vector@U?$RadarPreHeaderEncoderBlock_@V?$allocator@X@std@@@sick_scan_xd@@V?$allocator@U?$RadarPreHeaderEncoderBlock_@V?$allocator@X@std@@@sick_scan_xd@@@std@@@std@@AEAAXPEAU?$RadarPreHeaderEncoderBlock_@V?$allocator@X@std@@@sick_scan_xd@@_K@Z
	??$_Assign_counted_range@PEAU?$SickLdmrsObject_@V?$allocator@X@std@@@sick_scan_xd@@@?$vector@U?$SickLdmrsObject_@V?$allocator@X@std@@@sick_scan_xd@@V?$allocator@U?$SickLdmrsObject_@V?$allocator@X@std@@@sick_scan_xd@@@std@@@std@@AEAAXPEAU?$SickLdmrsObject_@V?$allocator@X@std@@@sick_scan_xd@@_K@Z
	??$_Assign_counted_range@PEAVLidarPoint@ScanSegmentParserOutput@sick_scansegment_xd@@@?$vector@VLidarPoint@ScanSegmentParserOutput@sick_scansegment_xd@@V?$allocator@VLidarPoint@ScanSegmentParserOutput@sick_scansegment_xd@@@std@@@std@@AEAAXPEAVLidarPoint@ScanSegmentParserOutput@sick_scansegment_xd@@_K@Z
	??$_Assign_counted_range@PEAVNAV350ReflectorData@sick_scan_xd@@@?$vector@VNAV350ReflectorData@sick_scan_xd@@V?$allocator@VNAV350ReflectorData@sick_scan_xd@@@std@@@std@@AEAAXPEAVNAV350ReflectorData@sick_scan_xd@@_K@Z
	??$_Assign_counted_range@PEAVNAV350ScanData@sick_scan_xd@@@?$vector@VNAV350ScanData@sick_scan_xd@@V?$allocator@VNAV350ScanData@sick_scan_xd@@@std@@@std@@AEAAXPEAVNAV350ScanData@sick_scan_xd@@_K@Z
	??$_Assign_counted_range@PEAVScangroup@ScanSegmentParserOutput@sick_scansegment_xd@@@?$vector@VScangroup@ScanSegmentParserOutput@sick_scansegment_xd@@V?$allocator@VScangroup@ScanSegmentParserOutput@sick_scansegment_xd@@@std@@@std@@AEAAXPEAVScangroup@ScanSegmentParserOutput@sick_scansegment_xd@@_K@Z
	??$_Assign_counted_range@PEAVScanline@ScanSegmentParserOutput@sick_scansegment_xd@@@?$vector@VScanline@ScanSegmentParserOutput@sick_scansegment_xd@@V?$allocator@VScanline@ScanSegmentParserOutput@sick_scansegment_xd@@@std@@@std@@AEAAXPEAVScanline@ScanSegmentParserOutput@sick_scansegment_xd@@_K@Z
	??$_Assign_counted_range@PEAVSickScanMonField@sick_scan_xd@@@?$vector@VSickScanMonField@sick_scan_xd@@V?$allocator@VSickScanMonField@sick_scan_xd@@@std@@@std@@AEAAXPEAVSickScanMonField@sick_scan_xd@@_K@Z
	??$_Assign_counted_range@PEA_K@?$vector@_KV?$allocator@_K@std@@@std@@AEAAXPEA_K_K@Z
	??$_Assign_counted_range@PEBE@?$vector@EV?$allocator@E@std@@@std@@AEAAXPEBE_K@Z
	??$_Assign_counted_range@PEBH@?$vector@HV?$allocator@H@std@@@std@@AEAAXPEBH_K@Z
	??$_Assign_counted_range@PEBV?$basic_string@DU?$char_traits@D@std@@V?$allocator@D@2@@std@@@?$vector@V?$basic_string@DU?$char_traits@D@std@@V?$allocator@D@2@@std@@V?$allocator@V?$basic_string@DU?$char_traits@D@std@@V?$allocator@D@2@@std@@@2@@std@@AEAAXPEBV?$basic_string@DU?$char_traits@D@std@@V?$allocator@D@2@@1@_K@Z
	??$_Assign_counted_range@PEBW4ReadBeamAzimOrderEnum@@@?$vector@W4ReadBeamAzimOrderEnum@@V?$allocator@W4ReadBeamAzimOrderEnum@@@std@@@std@@AEAAXPEBW4ReadBeamAzimOrderEnum@@_K@Z
	??$_Atomic_address_as@JU?$_Atomic_padded@H@std@@@std@@YAPECJAEAU?$_Atomic_padded@H@0@@Z
	??$_Attach_head@U?$_List_simple_types@P6AXPEAVNodeHandle@roswrap@@PEBU?$Imu_@V?$allocator@X@std@@@sensor_msgs@@@Z@std@@@?$_List_node_insert_op2@V?$allocator@U?$_List_node@P6AXPEAVNodeHandle@roswrap@@PEBU?$Imu_@V?$allocator@X@std@@@sensor_msgs@@@ZPEAX@std@@@std@@@std@@QEAAXAEAV?$_List_val@U?$_List_simple_types@P6AXPEAVNodeHandle@roswrap@@PEBU?$Imu_@V?$allocator@X@std@@@sensor_msgs@@@Z@std@@@1@@Z
	??$_Attach_head@U?$_List_simple_types@P6AXPEAVNodeHandle@roswrap@@PEBU?$LFErecMsg_@V?$allocator@X@std@@@sick_scan_xd@@@Z@std@@@?$_List_node_insert_op2@V?$allocator@U?$_List_node@P6AXPEAVNodeHandle@roswrap@@PEBU?$LFErecMsg_@V?$allocator@X@std@@@sick_scan_xd@@@ZPEAX@std@@@std@@@std@@QEAAXAEAV?$_List_val@U?$_List_simple_types@P6AXPEAVNodeHandle@roswrap@@PEBU?$LFErecMsg_@V?$allocator@X@std@@@sick_scan_xd@@@Z@std@@@1@@Z
	??$_Attach_head@U?$_List_simple_types@P6AXPEAVNodeHandle@roswrap@@PEBU?$LIDoutputstateMsg_@V?$allocator@X@std@@@sick_scan_xd@@@Z@std@@@?$_List_node_insert_op2@V?$allocator@U?$_List_node@P6AXPEAVNodeHandle@roswrap@@PEBU?$LIDoutputstateMsg_@V?$allocator@X@std@@@sick_scan_xd@@@ZPEAX@std@@@std@@@std@@QEAAXAEAV?$_List_val@U?$_List_simple_types@P6AXPEAVNodeHandle@roswrap@@PEBU?$LIDoutputstateMsg_@V?$allocator@X@std@@@sick_scan_xd@@@Z@std@@@1@@Z
	??$_Attach_head@U?$_List_simple_types@P6AXPEAVNodeHandle@roswrap@@PEBU?$MarkerArray_@V?$allocator@X@std@@@visualization_msgs@@@Z@std@@@?$_List_node_insert_op2@V?$allocator@U?$_List_node@P6AXPEAVNodeHandle@roswrap@@PEBU?$MarkerArray_@V?$allocator@X@std@@@visualization_msgs@@@ZPEAX@std@@@std@@@std@@QEAAXAEAV?$_List_val@U?$_List_simple_types@P6AXPEAVNodeHandle@roswrap@@PEBU?$MarkerArray_@V?$allocator@X@std@@@visualization_msgs@@@Z@std@@@1@@Z
	??$_Attach_head@U?$_List_simple_types@P6AXPEAVNodeHandle@roswrap@@PEBU?$RadarScan_@V?$allocator@X@std@@@sick_scan_xd@@@Z@std@@@?$_List_node_insert_op2@V?$allocator@U?$_List_node@P6AXPEAVNodeHandle@roswrap@@PEBU?$RadarScan_@V?$allocator@X@std@@@sick_scan_xd@@@ZPEAX@std@@@std@@@std@@QEAAXAEAV?$_List_val@U?$_List_simple_types@P6AXPEAVNodeHandle@roswrap@@PEBU?$RadarScan_@V?$allocator@X@std@@@sick_scan_xd@@@Z@std@@@1@@Z
	??$_Attach_head@U?$_List_simple_types@P6AXPEAVNodeHandle@roswrap@@PEBU?$SickLdmrsObjectArray_@V?$allocator@X@std@@@sick_scan_xd@@@Z@std@@@?$_List_node_insert_op2@V?$allocator@U?$_List_node@P6AXPEAVNodeHandle@roswrap@@PEBU?$SickLdmrsObjectArray_@V?$allocator@X@std@@@sick_scan_xd@@@ZPEAX@std@@@std@@@std@@QEAAXAEAV?$_List_val@U?$_List_simple_types@P6AXPEAVNodeHandle@roswrap@@PEBU?$SickLdmrsObjectArray_@V?$allocator@X@std@@@sick_scan_xd@@@Z@std@@@1@@Z
	??$_Attach_head@U?$_List_simple_types@P6AXPEAVNodeHandle@roswrap@@PEBUPointCloud2withEcho@sick_scan_xd@@@Z@std@@@?$_List_node_insert_op2@V?$allocator@U?$_List_node@P6AXPEAVNodeHandle@roswrap@@PEBUPointCloud2withEcho@sick_scan_xd@@@ZPEAX@std@@@std@@@std@@QEAAXAEAV?$_List_val@U?$_List_simple_types@P6AXPEAVNodeHandle@roswrap@@PEBUPointCloud2withEcho@sick_scan_xd@@@Z@std@@@1@@Z
	??$_Attach_head@U?$_List_simple_types@P6AXPEAVNodeHandle@roswrap@@PEBVNAV350mNPOSData@sick_scan_xd@@@Z@std@@@?$_List_node_insert_op2@V?$allocator@U?$_List_node@P6AXPEAVNodeHandle@roswrap@@PEBVNAV350mNPOSData@sick_scan_xd@@@ZPEAX@std@@@std@@@std@@QEAAXAEAV?$_List_val@U?$_List_simple_types@P6AXPEAVNodeHandle@roswrap@@PEBVNAV350mNPOSData@sick_scan_xd@@@Z@std@@@1@@Z
	??$_Attach_head@U?$_List_simple_types@P6AXPEAXPEBUSickScanDiagnosticMsgType@@@Z@std@@@?$_List_node_insert_op2@V?$allocator@U?$_List_node@P6AXPEAXPEBUSickScanDiagnosticMsgType@@@ZPEAX@std@@@std@@@std@@QEAAXAEAV?$_List_val@U?$_List_simple_types@P6AXPEAXPEBUSickScanDiagnosticMsgType@@@Z@std@@@1@@Z
	??$_Attach_head@U?$_List_simple_types@P6AXPEAXPEBUSickScanImuMsgType@@@Z@std@@@?$_List_node_insert_op2@V?$allocator@U?$_List_node@P6AXPEAXPEBUSickScanImuMsgType@@@ZPEAX@std@@@std@@@std@@QEAAXAEAV?$_List_val@U?$_List_simple_types@P6AXPEAXPEBUSickScanImuMsgType@@@Z@std@@@1@@Z
	??$_Attach_head@U?$_List_simple_types@P6AXPEAXPEBUSickScanLFErecMsgType@@@Z@std@@@?$_List_node_insert_op2@V?$allocator@U?$_List_node@P6AXPEAXPEBUSickScanLFErecMsgType@@@ZPEAX@std@@@std@@@std@@QEAAXAEAV?$_List_val@U?$_List_simple_types@P6AXPEAXPEBUSickScanLFErecMsgType@@@Z@std@@@1@@Z
	??$_Attach_head@U?$_List_simple_types@P6AXPEAXPEBUSickScanLIDoutputstateMsgType@@@Z@std@@@?$_List_node_insert_op2@V?$allocator@U?$_List_node@P6AXPEAXPEBUSickScanLIDoutputstateMsgType@@@ZPEAX@std@@@std@@@std@@QEAAXAEAV?$_List_val@U?$_List_simple_types@P6AXPEAXPEBUSickScanLIDoutputstateMsgType@@@Z@std@@@1@@Z
	??$_Attach_head@U?$_List_simple_types@P6AXPEAXPEBUSickScanLdmrsObjectArrayType@@@Z@std@@@?$_List_node_insert_op2@V?$allocator@U?$_List_node@P6AXPEAXPEBUSickScanLdmrsObjectArrayType@@@ZPEAX@std@@@std@@@std@@QEAAXAEAV?$_List_val@U?$_List_simple_types@P6AXPEAXPEBUSickScanLdmrsObjectArrayType@@@Z@std@@@1@@Z
	??$_Attach_head@U?$_List_simple_types@P6AXPEAXPEBUSickScanLogMsgType@@@Z@std@@@?$_List_node_insert_op2@V?$allocator@U?$_List_node@P6AXPEAXPEBUSickScanLogMsgType@@@ZPEAX@std@@@std@@@std@@QEAAXAEAV?$_List_val@U?$_List_simple_types@P6AXPEAXPEBUSickScanLogMsgType@@@Z@std@@@1@@Z
	??$_Attach_head@U?$_List_simple_types@P6AXPEAXPEBUSickScanNavPoseLandmarkMsgType@@@Z@std@@@?$_List_node_insert_op2@V?$allocator@U?$_List_node@P6AXPEAXPEBUSickScanNavPoseLandmarkMsgType@@@ZPEAX@std@@@std@@@std@@QEAAXAEAV?$_List_val@U?$_List_simple_types@P6AXPEAXPEBUSickScanNavPoseLandmarkMsgType@@@Z@std@@@1@@Z
	??$_Attach_head@U?$_List_simple_types@P6AXPEAXPEBUSickScanPointCloudMsgType@@@Z@std@@@?$_List_node_insert_op2@V?$allocator@U?$_List_node@P6AXPEAXPEBUSickScanPointCloudMsgType@@@ZPEAX@std@@@std@@@std@@QEAAXAEAV?$_List_val@U?$_List_simple_types@P6AXPEAXPEBUSickScanPointCloudMsgType@@@Z@std@@@1@@Z
	??$_Attach_head@U?$_List_simple_types@P6AXPEAXPEBUSickScanRadarScanType@@@Z@std@@@?$_List_node_insert_op2@V?$allocator@U?$_List_node@P6AXPEAXPEBUSickScanRadarScanType@@@ZPEAX@std@@@std@@@std@@QEAAXAEAV?$_List_val@U?$_List_simple_types@P6AXPEAXPEBUSickScanRadarScanType@@@Z@std@@@1@@Z
	??$_Attach_head@U?$_List_simple_types@P6AXPEAXPEBUSickScanVisualizationMarkerMsgType@@@Z@std@@@?$_List_node_insert_op2@V?$allocator@U?$_List_node@P6AXPEAXPEBUSickScanVisualizationMarkerMsgType@@@ZPEAX@std@@@std@@@std@@QEAAXAEAV?$_List_val@U?$_List_simple_types@P6AXPEAXPEBUSickScanVisualizationMarkerMsgType@@@Z@std@@@1@@Z
	??$_Attach_head@U?$_List_simple_types@PEAVMsgPackExportListenerIF@sick_scansegment_xd@@@std@@@?$_List_node_insert_op2@V?$allocator@U?$_List_node@PEAVMsgPackExportListenerIF@sick_scansegment_xd@@PEAX@std@@@std@@@std@@QEAAXAEAV?$_List_val@U?$_List_simple_types@PEAVMsgPackExportListenerIF@sick_scansegment_xd@@@std@@@1@@Z
	??$_Buyheadnode@V?$allocator@U?$_Tree_node@U?$pair@$$CBC_N@std@@PEAX@std@@@std@@@?$_Tree_node@U?$pair@$$CBC_N@std@@PEAX@std@@SAPEAU01@AEAV?$allocator@U?$_Tree_node@U?$pair@$$CBC_N@std@@PEAX@std@@@1@@Z
	??$_Buyheadnode@V?$allocator@U?$_Tree_node@U?$pair@$$CBEV?$basic_string@DU?$char_traits@D@std@@V?$allocator@D@2@@std@@@std@@PEAX@std@@@std@@@?$_Tree_node@U?$pair@$$CBEV?$basic_string@DU?$char_traits@D@std@@V?$allocator@D@2@@std@@@std@@PEAX@std@@SAPEAU01@AEAV?$allocator@U?$_Tree_node@U?$pair@$$CBEV?$basic_string@DU?$char_traits@D@std@@V?$allocator@D@2@@std@@@std@@PEAX@std@@@1@@Z
	??$_Buyheadnode@V?$allocator@U?$_Tree_node@U?$pair@$$CBHH@std@@PEAX@std@@@std@@@?$_Tree_node@U?$pair@$$CBHH@std@@PEAX@std@@SAPEAU01@AEAV?$allocator@U?$_Tree_node@U?$pair@$$CBHH@std@@PEAX@std@@@1@@Z
	??$_Buyheadnode@V?$allocator@U?$_Tree_node@U?$pair@$$CBHU?$LaserScan_@V?$allocator@X@std@@@sensor_msgs@@@std@@PEAX@std@@@std@@@?$_Tree_node@U?$pair@$$CBHU?$LaserScan_@V?$allocator@X@std@@@sensor_msgs@@@std@@PEAX@std@@SAPEAU01@AEAV?$allocator@U?$_Tree_node@U?$pair@$$CBHU?$LaserScan_@V?$allocator@X@std@@@sensor_msgs@@@std@@PEAX@std@@@1@@Z
	??$_Buyheadnode@V?$allocator@U?$_Tree_node@U?$pair@$$CBHV?$map@HHU?$less@H@std@@V?$allocator@U?$pair@$$CBHH@std@@@2@@std@@@std@@PEAX@std@@@std@@@?$_Tree_node@U?$pair@$$CBHV?$map@HHU?$less@H@std@@V?$allocator@U?$pair@$$CBHH@std@@@2@@std@@@std@@PEAX@std@@SAPEAU01@AEAV?$allocator@U?$_Tree_node@U?$pair@$$CBHV?$map@HHU?$less@H@std@@V?$allocator@U?$pair@$$CBHH@std@@@2@@std@@@std@@PEAX@std@@@1@@Z
	??$_Buyheadnode@V?$allocator@U?$_Tree_node@U?$pair@$$CBHV?$map@HU?$LaserScan_@V?$allocator@X@std@@@sensor_msgs@@U?$less@H@std@@V?$allocator@U?$pair@$$CBHU?$LaserScan_@V?$allocator@X@std@@@sensor_msgs@@@std@@@4@@std@@@std@@PEAX@std@@@std@@@?$_Tree_node@U?$pair@$$CBHV?$map@HU?$LaserScan_@V?$allocator@X@std@@@sensor_msgs@@U?$less@H@std@@V?$allocator@U?$pair@$$CBHU?$LaserScan_@V?$allocator@X@std@@@sensor_msgs@@@std@@@4@@std@@@std@@PEAX@std@@SAPEAU01@AEAV?$allocator@U?$_Tree_node@U?$pair@$$CBHV?$map@HU?$LaserScan_@V?$allocator@X@std@@@sensor_msgs@@U?$less@H@std@@V?$allocator@U?$pair@$$CBHU?$LaserScan_@V?$allocator@X@std@@@sensor_msgs@@@std@@@4@@std@@@std@@PEAX@std@@@1@@Z
	??$_Buyheadnode@V?$allocator@U?$_Tree_node@U?$pair@$$CBHV?$map@HV?$map@HHU?$less@H@std@@V?$allocator@U?$pair@$$CBHH@std@@@2@@std@@U?$less@H@2@V?$allocator@U?$pair@$$CBHV?$map@HHU?$less@H@std@@V?$allocator@U?$pair@$$CBHH@std@@@2@@std@@@std@@@2@@std@@@std@@PEAX@std@@@std@@@?$_Tree_node@U?$pair@$$CBHV?$map@HV?$map@HHU?$less@H@std@@V?$allocator@U?$pair@$$CBHH@std@@@2@@std@@U?$less@H@2@V?$allocator@U?$pair@$$CBHV?$map@HHU?$less@H@std@@V?$allocator@U?$pair@$$CBHH@std@@@2@@std@@@std@@@2@@std@@@std@@PEAX@std@@SAPEAU01@AEAV?$allocator@U?$_Tree_node@U?$pair@$$CBHV?$map@HV?$map@HHU?$less@H@std@@V?$allocator@U?$pair@$$CBHH@std@@@2@@std@@U?$less@H@2@V?$allocator@U?$pair@$$CBHV?$map@HHU?$less@H@std@@V?$allocator@U?$pair@$$CBHH@std@@@2@@std@@@std@@@2@@std@@@std@@PEAX@std@@@1@@Z
	??$_Buyheadnode@V?$allocator@U?$_Tree_node@U?$pair@$$CBHV?$map@HV?$map@HV?$map@HHU?$less@H@std@@V?$allocator@U?$pair@$$CBHH@std@@@2@@std@@U?$less@H@2@V?$allocator@U?$pair@$$CBHV?$map@HHU?$less@H@std@@V?$allocator@U?$pair@$$CBHH@std@@@2@@std@@@std@@@2@@std@@U?$less@H@2@V?$allocator@U?$pair@$$CBHV?$map@HV?$map@HHU?$less@H@std@@V?$allocator@U?$pair@$$CBHH@std@@@2@@std@@U?$less@H@2@V?$allocator@U?$pair@$$CBHV?$map@HHU?$less@H@std@@V?$allocator@U?$pair@$$CBHH@std@@@2@@std@@@std@@@2@@std@@@std@@@2@@std@@@std@@PEAX@std@@@std@@@?$_Tree_node@U?$pair@$$CBHV?$map@HV?$map@HV?$map@HHU?$less@H@std@@V?$allocator@U?$pair@$$CBHH@std@@@2@@std@@U?$less@H@2@V?$allocator@U?$pair@$$CBHV?$map@HHU?$less@H@std@@V?$allocator@U?$pair@$$CBHH@std@@@2@@std@@@std@@@2@@std@@U?$less@H@2@V?$allocator@U?$pair@$$CBHV?$map@HV?$map@HHU?$less@H@std@@V?$allocator@U?$pair@$$CBHH@std@@@2@@std@@U?$less@H@2@V?$allocator@U?$pair@$$CBHV?$map@HHU?$less@H@std@@V?$allocator@U?$pair@$$CBHH@std@@@2@@std@@@std@@@2@@std@@@std@@@2@@std@@@std@@PEAX@std@@SAPEAU01@AEAV?$allocator@U?$_Tree_node@U?$pair@$$CBHV?$map@HV?$map@HV?$map@HHU?$less@H@std@@V?$allocator@U?$pair@$$CBHH@std@@@2@@std@@U?$less@H@2@V?$allocator@U?$pair@$$CBHV?$map@HHU?$less@H@std@@V?$allocator@U?$pair@$$CBHH@std@@@2@@std@@@std@@@2@@std@@U?$less@H@2@V?$allocator@U?$pair@$$CBHV?$map@HV?$map@HHU?$less@H@std@@V?$allocator@U?$pair@$$CBHH@std@@@2@@std@@U?$less@H@2@V?$allocator@U?$pair@$$CBHV?$map@HHU?$less@H@std@@V?$allocator@U?$pair@$$CBHH@std@@@2@@std@@@std@@@2@@std@@@std@@@2@@std@@@std@@PEAX@std@@@1@@Z
	??$_Buyheadnode@V?$allocator@U?$_Tree_node@U?$pair@$$CBHV?$time_point@Usystem_clock@chrono@std@@V?$duration@_JU?$ratio@$00$0JIJGIA@@std@@@23@@chrono@std@@@std@@PEAX@std@@@std@@@?$_Tree_node@U?$pair@$$CBHV?$time_point@Usystem_clock@chrono@std@@V?$duration@_JU?$ratio@$00$0JIJGIA@@std@@@23@@chrono@std@@@std@@PEAX@std@@SAPEAU01@AEAV?$allocator@U?$_Tree_node@U?$pair@$$CBHV?$time_point@Usystem_clock@chrono@std@@V?$duration@_JU?$ratio@$00$0JIJGIA@@std@@@23@@chrono@std@@@std@@PEAX@std@@@1@@Z
	??$_Buyheadnode@V?$allocator@U?$_Tree_node@U?$pair@$$CBH_K@std@@PEAX@std@@@std@@@?$_Tree_node@U?$pair@$$CBH_K@std@@PEAX@std@@SAPEAU01@AEAV?$allocator@U?$_Tree_node@U?$pair@$$CBH_K@std@@PEAX@std@@@1@@Z
	??$_Buyheadnode@V?$allocator@U?$_Tree_node@U?$pair@$$CBV?$basic_string@DU?$char_traits@D@std@@V?$allocator@D@2@@std@@H@std@@PEAX@std@@@std@@@?$_Tree_node@U?$pair@$$CBV?$basic_string@DU?$char_traits@D@std@@V?$allocator@D@2@@std@@H@std@@PEAX@std@@SAPEAU01@AEAV?$allocator@U?$_Tree_node@U?$pair@$$CBV?$basic_string@DU?$char_traits@D@std@@V?$allocator@D@2@@std@@H@std@@PEAX@std@@@1@@Z
	??$_Buyheadnode@V?$allocator@U?$_Tree_node@U?$pair@$$CBV?$basic_string@DU?$char_traits@D@std@@V?$allocator@D@2@@std@@V12@@std@@PEAX@std@@@std@@@?$_Tree_node@U?$pair@$$CBV?$basic_string@DU?$char_traits@D@std@@V?$allocator@D@2@@std@@V12@@std@@PEAX@std@@SAPEAU01@AEAV?$allocator@U?$_Tree_node@U?$pair@$$CBV?$basic_string@DU?$char_traits@D@std@@V?$allocator@D@2@@std@@V12@@std@@PEAX@std@@@1@@Z
	??$_Buyheadnode@V?$allocator@U?$_Tree_node@U?$pair@$$CBV?$basic_string@DU?$char_traits@D@std@@V?$allocator@D@2@@std@@V?$vector@V?$basic_string@DU?$char_traits@D@std@@V?$allocator@D@2@@std@@V?$allocator@V?$basic_string@DU?$char_traits@D@std@@V?$allocator@D@2@@std@@@2@@2@@std@@PEAX@std@@@std@@@?$_Tree_node@U?$pair@$$CBV?$basic_string@DU?$char_traits@D@std@@V?$allocator@D@2@@std@@V?$vector@V?$basic_string@DU?$char_traits@D@std@@V?$allocator@D@2@@std@@V?$allocator@V?$basic_string@DU?$char_traits@D@std@@V?$allocator@D@2@@std@@@2@@2@@std@@PEAX@std@@SAPEAU01@AEAV?$allocator@U?$_Tree_node@U?$pair@$$CBV?$basic_string@DU?$char_traits@D@std@@V?$allocator@D@2@@std@@V?$vector@V?$basic_string@DU?$char_traits@D@std@@V?$allocator@D@2@@std@@V?$allocator@V?$basic_string@DU?$char_traits@D@std@@V?$allocator@D@2@@std@@@2@@2@@std@@PEAX@std@@@1@@Z
	??$_Buyheadnode@V?$allocator@U?$_Tree_node@U?$pair@$$CBV?$basic_string@DU?$char_traits@D@std@@V?$allocator@D@2@@std@@_N@std@@PEAX@std@@@std@@@?$_Tree_node@U?$pair@$$CBV?$basic_string@DU?$char_traits@D@std@@V?$allocator@D@2@@std@@_N@std@@PEAX@std@@SAPEAU01@AEAV?$allocator@U?$_Tree_node@U?$pair@$$CBV?$basic_string@DU?$char_traits@D@std@@V?$allocator@D@2@@std@@_N@std@@PEAX@std@@@1@@Z
	??$_Buyheadnode@V?$allocator@U?$_Tree_node@U?$pair@$$CBVMsgPack@msgpack11@@V12@@std@@PEAX@std@@@std@@@?$_Tree_node@U?$pair@$$CBVMsgPack@msgpack11@@V12@@std@@PEAX@std@@SAPEAU01@AEAV?$allocator@U?$_Tree_node@U?$pair@$$CBVMsgPack@msgpack11@@V12@@std@@PEAX@std@@@1@@Z
	??$_Buyheadnode@V?$allocator@U?$_Tree_node@U?$pair@QEAVNodeHandle@roswrap@@V?$list@P6AXPEAVNodeHandle@roswrap@@PEBU?$Imu_@V?$allocator@X@std@@@sensor_msgs@@@ZV?$allocator@P6AXPEAVNodeHandle@roswrap@@PEBU?$Imu_@V?$allocator@X@std@@@sensor_msgs@@@Z@std@@@std@@@std@@PEAX@std@@@std@@@?$_Tree_node@U?$pair@QEAVNodeHandle@roswrap@@V?$list@P6AXPEAVNodeHandle@roswrap@@PEBU?$Imu_@V?$allocator@X@std@@@sensor_msgs@@@ZV?$allocator@P6AXPEAVNodeHandle@roswrap@@PEBU?$Imu_@V?$allocator@X@std@@@sensor_msgs@@@Z@std@@@std@@@std@@PEAX@std@@SAPEAU01@AEAV?$allocator@U?$_Tree_node@U?$pair@QEAVNodeHandle@roswrap@@V?$list@P6AXPEAVNodeHandle@roswrap@@PEBU?$Imu_@V?$allocator@X@std@@@sensor_msgs@@@ZV?$allocator@P6AXPEAVNodeHandle@roswrap@@PEBU?$Imu_@V?$allocator@X@std@@@sensor_msgs@@@Z@std@@@std@@@std@@PEAX@std@@@1@@Z
	??$_Buyheadnode@V?$allocator@U?$_Tree_node@U?$pair@QEAVNodeHandle@roswrap@@V?$list@P6AXPEAVNodeHandle@roswrap@@PEBU?$LFErecMsg_@V?$allocator@X@std@@@sick_scan_xd@@@ZV?$allocator@P6AXPEAVNodeHandle@roswrap@@PEBU?$LFErecMsg_@V?$allocator@X@std@@@sick_scan_xd@@@Z@std@@@std@@@std@@PEAX@std@@@std@@@?$_Tree_node@U?$pair@QEAVNodeHandle@roswrap@@V?$list@P6AXPEAVNodeHandle@roswrap@@PEBU?$LFErecMsg_@V?$allocator@X@std@@@sick_scan_xd@@@ZV?$allocator@P6AXPEAVNodeHandle@roswrap@@PEBU?$LFErecMsg_@V?$allocator@X@std@@@sick_scan_xd@@@Z@std@@@std@@@std@@PEAX@std@@SAPEAU01@AEAV?$allocator@U?$_Tree_node@U?$pair@QEAVNodeHandle@roswrap@@V?$list@P6AXPEAVNodeHandle@roswrap@@PEBU?$LFErecMsg_@V?$allocator@X@std@@@sick_scan_xd@@@ZV?$allocator@P6AXPEAVNodeHandle@roswrap@@PEBU?$LFErecMsg_@V?$allocator@X@std@@@sick_scan_xd@@@Z@std@@@std@@@std@@PEAX@std@@@1@@Z
	??$_Buyheadnode@V?$allocator@U?$_Tree_node@U?$pair@QEAVNodeHandle@roswrap@@V?$list@P6AXPEAVNodeHandle@roswrap@@PEBU?$LIDoutputstateMsg_@V?$allocator@X@std@@@sick_scan_xd@@@ZV?$allocator@P6AXPEAVNodeHandle@roswrap@@PEBU?$LIDoutputstateMsg_@V?$allocator@X@std@@@sick_scan_xd@@@Z@std@@@std@@@std@@PEAX@std@@@std@@@?$_Tree_node@U?$pair@QEAVNodeHandle@roswrap@@V?$list@P6AXPEAVNodeHandle@roswrap@@PEBU?$LIDoutputstateMsg_@V?$allocator@X@std@@@sick_scan_xd@@@ZV?$allocator@P6AXPEAVNodeHandle@roswrap@@PEBU?$LIDoutputstateMsg_@V?$allocator@X@std@@@sick_scan_xd@@@Z@std@@@std@@@std@@PEAX@std@@SAPEAU01@AEAV?$allocator@U?$_Tree_node@U?$pair@QEAVNodeHandle@roswrap@@V?$list@P6AXPEAVNodeHandle@roswrap@@PEBU?$LIDoutputstateMsg_@V?$allocator@X@std@@@sick_scan_xd@@@ZV?$allocator@P6AXPEAVNodeHandle@roswrap@@PEBU?$LIDoutputstateMsg_@V?$allocator@X@std@@@sick_scan_xd@@@Z@std@@@std@@@std@@PEAX@std@@@1@@Z
	??$_Buyheadnode@V?$allocator@U?$_Tree_node@U?$pair@QEAVNodeHandle@roswrap@@V?$list@P6AXPEAVNodeHandle@roswrap@@PEBU?$MarkerArray_@V?$allocator@X@std@@@visualization_msgs@@@ZV?$allocator@P6AXPEAVNodeHandle@roswrap@@PEBU?$MarkerArray_@V?$allocator@X@std@@@visualization_msgs@@@Z@std@@@std@@@std@@PEAX@std@@@std@@@?$_Tree_node@U?$pair@QEAVNodeHandle@roswrap@@V?$list@P6AXPEAVNodeHandle@roswrap@@PEBU?$MarkerArray_@V?$allocator@X@std@@@visualization_msgs@@@ZV?$allocator@P6AXPEAVNodeHandle@roswrap@@PEBU?$MarkerArray_@V?$allocator@X@std@@@visualization_msgs@@@Z@std@@@std@@@std@@PEAX@std@@SAPEAU01@AEAV?$allocator@U?$_Tree_node@U?$pair@QEAVNodeHandle@roswrap@@V?$list@P6AXPEAVNodeHandle@roswrap@@PEBU?$MarkerArray_@V?$allocator@X@std@@@visualization_msgs@@@ZV?$allocator@P6AXPEAVNodeHandle@roswrap@@PEBU?$MarkerArray_@V?$allocator@X@std@@@visualization_msgs@@@Z@std@@@std@@@std@@PEAX@std@@@1@@Z
	??$_Buyheadnode@V?$allocator@U?$_Tree_node@U?$pair@QEAVNodeHandle@roswrap@@V?$list@P6AXPEAVNodeHandle@roswrap@@PEBU?$RadarScan_@V?$allocator@X@std@@@sick_scan_xd@@@ZV?$allocator@P6AXPEAVNodeHandle@roswrap@@PEBU?$RadarScan_@V?$allocator@X@std@@@sick_scan_xd@@@Z@std@@@std@@@std@@PEAX@std@@@std@@@?$_Tree_node@U?$pair@QEAVNodeHandle@roswrap@@V?$list@P6AXPEAVNodeHandle@roswrap@@PEBU?$RadarScan_@V?$allocator@X@std@@@sick_scan_xd@@@ZV?$allocator@P6AXPEAVNodeHandle@roswrap@@PEBU?$RadarScan_@V?$allocator@X@std@@@sick_scan_xd@@@Z@std@@@std@@@std@@PEAX@std@@SAPEAU01@AEAV?$allocator@U?$_Tree_node@U?$pair@QEAVNodeHandle@roswrap@@V?$list@P6AXPEAVNodeHandle@roswrap@@PEBU?$RadarScan_@V?$allocator@X@std@@@sick_scan_xd@@@ZV?$allocator@P6AXPEAVNodeHandle@roswrap@@PEBU?$RadarScan_@V?$allocator@X@std@@@sick_scan_xd@@@Z@std@@@std@@@std@@PEAX@std@@@1@@Z
